ARM GAS  C:\Users\Lory\AppData\Local\Temp\ccH1gFkr.s 			page 1


   1              		.syntax unified
   2              		.cpu cortex-m3
   3              		.fpu softvfp
   4              		.eabi_attribute 20, 1
   5              		.eabi_attribute 21, 1
   6              		.eabi_attribute 23, 3
   7              		.eabi_attribute 24, 1
   8              		.eabi_attribute 25, 1
   9              		.eabi_attribute 26, 1
  10              		.eabi_attribute 30, 1
  11              		.eabi_attribute 34, 1
  12              		.eabi_attribute 18, 4
  13              		.thumb
  14              		.syntax unified
  15              		.file	"25LC256.c"
  16              		.text
  17              	.Ltext0:
  18              		.cfi_sections	.debug_frame
  19              		.section	.text.EEPROM_readStatus,"ax",%progbits
  20              		.align	2
  21              		.global	EEPROM_readStatus
  22              		.thumb
  23              		.thumb_func
  24              		.type	EEPROM_readStatus, %function
  25              	EEPROM_readStatus:
  26              	.LFB63:
  27              		.file 1 "25LC256.c"
   1:25LC256.c     **** /**
   2:25LC256.c     ****  * @file 25LC256.c
   3:25LC256.c     ****  * @brief Functions required to interface with the SPI EEPROM 25LC256.
   4:25LC256.c     ****  * 
   5:25LC256.c     ****  * This c file contains the API functions to interface
   6:25LC256.c     ****  * with the SPI EEPROM 25LC256.
   7:25LC256.c     ****  *
   8:25LC256.c     ****  * @author Mattia Pesenti
   9:25LC256.c     ****  * @date 24 March, 2020
  10:25LC256.c     **** */
  11:25LC256.c     **** 
  12:25LC256.c     **** #include "25LC256.h"
  13:25LC256.c     **** 
  14:25LC256.c     **** uint8_t eeprom_Status;
  15:25LC256.c     **** 
  16:25LC256.c     **** /** ====== Helper Functions ====== **/
  17:25LC256.c     **** 
  18:25LC256.c     **** uint8_t EEPROM_readStatus() 
  19:25LC256.c     **** {
  28              		.loc 1 19 0
  29              		.cfi_startproc
  30              		@ args = 0, pretend = 0, frame = 0
  31              		@ frame_needed = 0, uses_anonymous_args = 0
  32 0000 08B5     		push	{r3, lr}
  33              		.cfi_def_cfa_offset 8
  34              		.cfi_offset 3, -8
  35              		.cfi_offset 14, -4
  20:25LC256.c     **** 	return SPI_EEPROM_Interface_ReadByte(SPI_EEPROM_RDSR);
  36              		.loc 1 20 0
  37 0002 0520     		movs	r0, #5
ARM GAS  C:\Users\Lory\AppData\Local\Temp\ccH1gFkr.s 			page 2


  38 0004 FFF7FEFF 		bl	SPI_EEPROM_Interface_ReadByte
  39              	.LVL0:
  21:25LC256.c     **** }
  40              		.loc 1 21 0
  41 0008 08BD     		pop	{r3, pc}
  42              		.cfi_endproc
  43              	.LFE63:
  44              		.size	EEPROM_readStatus, .-EEPROM_readStatus
  45 000a 00BF     		.section	.text.EEPROM_writeEnable,"ax",%progbits
  46              		.align	2
  47              		.global	EEPROM_writeEnable
  48              		.thumb
  49              		.thumb_func
  50              		.type	EEPROM_writeEnable, %function
  51              	EEPROM_writeEnable:
  52              	.LFB64:
  22:25LC256.c     **** 
  23:25LC256.c     **** void EEPROM_writeEnable() 
  24:25LC256.c     **** {
  53              		.loc 1 24 0
  54              		.cfi_startproc
  55              		@ args = 0, pretend = 0, frame = 0
  56              		@ frame_needed = 0, uses_anonymous_args = 0
  57 0000 08B5     		push	{r3, lr}
  58              		.cfi_def_cfa_offset 8
  59              		.cfi_offset 3, -8
  60              		.cfi_offset 14, -4
  25:25LC256.c     **** 	/* Send 1-byte Instruction */
  26:25LC256.c     **** 	SPI_EEPROM_Interface_tradeByte(SPI_EEPROM_WREN);
  61              		.loc 1 26 0
  62 0002 0620     		movs	r0, #6
  63 0004 FFF7FEFF 		bl	SPI_EEPROM_Interface_tradeByte
  64              	.LVL1:
  65 0008 08BD     		pop	{r3, pc}
  66              		.cfi_endproc
  67              	.LFE64:
  68              		.size	EEPROM_writeEnable, .-EEPROM_writeEnable
  69 000a 00BF     		.section	.text.EEPROM_readByte,"ax",%progbits
  70              		.align	2
  71              		.global	EEPROM_readByte
  72              		.thumb
  73              		.thumb_func
  74              		.type	EEPROM_readByte, %function
  75              	EEPROM_readByte:
  76              	.LFB65:
  27:25LC256.c     **** }
  28:25LC256.c     **** 
  29:25LC256.c     **** /** ====== User-level Functions ====== **/
  30:25LC256.c     **** 
  31:25LC256.c     **** uint8_t EEPROM_readByte(uint16_t addr) 
  32:25LC256.c     **** {
  77              		.loc 1 32 0
  78              		.cfi_startproc
  79              		@ args = 0, pretend = 0, frame = 8
  80              		@ frame_needed = 0, uses_anonymous_args = 0
  81              	.LVL2:
  82 0000 00B5     		push	{lr}
ARM GAS  C:\Users\Lory\AppData\Local\Temp\ccH1gFkr.s 			page 3


  83              		.cfi_def_cfa_offset 4
  84              		.cfi_offset 14, -4
  85 0002 83B0     		sub	sp, sp, #12
  86              		.cfi_def_cfa_offset 16
  33:25LC256.c     **** 	/* Prepare the TX data packet: instruction + address */
  34:25LC256.c     **** 	uint8_t dataTX[3] = {SPI_EEPROM_READ, ((addr & 0xFF00) >> 8 ), (addr & 0x00FF)};
  87              		.loc 1 34 0
  88 0004 0321     		movs	r1, #3
  89 0006 8DF80410 		strb	r1, [sp, #4]
  90 000a 030A     		lsrs	r3, r0, #8
  91 000c 8DF80530 		strb	r3, [sp, #5]
  92 0010 8DF80600 		strb	r0, [sp, #6]
  35:25LC256.c     **** 	
  36:25LC256.c     **** 	/* Prepare the RX byte */
  37:25LC256.c     **** 	uint8_t dataRX = 0;
  93              		.loc 1 37 0
  94 0014 02AA     		add	r2, sp, #8
  95 0016 0023     		movs	r3, #0
  96 0018 02F8053D 		strb	r3, [r2, #-5]!
  38:25LC256.c     **** 	
  39:25LC256.c     **** 	/* Read 1 byte from addr */
  40:25LC256.c     **** 	SPI_EEPROM_Interface_Multi_RW(dataTX, 3, &dataRX, 1);
  97              		.loc 1 40 0
  98 001c 0123     		movs	r3, #1
  99 001e 01A8     		add	r0, sp, #4
 100              	.LVL3:
 101 0020 FFF7FEFF 		bl	SPI_EEPROM_Interface_Multi_RW
 102              	.LVL4:
  41:25LC256.c     ****     
  42:25LC256.c     ****     return dataRX;
  43:25LC256.c     **** }
 103              		.loc 1 43 0
 104 0024 9DF80300 		ldrb	r0, [sp, #3]	@ zero_extendqisi2
 105 0028 03B0     		add	sp, sp, #12
 106              		.cfi_def_cfa_offset 4
 107              		@ sp needed
 108 002a 5DF804FB 		ldr	pc, [sp], #4
 109              		.cfi_endproc
 110              	.LFE65:
 111              		.size	EEPROM_readByte, .-EEPROM_readByte
 112 002e 00BF     		.section	.text.EEPROM_writeByte,"ax",%progbits
 113              		.align	2
 114              		.global	EEPROM_writeByte
 115              		.thumb
 116              		.thumb_func
 117              		.type	EEPROM_writeByte, %function
 118              	EEPROM_writeByte:
 119              	.LFB66:
  44:25LC256.c     **** 
  45:25LC256.c     **** void EEPROM_writeByte(uint16_t addr, uint8_t dataByte) 
  46:25LC256.c     **** {
 120              		.loc 1 46 0
 121              		.cfi_startproc
 122              		@ args = 0, pretend = 0, frame = 8
 123              		@ frame_needed = 0, uses_anonymous_args = 0
 124              	.LVL5:
 125 0000 30B5     		push	{r4, r5, lr}
ARM GAS  C:\Users\Lory\AppData\Local\Temp\ccH1gFkr.s 			page 4


 126              		.cfi_def_cfa_offset 12
 127              		.cfi_offset 4, -12
 128              		.cfi_offset 5, -8
 129              		.cfi_offset 14, -4
 130 0002 83B0     		sub	sp, sp, #12
 131              		.cfi_def_cfa_offset 24
 132 0004 0446     		mov	r4, r0
 133 0006 0D46     		mov	r5, r1
  47:25LC256.c     ****     /* Enable WRITE operations */
  48:25LC256.c     ****     EEPROM_writeEnable();
 134              		.loc 1 48 0
 135 0008 FFF7FEFF 		bl	EEPROM_writeEnable
 136              	.LVL6:
  49:25LC256.c     **** 	
  50:25LC256.c     **** 	/* Prepare the TX packet */
  51:25LC256.c     ****     uint8_t dataTX[4] = {SPI_EEPROM_WRITE, ((addr & 0xFF00) >> 8), (addr & 0x00FF), dataByte};
 137              		.loc 1 51 0
 138 000c 0223     		movs	r3, #2
 139 000e 8DF80430 		strb	r3, [sp, #4]
 140 0012 230A     		lsrs	r3, r4, #8
 141 0014 8DF80530 		strb	r3, [sp, #5]
 142 0018 8DF80640 		strb	r4, [sp, #6]
 143 001c 8DF80750 		strb	r5, [sp, #7]
  52:25LC256.c     **** 	/* Nothing to RX... */
  53:25LC256.c     **** 	uint8_t temp = 0;
 144              		.loc 1 53 0
 145 0020 0023     		movs	r3, #0
 146 0022 02AA     		add	r2, sp, #8
 147 0024 02F8053D 		strb	r3, [r2, #-5]!
  54:25LC256.c     **** 	
  55:25LC256.c     **** 	/* Write 1 byte to addr */
  56:25LC256.c     **** 	SPI_EEPROM_Interface_Multi_RW(dataTX, 4, &temp, 0);
 148              		.loc 1 56 0
 149 0028 0421     		movs	r1, #4
 150 002a 0DEB0100 		add	r0, sp, r1
 151 002e FFF7FEFF 		bl	SPI_EEPROM_Interface_Multi_RW
 152              	.LVL7:
  57:25LC256.c     **** }
 153              		.loc 1 57 0
 154 0032 03B0     		add	sp, sp, #12
 155              		.cfi_def_cfa_offset 12
 156              		@ sp needed
 157 0034 30BD     		pop	{r4, r5, pc}
 158              		.cfi_endproc
 159              	.LFE66:
 160              		.size	EEPROM_writeByte, .-EEPROM_writeByte
 161 0036 00BF     		.section	.text.EEPROM_readPage,"ax",%progbits
 162              		.align	2
 163              		.global	EEPROM_readPage
 164              		.thumb
 165              		.thumb_func
 166              		.type	EEPROM_readPage, %function
 167              	EEPROM_readPage:
 168              	.LFB67:
  58:25LC256.c     **** 
  59:25LC256.c     **** void EEPROM_readPage(uint16_t addr, uint8_t* dataRX, uint8_t nBytes) 
  60:25LC256.c     **** {
ARM GAS  C:\Users\Lory\AppData\Local\Temp\ccH1gFkr.s 			page 5


 169              		.loc 1 60 0
 170              		.cfi_startproc
 171              		@ args = 0, pretend = 0, frame = 8
 172              		@ frame_needed = 0, uses_anonymous_args = 0
 173              	.LVL8:
 174 0000 10B5     		push	{r4, lr}
 175              		.cfi_def_cfa_offset 8
 176              		.cfi_offset 4, -8
 177              		.cfi_offset 14, -4
 178 0002 82B0     		sub	sp, sp, #8
 179              		.cfi_def_cfa_offset 16
  61:25LC256.c     **** 	/* Prepare the TX data packet: instruction + address */
  62:25LC256.c     **** 	uint8_t dataTX[3] = {SPI_EEPROM_READ, ((addr & 0xFF00) >> 8), (addr & 0x00FF)};
 180              		.loc 1 62 0
 181 0004 0324     		movs	r4, #3
 182 0006 8DF80440 		strb	r4, [sp, #4]
 183 000a 030A     		lsrs	r3, r0, #8
 184 000c 8DF80530 		strb	r3, [sp, #5]
 185 0010 8DF80600 		strb	r0, [sp, #6]
  63:25LC256.c     **** 	
  64:25LC256.c     **** 	/* Read the nBytes */
  65:25LC256.c     **** 	SPI_EEPROM_Interface_Multi_RW(dataTX, 3, dataRX, nBytes);
 186              		.loc 1 65 0
 187 0014 1346     		mov	r3, r2
 188 0016 0A46     		mov	r2, r1
 189              	.LVL9:
 190 0018 2146     		mov	r1, r4
 191              	.LVL10:
 192 001a 01A8     		add	r0, sp, #4
 193              	.LVL11:
 194 001c FFF7FEFF 		bl	SPI_EEPROM_Interface_Multi_RW
 195              	.LVL12:
  66:25LC256.c     **** }
 196              		.loc 1 66 0
 197 0020 02B0     		add	sp, sp, #8
 198              		.cfi_def_cfa_offset 8
 199              		@ sp needed
 200 0022 10BD     		pop	{r4, pc}
 201              		.cfi_endproc
 202              	.LFE67:
 203              		.size	EEPROM_readPage, .-EEPROM_readPage
 204              		.section	.text.EEPROM_writePage,"ax",%progbits
 205              		.align	2
 206              		.global	EEPROM_writePage
 207              		.thumb
 208              		.thumb_func
 209              		.type	EEPROM_writePage, %function
 210              	EEPROM_writePage:
 211              	.LFB68:
  67:25LC256.c     **** 
  68:25LC256.c     **** void EEPROM_writePage(uint16_t addr, uint8_t* data, uint8_t nBytes) 
  69:25LC256.c     **** {
 212              		.loc 1 69 0
 213              		.cfi_startproc
 214              		@ args = 0, pretend = 0, frame = 8
 215              		@ frame_needed = 1, uses_anonymous_args = 0
 216              	.LVL13:
ARM GAS  C:\Users\Lory\AppData\Local\Temp\ccH1gFkr.s 			page 6


 217 0000 2DE9F041 		push	{r4, r5, r6, r7, r8, lr}
 218              		.cfi_def_cfa_offset 24
 219              		.cfi_offset 4, -24
 220              		.cfi_offset 5, -20
 221              		.cfi_offset 6, -16
 222              		.cfi_offset 7, -12
 223              		.cfi_offset 8, -8
 224              		.cfi_offset 14, -4
 225 0004 82B0     		sub	sp, sp, #8
 226              		.cfi_def_cfa_offset 32
 227 0006 00AF     		add	r7, sp, #0
 228              		.cfi_def_cfa_register 7
 229 0008 0546     		mov	r5, r0
 230 000a 8846     		mov	r8, r1
 231 000c 1446     		mov	r4, r2
  70:25LC256.c     ****     /* Enable WRITE operations */
  71:25LC256.c     ****     EEPROM_writeEnable();
 232              		.loc 1 71 0
 233 000e FFF7FEFF 		bl	EEPROM_writeEnable
 234              	.LVL14:
  72:25LC256.c     **** 	
  73:25LC256.c     ****     CyDelayUs(1);
 235              		.loc 1 73 0
 236 0012 0120     		movs	r0, #1
 237 0014 FFF7FEFF 		bl	CyDelayUs
 238              	.LVL15:
  74:25LC256.c     ****     
  75:25LC256.c     **** 	/* Prepare the TX packet of size nBytes+3 
  76:25LC256.c     ****        [ Write Instruction - Address MSB - Address LSB - +++data+++ ]
  77:25LC256.c     ****     */
  78:25LC256.c     **** 	uint8_t dataTX[3+nBytes];
 239              		.loc 1 78 0
 240 0018 E61C     		adds	r6, r4, #3
 241              	.LVL16:
 242 001a 04F10A03 		add	r3, r4, #10
 243 001e 23F00703 		bic	r3, r3, #7
 244 0022 ADEB030D 		sub	sp, sp, r3
 245              	.LVL17:
  79:25LC256.c     ****     dataTX[0] = SPI_EEPROM_WRITE;
 246              		.loc 1 79 0
 247 0026 0223     		movs	r3, #2
 248 0028 8DF80030 		strb	r3, [sp]
  80:25LC256.c     ****     dataTX[1] = (addr & 0xFF00) >> 8;
 249              		.loc 1 80 0
 250 002c 2B0A     		lsrs	r3, r5, #8
 251 002e 8DF80130 		strb	r3, [sp, #1]
  81:25LC256.c     ****     dataTX[2] = addr & 0x00FF;
 252              		.loc 1 81 0
 253 0032 8DF80250 		strb	r5, [sp, #2]
  82:25LC256.c     ****     /* Copy the input data in the memory */
  83:25LC256.c     **** 	memcpy(&dataTX[3], data, nBytes);
 254              		.loc 1 83 0
 255 0036 2246     		mov	r2, r4
 256 0038 4146     		mov	r1, r8
 257 003a 0DF10300 		add	r0, sp, #3
 258 003e FFF7FEFF 		bl	memcpy
 259              	.LVL18:
ARM GAS  C:\Users\Lory\AppData\Local\Temp\ccH1gFkr.s 			page 7


  84:25LC256.c     **** 	
  85:25LC256.c     **** 	/* Nothing to RX: point to a dummy variable */
  86:25LC256.c     **** 	uint8_t temp = 0;
 260              		.loc 1 86 0
 261 0042 0023     		movs	r3, #0
 262 0044 07F10802 		add	r2, r7, #8
 263 0048 02F8013D 		strb	r3, [r2, #-1]!
  87:25LC256.c     **** 	
  88:25LC256.c     **** 	SPI_EEPROM_Interface_Multi_RW(dataTX, 3+nBytes, &temp, 0);
 264              		.loc 1 88 0
 265 004c F1B2     		uxtb	r1, r6
 266 004e 6846     		mov	r0, sp
 267 0050 FFF7FEFF 		bl	SPI_EEPROM_Interface_Multi_RW
 268              	.LVL19:
  89:25LC256.c     **** }
 269              		.loc 1 89 0
 270 0054 0837     		adds	r7, r7, #8
 271              		.cfi_def_cfa_offset 24
 272 0056 BD46     		mov	sp, r7
 273              		.cfi_def_cfa_register 13
 274              	.LVL20:
 275              		@ sp needed
 276 0058 BDE8F081 		pop	{r4, r5, r6, r7, r8, pc}
 277              		.cfi_endproc
 278              	.LFE68:
 279              		.size	EEPROM_writePage, .-EEPROM_writePage
 280              		.section	.text.EEPROM_waitForWriteComplete,"ax",%progbits
 281              		.align	2
 282              		.global	EEPROM_waitForWriteComplete
 283              		.thumb
 284              		.thumb_func
 285              		.type	EEPROM_waitForWriteComplete, %function
 286              	EEPROM_waitForWriteComplete:
 287              	.LFB69:
  90:25LC256.c     **** 
  91:25LC256.c     **** void EEPROM_waitForWriteComplete() 
  92:25LC256.c     **** {
 288              		.loc 1 92 0
 289              		.cfi_startproc
 290              		@ args = 0, pretend = 0, frame = 0
 291              		@ frame_needed = 0, uses_anonymous_args = 0
 292 0000 08B5     		push	{r3, lr}
 293              		.cfi_def_cfa_offset 8
 294              		.cfi_offset 3, -8
 295              		.cfi_offset 14, -4
 296              	.L14:
  93:25LC256.c     ****     while( EEPROM_readStatus() & SPI_EEPROM_WRITE_IN_PROGRESS );
 297              		.loc 1 93 0 discriminator 1
 298 0002 FFF7FEFF 		bl	EEPROM_readStatus
 299              	.LVL21:
 300 0006 10F0010F 		tst	r0, #1
 301 000a FAD1     		bne	.L14
  94:25LC256.c     **** }
 302              		.loc 1 94 0
 303 000c 08BD     		pop	{r3, pc}
 304              		.cfi_endproc
 305              	.LFE69:
ARM GAS  C:\Users\Lory\AppData\Local\Temp\ccH1gFkr.s 			page 8


 306              		.size	EEPROM_waitForWriteComplete, .-EEPROM_waitForWriteComplete
 307 000e 00BF     		.section	.text.EEPROM_saveStartStopState,"ax",%progbits
 308              		.align	2
 309              		.global	EEPROM_saveStartStopState
 310              		.thumb
 311              		.thumb_func
 312              		.type	EEPROM_saveStartStopState, %function
 313              	EEPROM_saveStartStopState:
 314              	.LFB70:
  95:25LC256.c     **** 
  96:25LC256.c     **** /*
  97:25LC256.c     ****  * Save start/stop state bit into the EEPROM.
  98:25LC256.c     ****  */
  99:25LC256.c     **** void EEPROM_saveStartStopState(uint8_t state)
 100:25LC256.c     **** {
 315              		.loc 1 100 0
 316              		.cfi_startproc
 317              		@ args = 0, pretend = 0, frame = 0
 318              		@ frame_needed = 0, uses_anonymous_args = 0
 319              	.LVL22:
 320 0000 10B5     		push	{r4, lr}
 321              		.cfi_def_cfa_offset 8
 322              		.cfi_offset 4, -8
 323              		.cfi_offset 14, -4
 324 0002 0446     		mov	r4, r0
 101:25LC256.c     ****     // Read current register content
 102:25LC256.c     ****     uint8_t ctrl_reg = EEPROM_readByte(CTRL_REG_PSOC_STATUS);
 325              		.loc 1 102 0
 326 0004 0020     		movs	r0, #0
 327              	.LVL23:
 328 0006 FFF7FEFF 		bl	EEPROM_readByte
 329              	.LVL24:
 103:25LC256.c     ****     
 104:25LC256.c     ****     // Check state and setup mask
 105:25LC256.c     ****     if (state == 1)
 330              		.loc 1 105 0
 331 000a 012C     		cmp	r4, #1
 332 000c 03D1     		bne	.L17
 106:25LC256.c     ****     {
 107:25LC256.c     ****         ctrl_reg |= CTRL_REG_PSOC_SET_START;
 333              		.loc 1 107 0
 334 000e 40F00101 		orr	r1, r0, #1
 335 0012 C9B2     		uxtb	r1, r1
 336              	.LVL25:
 337 0014 01E0     		b	.L18
 338              	.LVL26:
 339              	.L17:
 108:25LC256.c     ****     }
 109:25LC256.c     ****     else
 110:25LC256.c     ****     {
 111:25LC256.c     ****         ctrl_reg &= ~CTRL_REG_PSOC_SET_START;
 340              		.loc 1 111 0
 341 0016 00F0FE01 		and	r1, r0, #254
 342              	.LVL27:
 343              	.L18:
 112:25LC256.c     ****     }
 113:25LC256.c     ****     
ARM GAS  C:\Users\Lory\AppData\Local\Temp\ccH1gFkr.s 			page 9


 114:25LC256.c     ****     // Overwrite register content
 115:25LC256.c     ****     EEPROM_writeByte(CTRL_REG_PSOC_STATUS, ctrl_reg);
 344              		.loc 1 115 0
 345 001a 0020     		movs	r0, #0
 346 001c FFF7FEFF 		bl	EEPROM_writeByte
 347              	.LVL28:
 116:25LC256.c     ****     EEPROM_waitForWriteComplete();
 348              		.loc 1 116 0
 349 0020 FFF7FEFF 		bl	EEPROM_waitForWriteComplete
 350              	.LVL29:
 351 0024 10BD     		pop	{r4, pc}
 352              		.cfi_endproc
 353              	.LFE70:
 354              		.size	EEPROM_saveStartStopState, .-EEPROM_saveStartStopState
 355              		.section	.text.EEPROM_retrieveStartStopState,"ax",%progbits
 356              		.align	2
 357              		.global	EEPROM_retrieveStartStopState
 358              		.thumb
 359              		.thumb_func
 360              		.type	EEPROM_retrieveStartStopState, %function
 361              	EEPROM_retrieveStartStopState:
 362              	.LFB71:
 117:25LC256.c     **** }
 118:25LC256.c     **** 
 119:25LC256.c     **** /*
 120:25LC256.c     ****  * Retrieve start/stop state bit from the EEPROM.
 121:25LC256.c     ****  */
 122:25LC256.c     **** uint8_t EEPROM_retrieveStartStopState(void)
 123:25LC256.c     **** {
 363              		.loc 1 123 0
 364              		.cfi_startproc
 365              		@ args = 0, pretend = 0, frame = 0
 366              		@ frame_needed = 0, uses_anonymous_args = 0
 367 0000 08B5     		push	{r3, lr}
 368              		.cfi_def_cfa_offset 8
 369              		.cfi_offset 3, -8
 370              		.cfi_offset 14, -4
 124:25LC256.c     ****     // Read current register content
 125:25LC256.c     ****     uint8_t ctrl_reg = EEPROM_readByte(CTRL_REG_PSOC_STATUS);
 371              		.loc 1 125 0
 372 0002 0020     		movs	r0, #0
 373 0004 FFF7FEFF 		bl	EEPROM_readByte
 374              	.LVL30:
 126:25LC256.c     ****     
 127:25LC256.c     ****     // Retrieve bit
 128:25LC256.c     ****     ctrl_reg &= CTRL_REG_PSOC_SET_START;
 129:25LC256.c     ****     ctrl_reg = (ctrl_reg >> CTRL_REG_PSOC_START_STOP_SHIFT) & 0x01;
 130:25LC256.c     ****     return ctrl_reg;
 131:25LC256.c     **** }
 375              		.loc 1 131 0
 376 0008 00F00100 		and	r0, r0, #1
 377              	.LVL31:
 378 000c 08BD     		pop	{r3, pc}
 379              		.cfi_endproc
 380              	.LFE71:
 381              		.size	EEPROM_retrieveStartStopState, .-EEPROM_retrieveStartStopState
 382 000e 00BF     		.section	.text.EEPROM_saveConfigFlag,"ax",%progbits
ARM GAS  C:\Users\Lory\AppData\Local\Temp\ccH1gFkr.s 			page 10


 383              		.align	2
 384              		.global	EEPROM_saveConfigFlag
 385              		.thumb
 386              		.thumb_func
 387              		.type	EEPROM_saveConfigFlag, %function
 388              	EEPROM_saveConfigFlag:
 389              	.LFB72:
 132:25LC256.c     **** 
 133:25LC256.c     **** /*
 134:25LC256.c     ****  * Save configuration mode flag into the EEPROM.
 135:25LC256.c     ****  */
 136:25LC256.c     **** void EEPROM_saveConfigFlag(uint8_t flag)
 137:25LC256.c     **** {
 390              		.loc 1 137 0
 391              		.cfi_startproc
 392              		@ args = 0, pretend = 0, frame = 0
 393              		@ frame_needed = 0, uses_anonymous_args = 0
 394              	.LVL32:
 395 0000 10B5     		push	{r4, lr}
 396              		.cfi_def_cfa_offset 8
 397              		.cfi_offset 4, -8
 398              		.cfi_offset 14, -4
 399 0002 0446     		mov	r4, r0
 138:25LC256.c     ****     // Read current register content
 139:25LC256.c     ****     uint8_t ctrl_reg = EEPROM_readByte(CTRL_REG_PSOC_STATUS);
 400              		.loc 1 139 0
 401 0004 0020     		movs	r0, #0
 402              	.LVL33:
 403 0006 FFF7FEFF 		bl	EEPROM_readByte
 404              	.LVL34:
 140:25LC256.c     ****     
 141:25LC256.c     ****     // Check state and setup mask
 142:25LC256.c     ****     if (flag == 1)
 405              		.loc 1 142 0
 406 000a 012C     		cmp	r4, #1
 407 000c 03D1     		bne	.L23
 143:25LC256.c     ****     {
 144:25LC256.c     ****         ctrl_reg |= CTRL_REG_PSOC_SET_CONFIG;
 408              		.loc 1 144 0
 409 000e 40F00201 		orr	r1, r0, #2
 410 0012 C9B2     		uxtb	r1, r1
 411              	.LVL35:
 412 0014 01E0     		b	.L24
 413              	.LVL36:
 414              	.L23:
 145:25LC256.c     ****     }
 146:25LC256.c     ****     else
 147:25LC256.c     ****     {
 148:25LC256.c     ****         ctrl_reg &= ~CTRL_REG_PSOC_SET_CONFIG;
 415              		.loc 1 148 0
 416 0016 00F0FD01 		and	r1, r0, #253
 417              	.LVL37:
 418              	.L24:
 149:25LC256.c     ****     }
 150:25LC256.c     ****     
 151:25LC256.c     ****     // Overwrite register content
 152:25LC256.c     ****     EEPROM_writeByte(CTRL_REG_PSOC_STATUS, ctrl_reg);
ARM GAS  C:\Users\Lory\AppData\Local\Temp\ccH1gFkr.s 			page 11


 419              		.loc 1 152 0
 420 001a 0020     		movs	r0, #0
 421 001c FFF7FEFF 		bl	EEPROM_writeByte
 422              	.LVL38:
 153:25LC256.c     ****     EEPROM_waitForWriteComplete();
 423              		.loc 1 153 0
 424 0020 FFF7FEFF 		bl	EEPROM_waitForWriteComplete
 425              	.LVL39:
 426 0024 10BD     		pop	{r4, pc}
 427              		.cfi_endproc
 428              	.LFE72:
 429              		.size	EEPROM_saveConfigFlag, .-EEPROM_saveConfigFlag
 430              		.section	.text.EEPROM_retrieveConfigFlag,"ax",%progbits
 431              		.align	2
 432              		.global	EEPROM_retrieveConfigFlag
 433              		.thumb
 434              		.thumb_func
 435              		.type	EEPROM_retrieveConfigFlag, %function
 436              	EEPROM_retrieveConfigFlag:
 437              	.LFB73:
 154:25LC256.c     **** }
 155:25LC256.c     **** 
 156:25LC256.c     **** /*
 157:25LC256.c     ****  * Retrieve configuration mode flag from the EEPROM.
 158:25LC256.c     ****  */
 159:25LC256.c     **** uint8_t EEPROM_retrieveConfigFlag(void)
 160:25LC256.c     **** {
 438              		.loc 1 160 0
 439              		.cfi_startproc
 440              		@ args = 0, pretend = 0, frame = 0
 441              		@ frame_needed = 0, uses_anonymous_args = 0
 442 0000 08B5     		push	{r3, lr}
 443              		.cfi_def_cfa_offset 8
 444              		.cfi_offset 3, -8
 445              		.cfi_offset 14, -4
 161:25LC256.c     ****     // Read current register content
 162:25LC256.c     ****     uint8_t ctrl_reg =  EEPROM_readByte(CTRL_REG_PSOC_STATUS);
 446              		.loc 1 162 0
 447 0002 0020     		movs	r0, #0
 448 0004 FFF7FEFF 		bl	EEPROM_readByte
 449              	.LVL40:
 163:25LC256.c     ****     
 164:25LC256.c     ****     // Retrieve bit
 165:25LC256.c     ****     ctrl_reg &= CTRL_REG_PSOC_SET_CONFIG;
 166:25LC256.c     ****     ctrl_reg = (ctrl_reg >> CTRL_REG_PSOC_CONFIG_MODE_SHIFT) & 0x01;
 167:25LC256.c     ****     return ctrl_reg;
 168:25LC256.c     **** }
 450              		.loc 1 168 0
 451 0008 C0F34000 		ubfx	r0, r0, #1, #1
 452              	.LVL41:
 453 000c 08BD     		pop	{r3, pc}
 454              		.cfi_endproc
 455              	.LFE73:
 456              		.size	EEPROM_retrieveConfigFlag, .-EEPROM_retrieveConfigFlag
 457 000e 00BF     		.section	.text.EEPROM_saveSendFlag,"ax",%progbits
 458              		.align	2
 459              		.global	EEPROM_saveSendFlag
ARM GAS  C:\Users\Lory\AppData\Local\Temp\ccH1gFkr.s 			page 12


 460              		.thumb
 461              		.thumb_func
 462              		.type	EEPROM_saveSendFlag, %function
 463              	EEPROM_saveSendFlag:
 464              	.LFB74:
 169:25LC256.c     **** 
 170:25LC256.c     **** /*
 171:25LC256.c     ****  * Save send flag into the EEPROM.
 172:25LC256.c     ****  */
 173:25LC256.c     **** void EEPROM_saveSendFlag(uint8_t flag)
 174:25LC256.c     **** {
 465              		.loc 1 174 0
 466              		.cfi_startproc
 467              		@ args = 0, pretend = 0, frame = 0
 468              		@ frame_needed = 0, uses_anonymous_args = 0
 469              	.LVL42:
 470 0000 10B5     		push	{r4, lr}
 471              		.cfi_def_cfa_offset 8
 472              		.cfi_offset 4, -8
 473              		.cfi_offset 14, -4
 474 0002 0446     		mov	r4, r0
 175:25LC256.c     ****     // Read current register content
 176:25LC256.c     ****     uint8_t ctrl_reg = EEPROM_readByte(CTRL_REG_PSOC_STATUS);
 475              		.loc 1 176 0
 476 0004 0020     		movs	r0, #0
 477              	.LVL43:
 478 0006 FFF7FEFF 		bl	EEPROM_readByte
 479              	.LVL44:
 177:25LC256.c     ****     
 178:25LC256.c     ****     // Check state and setup mask
 179:25LC256.c     ****     if (flag == 1)
 480              		.loc 1 179 0
 481 000a 012C     		cmp	r4, #1
 482 000c 03D1     		bne	.L29
 180:25LC256.c     ****     {
 181:25LC256.c     ****         ctrl_reg |= CTRL_REG_PSOC_SET_SEND_FLAG;
 483              		.loc 1 181 0
 484 000e 40F00401 		orr	r1, r0, #4
 485 0012 C9B2     		uxtb	r1, r1
 486              	.LVL45:
 487 0014 01E0     		b	.L30
 488              	.LVL46:
 489              	.L29:
 182:25LC256.c     ****     }
 183:25LC256.c     ****     else
 184:25LC256.c     ****     {
 185:25LC256.c     ****         ctrl_reg &= ~CTRL_REG_PSOC_SET_SEND_FLAG;
 490              		.loc 1 185 0
 491 0016 00F0FB01 		and	r1, r0, #251
 492              	.LVL47:
 493              	.L30:
 186:25LC256.c     ****     }
 187:25LC256.c     ****     
 188:25LC256.c     ****     // Overwrite register content
 189:25LC256.c     ****     EEPROM_writeByte(CTRL_REG_PSOC_STATUS, ctrl_reg);
 494              		.loc 1 189 0
 495 001a 0020     		movs	r0, #0
ARM GAS  C:\Users\Lory\AppData\Local\Temp\ccH1gFkr.s 			page 13


 496 001c FFF7FEFF 		bl	EEPROM_writeByte
 497              	.LVL48:
 190:25LC256.c     ****     EEPROM_waitForWriteComplete();
 498              		.loc 1 190 0
 499 0020 FFF7FEFF 		bl	EEPROM_waitForWriteComplete
 500              	.LVL49:
 501 0024 10BD     		pop	{r4, pc}
 502              		.cfi_endproc
 503              	.LFE74:
 504              		.size	EEPROM_saveSendFlag, .-EEPROM_saveSendFlag
 505              		.section	.text.EEPROM_retrieveSendFlag,"ax",%progbits
 506              		.align	2
 507              		.global	EEPROM_retrieveSendFlag
 508              		.thumb
 509              		.thumb_func
 510              		.type	EEPROM_retrieveSendFlag, %function
 511              	EEPROM_retrieveSendFlag:
 512              	.LFB75:
 191:25LC256.c     **** }
 192:25LC256.c     **** 
 193:25LC256.c     **** /*
 194:25LC256.c     ****  * Retrieve configuration mode flag from the EEPROM.
 195:25LC256.c     ****  */
 196:25LC256.c     **** uint8_t EEPROM_retrieveSendFlag(void)
 197:25LC256.c     **** {
 513              		.loc 1 197 0
 514              		.cfi_startproc
 515              		@ args = 0, pretend = 0, frame = 0
 516              		@ frame_needed = 0, uses_anonymous_args = 0
 517 0000 08B5     		push	{r3, lr}
 518              		.cfi_def_cfa_offset 8
 519              		.cfi_offset 3, -8
 520              		.cfi_offset 14, -4
 198:25LC256.c     ****     // Read current register content
 199:25LC256.c     ****     uint8_t ctrl_reg =  EEPROM_readByte(CTRL_REG_PSOC_STATUS);
 521              		.loc 1 199 0
 522 0002 0020     		movs	r0, #0
 523 0004 FFF7FEFF 		bl	EEPROM_readByte
 524              	.LVL50:
 200:25LC256.c     ****     
 201:25LC256.c     ****     // Retrieve bit
 202:25LC256.c     ****     ctrl_reg &= CTRL_REG_PSOC_SET_SEND_FLAG;
 203:25LC256.c     ****     ctrl_reg = (ctrl_reg >> CTRL_REG_PSOC_SEND_FLAG_SHIFT) & 0x01;
 204:25LC256.c     ****     return ctrl_reg;
 205:25LC256.c     **** }
 525              		.loc 1 205 0
 526 0008 C0F38000 		ubfx	r0, r0, #2, #1
 527              	.LVL51:
 528 000c 08BD     		pop	{r3, pc}
 529              		.cfi_endproc
 530              	.LFE75:
 531              		.size	EEPROM_retrieveSendFlag, .-EEPROM_retrieveSendFlag
 532 000e 00BF     		.section	.text.EEPROM_retrieveLogPages,"ax",%progbits
 533              		.align	2
 534              		.global	EEPROM_retrieveLogPages
 535              		.thumb
 536              		.thumb_func
ARM GAS  C:\Users\Lory\AppData\Local\Temp\ccH1gFkr.s 			page 14


 537              		.type	EEPROM_retrieveLogPages, %function
 538              	EEPROM_retrieveLogPages:
 539              	.LFB76:
 206:25LC256.c     **** 
 207:25LC256.c     **** /*
 208:25LC256.c     ****  * Read number of logs currently stored in the EEPROM.
 209:25LC256.c     ****  */
 210:25LC256.c     **** uint16_t EEPROM_retrieveLogPages(void)
 211:25LC256.c     **** {
 540              		.loc 1 211 0
 541              		.cfi_startproc
 542              		@ args = 0, pretend = 0, frame = 0
 543              		@ frame_needed = 0, uses_anonymous_args = 0
 544 0000 10B5     		push	{r4, lr}
 545              		.cfi_def_cfa_offset 8
 546              		.cfi_offset 4, -8
 547              		.cfi_offset 14, -4
 212:25LC256.c     ****     // Read current registers and increment counter
 213:25LC256.c     ****     uint16_t reg_count = EEPROM_readByte(CTRL_REG_LOG_PAGES_HIGH) << 8;
 548              		.loc 1 213 0
 549 0002 1620     		movs	r0, #22
 550 0004 FFF7FEFF 		bl	EEPROM_readByte
 551              	.LVL52:
 552 0008 0002     		lsls	r0, r0, #8
 553 000a 84B2     		uxth	r4, r0
 554              	.LVL53:
 214:25LC256.c     ****     reg_count |= EEPROM_readByte(CTRL_REG_LOG_PAGES_LOW);
 555              		.loc 1 214 0
 556 000c 0820     		movs	r0, #8
 557 000e FFF7FEFF 		bl	EEPROM_readByte
 558              	.LVL54:
 559 0012 2043     		orrs	r0, r0, r4
 560              	.LVL55:
 215:25LC256.c     ****     
 216:25LC256.c     ****     // Return log counter
 217:25LC256.c     ****     return reg_count;
 218:25LC256.c     **** }
 561              		.loc 1 218 0
 562 0014 80B2     		uxth	r0, r0
 563 0016 10BD     		pop	{r4, pc}
 564              		.cfi_endproc
 565              	.LFE76:
 566              		.size	EEPROM_retrieveLogPages, .-EEPROM_retrieveLogPages
 567              		.section	.text.EEPROM_incrementLogCounter,"ax",%progbits
 568              		.align	2
 569              		.global	EEPROM_incrementLogCounter
 570              		.thumb
 571              		.thumb_func
 572              		.type	EEPROM_incrementLogCounter, %function
 573              	EEPROM_incrementLogCounter:
 574              	.LFB77:
 219:25LC256.c     **** 
 220:25LC256.c     **** /*
 221:25LC256.c     ****  * Increment by 1 number of logs of the log control register.
 222:25LC256.c     ****  */
 223:25LC256.c     **** void EEPROM_incrementLogCounter()
 224:25LC256.c     **** {
ARM GAS  C:\Users\Lory\AppData\Local\Temp\ccH1gFkr.s 			page 15


 575              		.loc 1 224 0
 576              		.cfi_startproc
 577              		@ args = 0, pretend = 0, frame = 0
 578              		@ frame_needed = 0, uses_anonymous_args = 0
 579 0000 10B5     		push	{r4, lr}
 580              		.cfi_def_cfa_offset 8
 581              		.cfi_offset 4, -8
 582              		.cfi_offset 14, -4
 225:25LC256.c     ****     // Read number of already written pages
 226:25LC256.c     ****     uint16_t reg_count = EEPROM_retrieveLogPages();
 583              		.loc 1 226 0
 584 0002 FFF7FEFF 		bl	EEPROM_retrieveLogPages
 585              	.LVL56:
 227:25LC256.c     ****     reg_count++;
 586              		.loc 1 227 0
 587 0006 0130     		adds	r0, r0, #1
 588              	.LVL57:
 589 0008 81B2     		uxth	r1, r0
 590              	.LVL58:
 228:25LC256.c     ****     
 229:25LC256.c     ****     // Divide into two 8-bit registers
 230:25LC256.c     ****     uint8_t reg_count_low = reg_count & 0x00FF;
 231:25LC256.c     ****     uint8_t reg_count_high = (reg_count >> 8) & 0x00FF;
 591              		.loc 1 231 0
 592 000a 0C0A     		lsrs	r4, r1, #8
 593              	.LVL59:
 232:25LC256.c     ****     
 233:25LC256.c     ****     // Overwrite registers
 234:25LC256.c     ****     EEPROM_writeByte(CTRL_REG_LOG_PAGES_LOW, reg_count_low);
 594              		.loc 1 234 0
 595 000c C9B2     		uxtb	r1, r1
 596              	.LVL60:
 597 000e 0820     		movs	r0, #8
 598              	.LVL61:
 599 0010 FFF7FEFF 		bl	EEPROM_writeByte
 600              	.LVL62:
 235:25LC256.c     ****     EEPROM_waitForWriteComplete();
 601              		.loc 1 235 0
 602 0014 FFF7FEFF 		bl	EEPROM_waitForWriteComplete
 603              	.LVL63:
 236:25LC256.c     ****     EEPROM_writeByte(CTRL_REG_LOG_PAGES_HIGH, reg_count_high);
 604              		.loc 1 236 0
 605 0018 2146     		mov	r1, r4
 606 001a 1620     		movs	r0, #22
 607 001c FFF7FEFF 		bl	EEPROM_writeByte
 608              	.LVL64:
 237:25LC256.c     ****     EEPROM_waitForWriteComplete();
 609              		.loc 1 237 0
 610 0020 FFF7FEFF 		bl	EEPROM_waitForWriteComplete
 611              	.LVL65:
 612 0024 10BD     		pop	{r4, pc}
 613              		.cfi_endproc
 614              	.LFE77:
 615              		.size	EEPROM_incrementLogCounter, .-EEPROM_incrementLogCounter
 616 0026 00BF     		.section	.text.EEPROM_storeLogData,"ax",%progbits
 617              		.align	2
 618              		.global	EEPROM_storeLogData
ARM GAS  C:\Users\Lory\AppData\Local\Temp\ccH1gFkr.s 			page 16


 619              		.thumb
 620              		.thumb_func
 621              		.type	EEPROM_storeLogData, %function
 622              	EEPROM_storeLogData:
 623              	.LFB78:
 238:25LC256.c     ****     
 239:25LC256.c     ****     // TODO: CHECK OVERFLOW
 240:25LC256.c     **** }
 241:25LC256.c     **** 
 242:25LC256.c     **** /*
 243:25LC256.c     ****  * Store log data buffer inside first unoccupied memory page
 244:25LC256.c     ****  * inside the EEPROM. Writing a data buffer of size greater 
 245:25LC256.c     ****  * than page size will be prevented.
 246:25LC256.c     ****  */
 247:25LC256.c     **** void EEPROM_storeLogData(uint8_t* dataPtr, uint8_t nBytes)
 248:25LC256.c     **** {
 624              		.loc 1 248 0
 625              		.cfi_startproc
 626              		@ args = 0, pretend = 0, frame = 0
 627              		@ frame_needed = 0, uses_anonymous_args = 0
 628              	.LVL66:
 249:25LC256.c     ****     // Check page boundary
 250:25LC256.c     ****     if (nBytes <= SPI_EEPROM_PAGE_SIZE)
 629              		.loc 1 250 0
 630 0000 4029     		cmp	r1, #64
 631 0002 0ED8     		bhi	.L41
 248:25LC256.c     ****     // Check page boundary
 632              		.loc 1 248 0
 633 0004 38B5     		push	{r3, r4, r5, lr}
 634              		.cfi_def_cfa_offset 16
 635              		.cfi_offset 3, -16
 636              		.cfi_offset 4, -12
 637              		.cfi_offset 5, -8
 638              		.cfi_offset 14, -4
 639 0006 0C46     		mov	r4, r1
 640 0008 0546     		mov	r5, r0
 641              	.LBB2:
 251:25LC256.c     ****     {
 252:25LC256.c     ****         // Check of many logs currently stored
 253:25LC256.c     ****         uint16_t page_count = EEPROM_retrieveLogPages();
 642              		.loc 1 253 0
 643 000a FFF7FEFF 		bl	EEPROM_retrieveLogPages
 644              	.LVL67:
 254:25LC256.c     ****     
 255:25LC256.c     ****         // Compute first available address 
 256:25LC256.c     ****         uint16_t page_addr = LOG_DATA_BASE_ADDR + page_count * SPI_EEPROM_PAGE_SIZE;
 645              		.loc 1 256 0
 646 000e 0130     		adds	r0, r0, #1
 647              	.LVL68:
 648 0010 8301     		lsls	r3, r0, #6
 649 0012 98B2     		uxth	r0, r3
 650              	.LVL69:
 257:25LC256.c     ****         
 258:25LC256.c     ****         // Write EEPROM page
 259:25LC256.c     ****         EEPROM_writePage(page_addr, dataPtr, nBytes);
 651              		.loc 1 259 0
 652 0014 2246     		mov	r2, r4
ARM GAS  C:\Users\Lory\AppData\Local\Temp\ccH1gFkr.s 			page 17


 653 0016 2946     		mov	r1, r5
 654 0018 FFF7FEFF 		bl	EEPROM_writePage
 655              	.LVL70:
 260:25LC256.c     ****         EEPROM_waitForWriteComplete();
 656              		.loc 1 260 0
 657 001c FFF7FEFF 		bl	EEPROM_waitForWriteComplete
 658              	.LVL71:
 659 0020 38BD     		pop	{r3, r4, r5, pc}
 660              	.LVL72:
 661              	.L41:
 662              		.cfi_def_cfa_offset 0
 663              		.cfi_restore 3
 664              		.cfi_restore 4
 665              		.cfi_restore 5
 666              		.cfi_restore 14
 667 0022 7047     		bx	lr
 668              	.LBE2:
 669              		.cfi_endproc
 670              	.LFE78:
 671              		.size	EEPROM_storeLogData, .-EEPROM_storeLogData
 672              		.comm	eeprom_Status,1,1
 673              		.text
 674              	.Letext0:
 675              		.file 2 "c:\\program files (x86)\\cypress\\psoc creator\\4.3\\psoc creator\\import\\gnu\\arm\\5.4.
 676              		.file 3 "c:\\program files (x86)\\cypress\\psoc creator\\4.3\\psoc creator\\import\\gnu\\arm\\5.4.
 677              		.file 4 "Generated_Source\\PSoC5/core_cm3.h"
 678              		.file 5 "SPI_Interface.h"
 679              		.file 6 "Generated_Source\\PSoC5/CyLib.h"