ARM GAS  C:\Users\Lory\AppData\Local\Temp\ccNUpijZ.s 			page 1


   1              		.syntax unified
   2              		.cpu cortex-m3
   3              		.fpu softvfp
   4              		.eabi_attribute 20, 1
   5              		.eabi_attribute 21, 1
   6              		.eabi_attribute 23, 3
   7              		.eabi_attribute 24, 1
   8              		.eabi_attribute 25, 1
   9              		.eabi_attribute 26, 1
  10              		.eabi_attribute 30, 1
  11              		.eabi_attribute 34, 1
  12              		.eabi_attribute 18, 4
  13              		.thumb
  14              		.syntax unified
  15              		.file	"ADC_DELSIG.c"
  16              		.text
  17              	.Ltext0:
  18              		.cfi_sections	.debug_frame
  19              		.section	.text.ADC_DELSIG_GainCompensation,"ax",%progbits
  20              		.align	2
  21              		.thumb
  22              		.thumb_func
  23              		.type	ADC_DELSIG_GainCompensation, %function
  24              	ADC_DELSIG_GainCompensation:
  25              	.LFB21:
  26              		.file 1 "Generated_Source\\PSoC5\\ADC_DELSIG.c"
   1:Generated_Source\PSoC5/ADC_DELSIG.c **** /*******************************************************************************
   2:Generated_Source\PSoC5/ADC_DELSIG.c **** * File Name: ADC_DELSIG.c
   3:Generated_Source\PSoC5/ADC_DELSIG.c **** * Version 3.30
   4:Generated_Source\PSoC5/ADC_DELSIG.c **** *
   5:Generated_Source\PSoC5/ADC_DELSIG.c **** * Description:
   6:Generated_Source\PSoC5/ADC_DELSIG.c **** *  This file provides the source code to the API for the Delta-Sigma ADC
   7:Generated_Source\PSoC5/ADC_DELSIG.c **** *  Component.
   8:Generated_Source\PSoC5/ADC_DELSIG.c **** *
   9:Generated_Source\PSoC5/ADC_DELSIG.c **** * Note:
  10:Generated_Source\PSoC5/ADC_DELSIG.c **** *
  11:Generated_Source\PSoC5/ADC_DELSIG.c **** ********************************************************************************
  12:Generated_Source\PSoC5/ADC_DELSIG.c **** * Copyright 2008-2017, Cypress Semiconductor Corporation.  All rights reserved.
  13:Generated_Source\PSoC5/ADC_DELSIG.c **** * You may use this file only in accordance with the license, terms, conditions,
  14:Generated_Source\PSoC5/ADC_DELSIG.c **** * disclaimers, and limitations in the end user license agreement accompanying
  15:Generated_Source\PSoC5/ADC_DELSIG.c **** * the software package with which this file was provided.
  16:Generated_Source\PSoC5/ADC_DELSIG.c **** *******************************************************************************/
  17:Generated_Source\PSoC5/ADC_DELSIG.c **** 
  18:Generated_Source\PSoC5/ADC_DELSIG.c **** #include "ADC_DELSIG.h"
  19:Generated_Source\PSoC5/ADC_DELSIG.c **** 
  20:Generated_Source\PSoC5/ADC_DELSIG.c **** #if(ADC_DELSIG_DEFAULT_INTERNAL_CLK)
  21:Generated_Source\PSoC5/ADC_DELSIG.c ****     #include "ADC_DELSIG_theACLK.h"
  22:Generated_Source\PSoC5/ADC_DELSIG.c **** #endif /* ADC_DELSIG_DEFAULT_INTERNAL_CLK */
  23:Generated_Source\PSoC5/ADC_DELSIG.c **** 
  24:Generated_Source\PSoC5/ADC_DELSIG.c **** #include "ADC_DELSIG_Ext_CP_Clk.h"
  25:Generated_Source\PSoC5/ADC_DELSIG.c **** 
  26:Generated_Source\PSoC5/ADC_DELSIG.c **** #if(ADC_DELSIG_DEFAULT_INPUT_MODE)
  27:Generated_Source\PSoC5/ADC_DELSIG.c ****     #include "ADC_DELSIG_AMux.h"
  28:Generated_Source\PSoC5/ADC_DELSIG.c **** #endif /* ADC_DELSIG_DEFAULT_INPUT_MODE */
  29:Generated_Source\PSoC5/ADC_DELSIG.c **** 
  30:Generated_Source\PSoC5/ADC_DELSIG.c **** 
  31:Generated_Source\PSoC5/ADC_DELSIG.c **** /***************************************
ARM GAS  C:\Users\Lory\AppData\Local\Temp\ccNUpijZ.s 			page 2


  32:Generated_Source\PSoC5/ADC_DELSIG.c **** * Global data allocation
  33:Generated_Source\PSoC5/ADC_DELSIG.c **** ***************************************/
  34:Generated_Source\PSoC5/ADC_DELSIG.c **** 
  35:Generated_Source\PSoC5/ADC_DELSIG.c **** /* Software flag for checking conversion completed or not */
  36:Generated_Source\PSoC5/ADC_DELSIG.c **** volatile uint8 ADC_DELSIG_convDone = 0u;
  37:Generated_Source\PSoC5/ADC_DELSIG.c **** 
  38:Generated_Source\PSoC5/ADC_DELSIG.c **** /* Software flag to stop conversion for single sample conversion mode
  39:Generated_Source\PSoC5/ADC_DELSIG.c **** *   with resolution above 16 bits 
  40:Generated_Source\PSoC5/ADC_DELSIG.c **** */
  41:Generated_Source\PSoC5/ADC_DELSIG.c **** volatile uint8 ADC_DELSIG_stopConversion = 0u;
  42:Generated_Source\PSoC5/ADC_DELSIG.c **** 
  43:Generated_Source\PSoC5/ADC_DELSIG.c **** /* To run the initialization block only at the start up */
  44:Generated_Source\PSoC5/ADC_DELSIG.c **** uint8 ADC_DELSIG_initVar = 0u;
  45:Generated_Source\PSoC5/ADC_DELSIG.c **** 
  46:Generated_Source\PSoC5/ADC_DELSIG.c **** /* To check whether ADC started or not before switching the configuration */
  47:Generated_Source\PSoC5/ADC_DELSIG.c **** volatile uint8 ADC_DELSIG_started = 0u;
  48:Generated_Source\PSoC5/ADC_DELSIG.c **** 
  49:Generated_Source\PSoC5/ADC_DELSIG.c **** /* Flag to hold ADC config number. By default active config is 1. */
  50:Generated_Source\PSoC5/ADC_DELSIG.c **** volatile uint8 ADC_DELSIG_Config = 1u;
  51:Generated_Source\PSoC5/ADC_DELSIG.c **** 
  52:Generated_Source\PSoC5/ADC_DELSIG.c **** volatile int32 ADC_DELSIG_Offset = 0;
  53:Generated_Source\PSoC5/ADC_DELSIG.c **** volatile int32 ADC_DELSIG_CountsPerVolt;
  54:Generated_Source\PSoC5/ADC_DELSIG.c **** 
  55:Generated_Source\PSoC5/ADC_DELSIG.c **** 
  56:Generated_Source\PSoC5/ADC_DELSIG.c **** /***************************************
  57:Generated_Source\PSoC5/ADC_DELSIG.c **** * Local data allocation
  58:Generated_Source\PSoC5/ADC_DELSIG.c **** ***************************************/
  59:Generated_Source\PSoC5/ADC_DELSIG.c **** 
  60:Generated_Source\PSoC5/ADC_DELSIG.c **** /* The array with precalculated gain compensation coefficients */
  61:Generated_Source\PSoC5/ADC_DELSIG.c **** static ADC_DELSIG_GCOR_STRUCT ADC_DELSIG_gcor[ADC_DELSIG_DEFAULT_NUM_CONFIGS];
  62:Generated_Source\PSoC5/ADC_DELSIG.c **** 
  63:Generated_Source\PSoC5/ADC_DELSIG.c **** 
  64:Generated_Source\PSoC5/ADC_DELSIG.c **** 
  65:Generated_Source\PSoC5/ADC_DELSIG.c **** /***************************************
  66:Generated_Source\PSoC5/ADC_DELSIG.c **** * Forward function references
  67:Generated_Source\PSoC5/ADC_DELSIG.c **** ***************************************/
  68:Generated_Source\PSoC5/ADC_DELSIG.c **** static void ADC_DELSIG_InitConfig(uint8 config) ;
  69:Generated_Source\PSoC5/ADC_DELSIG.c **** static void ADC_DELSIG_GainCompensation(uint8 inputRange, uint16 idealDecGain, uint16 idealOddDecGa
  70:Generated_Source\PSoC5/ADC_DELSIG.c ****                             uint8 resolution, uint8 config) ;
  71:Generated_Source\PSoC5/ADC_DELSIG.c **** static void ADC_DELSIG_SetDSMRef0Reg(uint8 value) ;
  72:Generated_Source\PSoC5/ADC_DELSIG.c **** 
  73:Generated_Source\PSoC5/ADC_DELSIG.c **** 
  74:Generated_Source\PSoC5/ADC_DELSIG.c **** /******************************************************************************
  75:Generated_Source\PSoC5/ADC_DELSIG.c **** * Function Name: ADC_DELSIG_Init
  76:Generated_Source\PSoC5/ADC_DELSIG.c **** *******************************************************************************
  77:Generated_Source\PSoC5/ADC_DELSIG.c **** *
  78:Generated_Source\PSoC5/ADC_DELSIG.c **** * Summary:
  79:Generated_Source\PSoC5/ADC_DELSIG.c **** *  Initialize component's parameters to the parameters set by user in the
  80:Generated_Source\PSoC5/ADC_DELSIG.c **** *  customizer of the component placed onto schematic. Usually called in
  81:Generated_Source\PSoC5/ADC_DELSIG.c **** * ADC_DELSIG_Start().
  82:Generated_Source\PSoC5/ADC_DELSIG.c **** *
  83:Generated_Source\PSoC5/ADC_DELSIG.c **** *
  84:Generated_Source\PSoC5/ADC_DELSIG.c **** * Parameters:
  85:Generated_Source\PSoC5/ADC_DELSIG.c **** *  None
  86:Generated_Source\PSoC5/ADC_DELSIG.c **** *
  87:Generated_Source\PSoC5/ADC_DELSIG.c **** * Return:
  88:Generated_Source\PSoC5/ADC_DELSIG.c **** *  None
ARM GAS  C:\Users\Lory\AppData\Local\Temp\ccNUpijZ.s 			page 3


  89:Generated_Source\PSoC5/ADC_DELSIG.c **** *
  90:Generated_Source\PSoC5/ADC_DELSIG.c **** *******************************************************************************/
  91:Generated_Source\PSoC5/ADC_DELSIG.c **** void ADC_DELSIG_Init(void) 
  92:Generated_Source\PSoC5/ADC_DELSIG.c **** {
  93:Generated_Source\PSoC5/ADC_DELSIG.c **** 
  94:Generated_Source\PSoC5/ADC_DELSIG.c ****     ADC_DELSIG_Config = 1u;
  95:Generated_Source\PSoC5/ADC_DELSIG.c ****     ADC_DELSIG_convDone = 0u;
  96:Generated_Source\PSoC5/ADC_DELSIG.c **** 
  97:Generated_Source\PSoC5/ADC_DELSIG.c ****     ADC_DELSIG_Ext_CP_Clk_SetMode(CYCLK_DUTY);
  98:Generated_Source\PSoC5/ADC_DELSIG.c **** 
  99:Generated_Source\PSoC5/ADC_DELSIG.c ****     /* This is only valid if there is an internal clock */
 100:Generated_Source\PSoC5/ADC_DELSIG.c ****     #if(ADC_DELSIG_DEFAULT_INTERNAL_CLK)
 101:Generated_Source\PSoC5/ADC_DELSIG.c ****         ADC_DELSIG_theACLK_SetMode(CYCLK_DUTY);
 102:Generated_Source\PSoC5/ADC_DELSIG.c ****     #endif /* ADC_DELSIG_DEFAULT_INTERNAL_CLK */
 103:Generated_Source\PSoC5/ADC_DELSIG.c **** 
 104:Generated_Source\PSoC5/ADC_DELSIG.c ****     #if(ADC_DELSIG_IRQ_REMOVE == 0u)
 105:Generated_Source\PSoC5/ADC_DELSIG.c ****         /* Set interrupt priority */
 106:Generated_Source\PSoC5/ADC_DELSIG.c ****         CyIntSetPriority(ADC_DELSIG_INTC_NUMBER, ADC_DELSIG_INTC_PRIOR_NUMBER);
 107:Generated_Source\PSoC5/ADC_DELSIG.c ****     #endif   /* End ADC_DELSIG_IRQ_REMOVE */
 108:Generated_Source\PSoC5/ADC_DELSIG.c **** 
 109:Generated_Source\PSoC5/ADC_DELSIG.c ****     /* Init static registers with common configuration */
 110:Generated_Source\PSoC5/ADC_DELSIG.c ****     ADC_DELSIG_DSM_DEM0_REG    = ADC_DELSIG_CFG1_DSM_DEM0;
 111:Generated_Source\PSoC5/ADC_DELSIG.c ****     ADC_DELSIG_DSM_DEM1_REG    = ADC_DELSIG_CFG1_DSM_DEM1;
 112:Generated_Source\PSoC5/ADC_DELSIG.c ****     ADC_DELSIG_DSM_MISC_REG    = ADC_DELSIG_CFG1_DSM_MISC;
 113:Generated_Source\PSoC5/ADC_DELSIG.c ****     ADC_DELSIG_DSM_CLK_REG    |= ADC_DELSIG_CFG1_DSM_CLK;
 114:Generated_Source\PSoC5/ADC_DELSIG.c ****     ADC_DELSIG_DSM_REF1_REG    = ADC_DELSIG_CFG1_DSM_REF1;
 115:Generated_Source\PSoC5/ADC_DELSIG.c **** 
 116:Generated_Source\PSoC5/ADC_DELSIG.c ****     ADC_DELSIG_DSM_OUT0_REG    = ADC_DELSIG_CFG1_DSM_OUT0;
 117:Generated_Source\PSoC5/ADC_DELSIG.c ****     ADC_DELSIG_DSM_OUT1_REG    = ADC_DELSIG_CFG1_DSM_OUT1;
 118:Generated_Source\PSoC5/ADC_DELSIG.c **** 
 119:Generated_Source\PSoC5/ADC_DELSIG.c ****     ADC_DELSIG_DSM_CR0_REG     = ADC_DELSIG_CFG1_DSM_CR0;
 120:Generated_Source\PSoC5/ADC_DELSIG.c ****     ADC_DELSIG_DSM_CR1_REG     = ADC_DELSIG_CFG1_DSM_CR1;
 121:Generated_Source\PSoC5/ADC_DELSIG.c **** #if(ADC_DELSIG_MI_ENABLE != 0u) /* Enable Modulator Input */
 122:Generated_Source\PSoC5/ADC_DELSIG.c ****     ADC_DELSIG_DSM_CR3_REG     |= ADC_DELSIG_DSM_MODBIT_EN;
 123:Generated_Source\PSoC5/ADC_DELSIG.c **** #else
 124:Generated_Source\PSoC5/ADC_DELSIG.c ****     ADC_DELSIG_DSM_CR3_REG     = ADC_DELSIG_CFG1_DSM_CR3;
 125:Generated_Source\PSoC5/ADC_DELSIG.c **** #endif /* ADC_DELSIG_MI_ENABLE != 0u*/    
 126:Generated_Source\PSoC5/ADC_DELSIG.c ****     ADC_DELSIG_DSM_CR8_REG     = ADC_DELSIG_CFG1_DSM_CR8;
 127:Generated_Source\PSoC5/ADC_DELSIG.c ****     ADC_DELSIG_DSM_CR9_REG     = ADC_DELSIG_CFG1_DSM_CR9;
 128:Generated_Source\PSoC5/ADC_DELSIG.c ****     ADC_DELSIG_DSM_CR13_REG    = ADC_DELSIG_CFG1_DSM_CR13;
 129:Generated_Source\PSoC5/ADC_DELSIG.c **** 
 130:Generated_Source\PSoC5/ADC_DELSIG.c ****     ADC_DELSIG_DEC_SR_REG      = ADC_DELSIG_CFG1_DEC_SR;
 131:Generated_Source\PSoC5/ADC_DELSIG.c **** 
 132:Generated_Source\PSoC5/ADC_DELSIG.c ****     /* Calculate Gain compensation coefficients for all configurations */
 133:Generated_Source\PSoC5/ADC_DELSIG.c ****     ADC_DELSIG_GainCompensation(ADC_DELSIG_CFG1_INPUT_RANGE,
 134:Generated_Source\PSoC5/ADC_DELSIG.c ****                                       ADC_DELSIG_CFG1_IDEAL_DEC_GAIN,
 135:Generated_Source\PSoC5/ADC_DELSIG.c ****                                       ADC_DELSIG_CFG1_IDEAL_ODDDEC_GAIN,
 136:Generated_Source\PSoC5/ADC_DELSIG.c ****                                       ADC_DELSIG_CFG1_RESOLUTION,
 137:Generated_Source\PSoC5/ADC_DELSIG.c ****                                       ADC_DELSIG_CFG1);
 138:Generated_Source\PSoC5/ADC_DELSIG.c ****     #if(ADC_DELSIG_DEFAULT_NUM_CONFIGS > 1)
 139:Generated_Source\PSoC5/ADC_DELSIG.c ****         ADC_DELSIG_GainCompensation(ADC_DELSIG_CFG2_INPUT_RANGE,
 140:Generated_Source\PSoC5/ADC_DELSIG.c ****                                           ADC_DELSIG_CFG2_IDEAL_DEC_GAIN,
 141:Generated_Source\PSoC5/ADC_DELSIG.c ****                                           ADC_DELSIG_CFG2_IDEAL_ODDDEC_GAIN,
 142:Generated_Source\PSoC5/ADC_DELSIG.c ****                                           ADC_DELSIG_CFG2_RESOLUTION,
 143:Generated_Source\PSoC5/ADC_DELSIG.c ****                                           ADC_DELSIG_CFG2);
 144:Generated_Source\PSoC5/ADC_DELSIG.c ****     #endif /* ADC_DELSIG_DEFAULT_NUM_CONFIGS > 1 */
 145:Generated_Source\PSoC5/ADC_DELSIG.c ****     #if(ADC_DELSIG_DEFAULT_NUM_CONFIGS > 2)
ARM GAS  C:\Users\Lory\AppData\Local\Temp\ccNUpijZ.s 			page 4


 146:Generated_Source\PSoC5/ADC_DELSIG.c ****         ADC_DELSIG_GainCompensation(ADC_DELSIG_CFG3_INPUT_RANGE,
 147:Generated_Source\PSoC5/ADC_DELSIG.c ****                                           ADC_DELSIG_CFG3_IDEAL_DEC_GAIN,
 148:Generated_Source\PSoC5/ADC_DELSIG.c ****                                           ADC_DELSIG_CFG3_IDEAL_ODDDEC_GAIN,
 149:Generated_Source\PSoC5/ADC_DELSIG.c ****                                           ADC_DELSIG_CFG3_RESOLUTION,
 150:Generated_Source\PSoC5/ADC_DELSIG.c ****                                           ADC_DELSIG_CFG3);
 151:Generated_Source\PSoC5/ADC_DELSIG.c ****     #endif /* ADC_DELSIG_DEFAULT_NUM_CONFIGS > 2 */
 152:Generated_Source\PSoC5/ADC_DELSIG.c ****     #if(ADC_DELSIG_DEFAULT_NUM_CONFIGS > 3)
 153:Generated_Source\PSoC5/ADC_DELSIG.c ****         ADC_DELSIG_GainCompensation(ADC_DELSIG_CFG4_INPUT_RANGE,
 154:Generated_Source\PSoC5/ADC_DELSIG.c ****                                           ADC_DELSIG_CFG4_IDEAL_DEC_GAIN,
 155:Generated_Source\PSoC5/ADC_DELSIG.c ****                                           ADC_DELSIG_CFG4_IDEAL_ODDDEC_GAIN,
 156:Generated_Source\PSoC5/ADC_DELSIG.c ****                                           ADC_DELSIG_CFG4_RESOLUTION,
 157:Generated_Source\PSoC5/ADC_DELSIG.c ****                                           ADC_DELSIG_CFG4);
 158:Generated_Source\PSoC5/ADC_DELSIG.c ****     #endif /* ADC_DELSIG_DEFAULT_NUM_CONFIGS > 3 */
 159:Generated_Source\PSoC5/ADC_DELSIG.c **** 
 160:Generated_Source\PSoC5/ADC_DELSIG.c ****     /* Set GCOR register for config1 */
 161:Generated_Source\PSoC5/ADC_DELSIG.c ****     ADC_DELSIG_DEC_GVAL_REG = ADC_DELSIG_gcor[ADC_DELSIG_Config - 1u].gval;
 162:Generated_Source\PSoC5/ADC_DELSIG.c ****     CY_SET_REG16(ADC_DELSIG_DEC_GCOR_16B_PTR, ADC_DELSIG_gcor[ADC_DELSIG_Config - 1u].gcor);
 163:Generated_Source\PSoC5/ADC_DELSIG.c **** 
 164:Generated_Source\PSoC5/ADC_DELSIG.c ****     /* Initialize the registers with default customizer settings for config1 */
 165:Generated_Source\PSoC5/ADC_DELSIG.c ****     ADC_DELSIG_InitConfig(ADC_DELSIG_Config);
 166:Generated_Source\PSoC5/ADC_DELSIG.c **** }
 167:Generated_Source\PSoC5/ADC_DELSIG.c **** 
 168:Generated_Source\PSoC5/ADC_DELSIG.c **** 
 169:Generated_Source\PSoC5/ADC_DELSIG.c **** /******************************************************************************
 170:Generated_Source\PSoC5/ADC_DELSIG.c **** * Function Name: ADC_DELSIG_Enable
 171:Generated_Source\PSoC5/ADC_DELSIG.c **** *******************************************************************************
 172:Generated_Source\PSoC5/ADC_DELSIG.c **** *
 173:Generated_Source\PSoC5/ADC_DELSIG.c **** * Summary:
 174:Generated_Source\PSoC5/ADC_DELSIG.c **** *  Enables the ADC DelSig block operation.
 175:Generated_Source\PSoC5/ADC_DELSIG.c **** *
 176:Generated_Source\PSoC5/ADC_DELSIG.c **** * Parameters:
 177:Generated_Source\PSoC5/ADC_DELSIG.c **** *  None
 178:Generated_Source\PSoC5/ADC_DELSIG.c **** *
 179:Generated_Source\PSoC5/ADC_DELSIG.c **** * Return:
 180:Generated_Source\PSoC5/ADC_DELSIG.c **** *  None
 181:Generated_Source\PSoC5/ADC_DELSIG.c **** *
 182:Generated_Source\PSoC5/ADC_DELSIG.c **** * Side Effects: 
 183:Generated_Source\PSoC5/ADC_DELSIG.c **** *  Enables internal interrupt.
 184:Generated_Source\PSoC5/ADC_DELSIG.c **** *
 185:Generated_Source\PSoC5/ADC_DELSIG.c **** *******************************************************************************/
 186:Generated_Source\PSoC5/ADC_DELSIG.c **** void ADC_DELSIG_Enable(void) 
 187:Generated_Source\PSoC5/ADC_DELSIG.c **** {
 188:Generated_Source\PSoC5/ADC_DELSIG.c **** 	uint8 config;
 189:Generated_Source\PSoC5/ADC_DELSIG.c ****     uint8 enableInterrupts;
 190:Generated_Source\PSoC5/ADC_DELSIG.c ****     enableInterrupts = CyEnterCriticalSection();
 191:Generated_Source\PSoC5/ADC_DELSIG.c **** 
 192:Generated_Source\PSoC5/ADC_DELSIG.c ****     /* Read volatile variable to the local variable */
 193:Generated_Source\PSoC5/ADC_DELSIG.c ****     config = ADC_DELSIG_Config;
 194:Generated_Source\PSoC5/ADC_DELSIG.c ****     
 195:Generated_Source\PSoC5/ADC_DELSIG.c ****     /* Enable active mode power for ADC */
 196:Generated_Source\PSoC5/ADC_DELSIG.c ****     ADC_DELSIG_PWRMGR_DEC_REG |= ADC_DELSIG_ACT_PWR_DEC_EN;
 197:Generated_Source\PSoC5/ADC_DELSIG.c ****     ADC_DELSIG_PWRMGR_DSM_REG |= ADC_DELSIG_ACT_PWR_DSM_EN;
 198:Generated_Source\PSoC5/ADC_DELSIG.c **** 
 199:Generated_Source\PSoC5/ADC_DELSIG.c ****      /* Enable alternative active mode power for ADC */
 200:Generated_Source\PSoC5/ADC_DELSIG.c ****     ADC_DELSIG_STBY_PWRMGR_DEC_REG |= ADC_DELSIG_STBY_PWR_DEC_EN;
 201:Generated_Source\PSoC5/ADC_DELSIG.c ****     ADC_DELSIG_STBY_PWRMGR_DSM_REG |= ADC_DELSIG_STBY_PWR_DSM_EN;
 202:Generated_Source\PSoC5/ADC_DELSIG.c **** 
ARM GAS  C:\Users\Lory\AppData\Local\Temp\ccNUpijZ.s 			page 5


 203:Generated_Source\PSoC5/ADC_DELSIG.c ****     /* Disable PRES, Enable power to VCMBUF0, REFBUF0 and REFBUF1, enable PRES */
 204:Generated_Source\PSoC5/ADC_DELSIG.c ****     ADC_DELSIG_RESET_CR4_REG |= ADC_DELSIG_IGNORE_PRESA1;
 205:Generated_Source\PSoC5/ADC_DELSIG.c ****     ADC_DELSIG_RESET_CR5_REG |= ADC_DELSIG_IGNORE_PRESA2;
 206:Generated_Source\PSoC5/ADC_DELSIG.c **** 
 207:Generated_Source\PSoC5/ADC_DELSIG.c ****     ADC_DELSIG_DSM_CR17_REG |= (ADC_DELSIG_DSM_EN_BUF_VREF | ADC_DELSIG_DSM_EN_BUF_VCM);
 208:Generated_Source\PSoC5/ADC_DELSIG.c **** 
 209:Generated_Source\PSoC5/ADC_DELSIG.c ****     /* Code to disable the REFBUF0 if reference chosen is External ref */
 210:Generated_Source\PSoC5/ADC_DELSIG.c ****     #if (((ADC_DELSIG_CFG1_REFERENCE == ADC_DELSIG_EXT_REF_ON_P03) || \
 211:Generated_Source\PSoC5/ADC_DELSIG.c ****           (ADC_DELSIG_CFG1_REFERENCE == ADC_DELSIG_EXT_REF_ON_P32)) || \
 212:Generated_Source\PSoC5/ADC_DELSIG.c ****          ((ADC_DELSIG_DEFAULT_NUM_CONFIGS > 1) && \
 213:Generated_Source\PSoC5/ADC_DELSIG.c ****           ((ADC_DELSIG_CFG2_REFERENCE == ADC_DELSIG_EXT_REF_ON_P03) ||  \
 214:Generated_Source\PSoC5/ADC_DELSIG.c ****            (ADC_DELSIG_CFG2_REFERENCE == ADC_DELSIG_EXT_REF_ON_P32))) || \
 215:Generated_Source\PSoC5/ADC_DELSIG.c ****          ((ADC_DELSIG_DEFAULT_NUM_CONFIGS > 2) && \
 216:Generated_Source\PSoC5/ADC_DELSIG.c ****           ((ADC_DELSIG_CFG3_REFERENCE == ADC_DELSIG_EXT_REF_ON_P03) ||  \
 217:Generated_Source\PSoC5/ADC_DELSIG.c ****            (ADC_DELSIG_CFG3_REFERENCE == ADC_DELSIG_EXT_REF_ON_P32))) || \
 218:Generated_Source\PSoC5/ADC_DELSIG.c ****          ((ADC_DELSIG_DEFAULT_NUM_CONFIGS > 3) && \
 219:Generated_Source\PSoC5/ADC_DELSIG.c ****           ((ADC_DELSIG_CFG4_REFERENCE == ADC_DELSIG_EXT_REF_ON_P03) || \
 220:Generated_Source\PSoC5/ADC_DELSIG.c ****            (ADC_DELSIG_CFG4_REFERENCE == ADC_DELSIG_EXT_REF_ON_P32))))
 221:Generated_Source\PSoC5/ADC_DELSIG.c ****         if (((config == 1u) &&
 222:Generated_Source\PSoC5/ADC_DELSIG.c ****             ((ADC_DELSIG_CFG1_REFERENCE == ADC_DELSIG_EXT_REF_ON_P03) ||
 223:Generated_Source\PSoC5/ADC_DELSIG.c ****              (ADC_DELSIG_CFG1_REFERENCE == ADC_DELSIG_EXT_REF_ON_P32))) ||
 224:Generated_Source\PSoC5/ADC_DELSIG.c ****             ((config == 2u) &&
 225:Generated_Source\PSoC5/ADC_DELSIG.c ****             ((ADC_DELSIG_CFG2_REFERENCE == ADC_DELSIG_EXT_REF_ON_P03) ||
 226:Generated_Source\PSoC5/ADC_DELSIG.c ****              (ADC_DELSIG_CFG2_REFERENCE == ADC_DELSIG_EXT_REF_ON_P32))) ||
 227:Generated_Source\PSoC5/ADC_DELSIG.c ****             ((config == 3u) &&
 228:Generated_Source\PSoC5/ADC_DELSIG.c ****             ((ADC_DELSIG_CFG3_REFERENCE == ADC_DELSIG_EXT_REF_ON_P03) ||
 229:Generated_Source\PSoC5/ADC_DELSIG.c ****              (ADC_DELSIG_CFG3_REFERENCE == ADC_DELSIG_EXT_REF_ON_P32))) ||
 230:Generated_Source\PSoC5/ADC_DELSIG.c ****             ((config == 4u) &&
 231:Generated_Source\PSoC5/ADC_DELSIG.c ****             ((ADC_DELSIG_CFG4_REFERENCE == ADC_DELSIG_EXT_REF_ON_P03) ||
 232:Generated_Source\PSoC5/ADC_DELSIG.c ****              (ADC_DELSIG_CFG4_REFERENCE == ADC_DELSIG_EXT_REF_ON_P32))))
 233:Generated_Source\PSoC5/ADC_DELSIG.c ****         {
 234:Generated_Source\PSoC5/ADC_DELSIG.c ****             /* Disable the REFBUF0 */
 235:Generated_Source\PSoC5/ADC_DELSIG.c ****             ADC_DELSIG_DSM_CR17_REG &= (uint8)~ADC_DELSIG_DSM_EN_BUF_VREF;
 236:Generated_Source\PSoC5/ADC_DELSIG.c ****         }
 237:Generated_Source\PSoC5/ADC_DELSIG.c ****     #endif /* External ref */
 238:Generated_Source\PSoC5/ADC_DELSIG.c **** 
 239:Generated_Source\PSoC5/ADC_DELSIG.c ****     #if (((ADC_DELSIG_CFG1_INPUT_RANGE == ADC_DELSIG_IR_VSSA_TO_2VREF) || \
 240:Generated_Source\PSoC5/ADC_DELSIG.c ****          ((ADC_DELSIG_DEFAULT_NUM_CONFIGS > 1) && \
 241:Generated_Source\PSoC5/ADC_DELSIG.c ****           (ADC_DELSIG_CFG2_INPUT_RANGE == ADC_DELSIG_IR_VSSA_TO_2VREF)) || \
 242:Generated_Source\PSoC5/ADC_DELSIG.c ****          ((ADC_DELSIG_DEFAULT_NUM_CONFIGS > 2) && \
 243:Generated_Source\PSoC5/ADC_DELSIG.c ****           (ADC_DELSIG_CFG3_INPUT_RANGE == ADC_DELSIG_IR_VSSA_TO_2VREF)) || \
 244:Generated_Source\PSoC5/ADC_DELSIG.c ****          ((ADC_DELSIG_DEFAULT_NUM_CONFIGS > 3) && \
 245:Generated_Source\PSoC5/ADC_DELSIG.c ****           (ADC_DELSIG_CFG4_INPUT_RANGE == ADC_DELSIG_IR_VSSA_TO_2VREF))))
 246:Generated_Source\PSoC5/ADC_DELSIG.c ****         if(((config == 1u) &&
 247:Generated_Source\PSoC5/ADC_DELSIG.c ****             (ADC_DELSIG_CFG1_INPUT_RANGE == ADC_DELSIG_IR_VSSA_TO_2VREF) &&
 248:Generated_Source\PSoC5/ADC_DELSIG.c ****             ((ADC_DELSIG_CFG1_REFERENCE != ADC_DELSIG_EXT_REF_ON_P03) &&
 249:Generated_Source\PSoC5/ADC_DELSIG.c ****              (ADC_DELSIG_CFG1_REFERENCE != ADC_DELSIG_EXT_REF_ON_P32))) ||
 250:Generated_Source\PSoC5/ADC_DELSIG.c ****              ((config == 2u) &&
 251:Generated_Source\PSoC5/ADC_DELSIG.c ****               (ADC_DELSIG_CFG2_INPUT_RANGE == ADC_DELSIG_IR_VSSA_TO_2VREF) &&
 252:Generated_Source\PSoC5/ADC_DELSIG.c ****              ((ADC_DELSIG_CFG2_REFERENCE != ADC_DELSIG_EXT_REF_ON_P03) &&
 253:Generated_Source\PSoC5/ADC_DELSIG.c ****              (ADC_DELSIG_CFG2_REFERENCE != ADC_DELSIG_EXT_REF_ON_P32))) ||
 254:Generated_Source\PSoC5/ADC_DELSIG.c ****              ((config == 3u) &&
 255:Generated_Source\PSoC5/ADC_DELSIG.c ****               (ADC_DELSIG_CFG3_INPUT_RANGE == ADC_DELSIG_IR_VSSA_TO_2VREF) &&
 256:Generated_Source\PSoC5/ADC_DELSIG.c ****              ((ADC_DELSIG_CFG3_REFERENCE != ADC_DELSIG_EXT_REF_ON_P03) &&
 257:Generated_Source\PSoC5/ADC_DELSIG.c ****              (ADC_DELSIG_CFG3_REFERENCE != ADC_DELSIG_EXT_REF_ON_P32))) ||
 258:Generated_Source\PSoC5/ADC_DELSIG.c ****              ((config == 4u) &&
 259:Generated_Source\PSoC5/ADC_DELSIG.c ****               (ADC_DELSIG_CFG4_INPUT_RANGE == ADC_DELSIG_IR_VSSA_TO_2VREF) &&
ARM GAS  C:\Users\Lory\AppData\Local\Temp\ccNUpijZ.s 			page 6


 260:Generated_Source\PSoC5/ADC_DELSIG.c ****              ((ADC_DELSIG_CFG4_REFERENCE != ADC_DELSIG_EXT_REF_ON_P03) &&
 261:Generated_Source\PSoC5/ADC_DELSIG.c ****              (ADC_DELSIG_CFG4_REFERENCE != ADC_DELSIG_EXT_REF_ON_P32))))
 262:Generated_Source\PSoC5/ADC_DELSIG.c ****         {
 263:Generated_Source\PSoC5/ADC_DELSIG.c ****             /* Enable the REFBUF1 */
 264:Generated_Source\PSoC5/ADC_DELSIG.c ****             ADC_DELSIG_DSM_REF0_REG |= ADC_DELSIG_DSM_EN_BUF_VREF_INN;
 265:Generated_Source\PSoC5/ADC_DELSIG.c ****         }
 266:Generated_Source\PSoC5/ADC_DELSIG.c ****     #endif /* VSSA_TO_2VREF */
 267:Generated_Source\PSoC5/ADC_DELSIG.c ****     if(config != 0u)
 268:Generated_Source\PSoC5/ADC_DELSIG.c ****     {
 269:Generated_Source\PSoC5/ADC_DELSIG.c ****         /* Suppress compiler warning */
 270:Generated_Source\PSoC5/ADC_DELSIG.c ****     }
 271:Generated_Source\PSoC5/ADC_DELSIG.c **** 
 272:Generated_Source\PSoC5/ADC_DELSIG.c ****     /* Wait for 3 microseconds */
 273:Generated_Source\PSoC5/ADC_DELSIG.c ****     CyDelayUs(ADC_DELSIG_PRES_DELAY_TIME);
 274:Generated_Source\PSoC5/ADC_DELSIG.c **** 
 275:Generated_Source\PSoC5/ADC_DELSIG.c ****     /* Enable the press circuit */
 276:Generated_Source\PSoC5/ADC_DELSIG.c ****     ADC_DELSIG_RESET_CR4_REG &= (uint8)~ADC_DELSIG_IGNORE_PRESA1;
 277:Generated_Source\PSoC5/ADC_DELSIG.c ****     ADC_DELSIG_RESET_CR5_REG &= (uint8)~ADC_DELSIG_IGNORE_PRESA2;
 278:Generated_Source\PSoC5/ADC_DELSIG.c **** 
 279:Generated_Source\PSoC5/ADC_DELSIG.c ****     /* Enable negative pumps for DSM  */
 280:Generated_Source\PSoC5/ADC_DELSIG.c ****     ADC_DELSIG_PUMP_CR1_REG  |= ( ADC_DELSIG_PUMP_CR1_CLKSEL | ADC_DELSIG_PUMP_CR1_FORCE );
 281:Generated_Source\PSoC5/ADC_DELSIG.c **** 
 282:Generated_Source\PSoC5/ADC_DELSIG.c ****     /* Enable Modulator Chopping if required */
 283:Generated_Source\PSoC5/ADC_DELSIG.c ****     ADC_DELSIG_DSM_CR2_REG = ADC_DELSIG_CFG1_DSM_CR2;
 284:Generated_Source\PSoC5/ADC_DELSIG.c **** 
 285:Generated_Source\PSoC5/ADC_DELSIG.c ****     /* This is only valid if there is an internal clock */
 286:Generated_Source\PSoC5/ADC_DELSIG.c ****     #if(ADC_DELSIG_DEFAULT_INTERNAL_CLK)
 287:Generated_Source\PSoC5/ADC_DELSIG.c ****         ADC_DELSIG_PWRMGR_CLK_REG |= ADC_DELSIG_ACT_PWR_CLK_EN;
 288:Generated_Source\PSoC5/ADC_DELSIG.c ****         ADC_DELSIG_STBY_PWRMGR_CLK_REG |= ADC_DELSIG_STBY_PWR_CLK_EN;
 289:Generated_Source\PSoC5/ADC_DELSIG.c ****     #endif /* ADC_DELSIG_DEFAULT_INTERNAL_CLK */
 290:Generated_Source\PSoC5/ADC_DELSIG.c **** 
 291:Generated_Source\PSoC5/ADC_DELSIG.c ****     /* Enable the active and alternate active power for charge pump clock */
 292:Generated_Source\PSoC5/ADC_DELSIG.c ****     ADC_DELSIG_PWRMGR_CHARGE_PUMP_CLK_REG |= ADC_DELSIG_ACT_PWR_CHARGE_PUMP_CLK_EN;
 293:Generated_Source\PSoC5/ADC_DELSIG.c ****     ADC_DELSIG_STBY_PWRMGR_CHARGE_PUMP_CLK_REG |= ADC_DELSIG_STBY_PWR_CHARGE_PUMP_CLK_EN;
 294:Generated_Source\PSoC5/ADC_DELSIG.c **** 
 295:Generated_Source\PSoC5/ADC_DELSIG.c ****     #if(ADC_DELSIG_IRQ_REMOVE == 0u)
 296:Generated_Source\PSoC5/ADC_DELSIG.c ****         /* Clear a pending interrupt */
 297:Generated_Source\PSoC5/ADC_DELSIG.c ****         CyIntClearPending(ADC_DELSIG_INTC_NUMBER);
 298:Generated_Source\PSoC5/ADC_DELSIG.c ****         /* Enable interrupt */
 299:Generated_Source\PSoC5/ADC_DELSIG.c ****         CyIntEnable(ADC_DELSIG_INTC_NUMBER);
 300:Generated_Source\PSoC5/ADC_DELSIG.c ****     #endif   /* End ADC_DELSIG_IRQ_REMOVE */
 301:Generated_Source\PSoC5/ADC_DELSIG.c **** 
 302:Generated_Source\PSoC5/ADC_DELSIG.c ****     CyExitCriticalSection(enableInterrupts);
 303:Generated_Source\PSoC5/ADC_DELSIG.c **** 
 304:Generated_Source\PSoC5/ADC_DELSIG.c **** }
 305:Generated_Source\PSoC5/ADC_DELSIG.c **** 
 306:Generated_Source\PSoC5/ADC_DELSIG.c **** 
 307:Generated_Source\PSoC5/ADC_DELSIG.c **** /*******************************************************************************
 308:Generated_Source\PSoC5/ADC_DELSIG.c **** * Function Name: ADC_DELSIG_Start
 309:Generated_Source\PSoC5/ADC_DELSIG.c **** ********************************************************************************
 310:Generated_Source\PSoC5/ADC_DELSIG.c **** *
 311:Generated_Source\PSoC5/ADC_DELSIG.c **** * Summary:
 312:Generated_Source\PSoC5/ADC_DELSIG.c **** *  Performs all required initialization for this component and enables
 313:Generated_Source\PSoC5/ADC_DELSIG.c **** *  the power. It configure all the register the first time it is called.
 314:Generated_Source\PSoC5/ADC_DELSIG.c **** *  Subsequent calls of the Start function only enable the ADC and turn
 315:Generated_Source\PSoC5/ADC_DELSIG.c **** *  on the power. If multiple configurations are selected, it will
 316:Generated_Source\PSoC5/ADC_DELSIG.c **** *  configure the ADC for configuration 1 by default, unless the
ARM GAS  C:\Users\Lory\AppData\Local\Temp\ccNUpijZ.s 			page 7


 317:Generated_Source\PSoC5/ADC_DELSIG.c **** *  ADC_DELSIG_SelectConfiguration( ) function has been called to change
 318:Generated_Source\PSoC5/ADC_DELSIG.c **** *  the default setting.
 319:Generated_Source\PSoC5/ADC_DELSIG.c **** *
 320:Generated_Source\PSoC5/ADC_DELSIG.c **** * Parameters:
 321:Generated_Source\PSoC5/ADC_DELSIG.c **** *  None
 322:Generated_Source\PSoC5/ADC_DELSIG.c **** *
 323:Generated_Source\PSoC5/ADC_DELSIG.c **** * Return:
 324:Generated_Source\PSoC5/ADC_DELSIG.c **** *  None
 325:Generated_Source\PSoC5/ADC_DELSIG.c **** *
 326:Generated_Source\PSoC5/ADC_DELSIG.c **** * Global variables:
 327:Generated_Source\PSoC5/ADC_DELSIG.c **** *  ADC_DELSIG_initVar:  Used to check the initial configuration,
 328:Generated_Source\PSoC5/ADC_DELSIG.c **** *  modified when this function is called for the first time.
 329:Generated_Source\PSoC5/ADC_DELSIG.c **** *
 330:Generated_Source\PSoC5/ADC_DELSIG.c **** * Side Effects: 
 331:Generated_Source\PSoC5/ADC_DELSIG.c **** *  Enables internal interrupt.
 332:Generated_Source\PSoC5/ADC_DELSIG.c **** *
 333:Generated_Source\PSoC5/ADC_DELSIG.c **** *******************************************************************************/
 334:Generated_Source\PSoC5/ADC_DELSIG.c **** void ADC_DELSIG_Start(void) 
 335:Generated_Source\PSoC5/ADC_DELSIG.c **** {
 336:Generated_Source\PSoC5/ADC_DELSIG.c ****     if(ADC_DELSIG_initVar == 0u)
 337:Generated_Source\PSoC5/ADC_DELSIG.c ****     {
 338:Generated_Source\PSoC5/ADC_DELSIG.c ****         if(ADC_DELSIG_started == 0u)
 339:Generated_Source\PSoC5/ADC_DELSIG.c ****         {
 340:Generated_Source\PSoC5/ADC_DELSIG.c ****             ADC_DELSIG_Init();
 341:Generated_Source\PSoC5/ADC_DELSIG.c ****         }
 342:Generated_Source\PSoC5/ADC_DELSIG.c ****         ADC_DELSIG_initVar = 1u;
 343:Generated_Source\PSoC5/ADC_DELSIG.c ****     }
 344:Generated_Source\PSoC5/ADC_DELSIG.c **** 
 345:Generated_Source\PSoC5/ADC_DELSIG.c ****     /* Enable the ADC */
 346:Generated_Source\PSoC5/ADC_DELSIG.c ****     ADC_DELSIG_Enable();
 347:Generated_Source\PSoC5/ADC_DELSIG.c **** }
 348:Generated_Source\PSoC5/ADC_DELSIG.c **** 
 349:Generated_Source\PSoC5/ADC_DELSIG.c **** 
 350:Generated_Source\PSoC5/ADC_DELSIG.c **** /*******************************************************************************
 351:Generated_Source\PSoC5/ADC_DELSIG.c **** * Function Name: ADC_DELSIG_Stop
 352:Generated_Source\PSoC5/ADC_DELSIG.c **** ********************************************************************************
 353:Generated_Source\PSoC5/ADC_DELSIG.c **** *
 354:Generated_Source\PSoC5/ADC_DELSIG.c **** * Summary:
 355:Generated_Source\PSoC5/ADC_DELSIG.c **** *  This function stops and powers down the ADC component and the internal
 356:Generated_Source\PSoC5/ADC_DELSIG.c **** *  clock if the external clock is not selected. If an external clock is
 357:Generated_Source\PSoC5/ADC_DELSIG.c **** *  used, it is up to the designer to power down the external clock it
 358:Generated_Source\PSoC5/ADC_DELSIG.c **** *  required.
 359:Generated_Source\PSoC5/ADC_DELSIG.c **** *
 360:Generated_Source\PSoC5/ADC_DELSIG.c **** * Parameters:
 361:Generated_Source\PSoC5/ADC_DELSIG.c **** *  None
 362:Generated_Source\PSoC5/ADC_DELSIG.c **** *
 363:Generated_Source\PSoC5/ADC_DELSIG.c **** * Return:
 364:Generated_Source\PSoC5/ADC_DELSIG.c **** *  None
 365:Generated_Source\PSoC5/ADC_DELSIG.c **** *
 366:Generated_Source\PSoC5/ADC_DELSIG.c **** *******************************************************************************/
 367:Generated_Source\PSoC5/ADC_DELSIG.c **** void ADC_DELSIG_Stop(void) 
 368:Generated_Source\PSoC5/ADC_DELSIG.c **** {
 369:Generated_Source\PSoC5/ADC_DELSIG.c ****     uint8 enableInterrupts;
 370:Generated_Source\PSoC5/ADC_DELSIG.c ****     enableInterrupts = CyEnterCriticalSection();
 371:Generated_Source\PSoC5/ADC_DELSIG.c **** 
 372:Generated_Source\PSoC5/ADC_DELSIG.c ****     /* Stop conversions */
 373:Generated_Source\PSoC5/ADC_DELSIG.c ****     ADC_DELSIG_DEC_CR_REG &= (uint8)~ADC_DELSIG_DEC_START_CONV;
ARM GAS  C:\Users\Lory\AppData\Local\Temp\ccNUpijZ.s 			page 8


 374:Generated_Source\PSoC5/ADC_DELSIG.c ****     ADC_DELSIG_DEC_SR_REG |=  ADC_DELSIG_DEC_INTR_CLEAR;
 375:Generated_Source\PSoC5/ADC_DELSIG.c **** 
 376:Generated_Source\PSoC5/ADC_DELSIG.c ****     /* Disable PRES, Disable power to VCMBUF0, REFBUF0 and REFBUF1,
 377:Generated_Source\PSoC5/ADC_DELSIG.c ****        enable PRES */
 378:Generated_Source\PSoC5/ADC_DELSIG.c ****     ADC_DELSIG_RESET_CR4_REG |= ADC_DELSIG_IGNORE_PRESA1;
 379:Generated_Source\PSoC5/ADC_DELSIG.c ****     ADC_DELSIG_RESET_CR5_REG |= ADC_DELSIG_IGNORE_PRESA2;
 380:Generated_Source\PSoC5/ADC_DELSIG.c **** 
 381:Generated_Source\PSoC5/ADC_DELSIG.c ****     ADC_DELSIG_DSM_CR17_REG &= (uint8)~(ADC_DELSIG_DSM_EN_BUF_VREF | ADC_DELSIG_DSM_EN_BUF_VCM);
 382:Generated_Source\PSoC5/ADC_DELSIG.c ****     ADC_DELSIG_DSM_REF0_REG &= (uint8)~ADC_DELSIG_DSM_EN_BUF_VREF_INN;
 383:Generated_Source\PSoC5/ADC_DELSIG.c **** 
 384:Generated_Source\PSoC5/ADC_DELSIG.c ****     /* Wait for 3 microseconds. */
 385:Generated_Source\PSoC5/ADC_DELSIG.c ****     CyDelayUs(ADC_DELSIG_PRES_DELAY_TIME);
 386:Generated_Source\PSoC5/ADC_DELSIG.c **** 
 387:Generated_Source\PSoC5/ADC_DELSIG.c ****     /* Enable the press circuit */
 388:Generated_Source\PSoC5/ADC_DELSIG.c ****     ADC_DELSIG_RESET_CR4_REG &= (uint8)~ADC_DELSIG_IGNORE_PRESA1;
 389:Generated_Source\PSoC5/ADC_DELSIG.c ****     ADC_DELSIG_RESET_CR5_REG &= (uint8)~ADC_DELSIG_IGNORE_PRESA2;
 390:Generated_Source\PSoC5/ADC_DELSIG.c **** 
 391:Generated_Source\PSoC5/ADC_DELSIG.c ****     /* Disable power to the ADC */
 392:Generated_Source\PSoC5/ADC_DELSIG.c ****     ADC_DELSIG_PWRMGR_DSM_REG &= (uint8)~ADC_DELSIG_ACT_PWR_DSM_EN;
 393:Generated_Source\PSoC5/ADC_DELSIG.c **** 
 394:Generated_Source\PSoC5/ADC_DELSIG.c ****     /* Disable power to Decimator block */
 395:Generated_Source\PSoC5/ADC_DELSIG.c ****     ADC_DELSIG_PWRMGR_DEC_REG &= (uint8)~ADC_DELSIG_ACT_PWR_DEC_EN;
 396:Generated_Source\PSoC5/ADC_DELSIG.c **** 
 397:Generated_Source\PSoC5/ADC_DELSIG.c ****     /* Disable alternative active power to the ADC */
 398:Generated_Source\PSoC5/ADC_DELSIG.c ****     ADC_DELSIG_STBY_PWRMGR_DEC_REG &= (uint8)~ADC_DELSIG_STBY_PWR_DEC_EN;
 399:Generated_Source\PSoC5/ADC_DELSIG.c ****     ADC_DELSIG_STBY_PWRMGR_DSM_REG &= (uint8)~ADC_DELSIG_STBY_PWR_DSM_EN;
 400:Generated_Source\PSoC5/ADC_DELSIG.c **** 
 401:Generated_Source\PSoC5/ADC_DELSIG.c ****    /* Disable negative pumps for DSM  */
 402:Generated_Source\PSoC5/ADC_DELSIG.c ****     ADC_DELSIG_PUMP_CR1_REG &= (uint8)~(ADC_DELSIG_PUMP_CR1_CLKSEL | ADC_DELSIG_PUMP_CR1_FORCE );
 403:Generated_Source\PSoC5/ADC_DELSIG.c **** 
 404:Generated_Source\PSoC5/ADC_DELSIG.c ****     /* This is only valid if there is an internal clock */
 405:Generated_Source\PSoC5/ADC_DELSIG.c ****     #if(ADC_DELSIG_DEFAULT_INTERNAL_CLK)
 406:Generated_Source\PSoC5/ADC_DELSIG.c ****         ADC_DELSIG_PWRMGR_CLK_REG &= (uint8)~ADC_DELSIG_ACT_PWR_CLK_EN;
 407:Generated_Source\PSoC5/ADC_DELSIG.c ****         ADC_DELSIG_STBY_PWRMGR_CLK_REG &= (uint8)~ADC_DELSIG_STBY_PWR_CLK_EN;
 408:Generated_Source\PSoC5/ADC_DELSIG.c ****     #endif /* ADC_DELSIG_DEFAULT_INTERNAL_CLK */
 409:Generated_Source\PSoC5/ADC_DELSIG.c **** 
 410:Generated_Source\PSoC5/ADC_DELSIG.c ****     /* Disable Modulator Chopping */
 411:Generated_Source\PSoC5/ADC_DELSIG.c ****     ADC_DELSIG_DSM_CR2_REG &= (uint8)~ADC_DELSIG_DSM_MOD_CHOP_EN;
 412:Generated_Source\PSoC5/ADC_DELSIG.c ****     /* Disable power to charge pump clock */
 413:Generated_Source\PSoC5/ADC_DELSIG.c ****     ADC_DELSIG_PWRMGR_CHARGE_PUMP_CLK_REG &= (uint8)~ADC_DELSIG_ACT_PWR_CHARGE_PUMP_CLK_EN;
 414:Generated_Source\PSoC5/ADC_DELSIG.c ****     ADC_DELSIG_STBY_PWRMGR_CHARGE_PUMP_CLK_REG &= (uint8)~ADC_DELSIG_STBY_PWR_CHARGE_PUMP_CLK_EN;
 415:Generated_Source\PSoC5/ADC_DELSIG.c ****     
 416:Generated_Source\PSoC5/ADC_DELSIG.c ****     CyExitCriticalSection(enableInterrupts);
 417:Generated_Source\PSoC5/ADC_DELSIG.c **** }
 418:Generated_Source\PSoC5/ADC_DELSIG.c **** 
 419:Generated_Source\PSoC5/ADC_DELSIG.c **** 
 420:Generated_Source\PSoC5/ADC_DELSIG.c **** /*******************************************************************************
 421:Generated_Source\PSoC5/ADC_DELSIG.c **** * Function Name: ADC_DELSIG_SetBufferGain
 422:Generated_Source\PSoC5/ADC_DELSIG.c **** ********************************************************************************
 423:Generated_Source\PSoC5/ADC_DELSIG.c **** *
 424:Generated_Source\PSoC5/ADC_DELSIG.c **** * Summary:
 425:Generated_Source\PSoC5/ADC_DELSIG.c **** *  Sets input buffer gain.
 426:Generated_Source\PSoC5/ADC_DELSIG.c **** *
 427:Generated_Source\PSoC5/ADC_DELSIG.c **** * Parameters:
 428:Generated_Source\PSoC5/ADC_DELSIG.c **** *  gain:  Two bit value to select a gain of 1, 2, 4, or 8.
 429:Generated_Source\PSoC5/ADC_DELSIG.c **** *
 430:Generated_Source\PSoC5/ADC_DELSIG.c **** * Return:
ARM GAS  C:\Users\Lory\AppData\Local\Temp\ccNUpijZ.s 			page 9


 431:Generated_Source\PSoC5/ADC_DELSIG.c **** *  None
 432:Generated_Source\PSoC5/ADC_DELSIG.c **** *
 433:Generated_Source\PSoC5/ADC_DELSIG.c **** *******************************************************************************/
 434:Generated_Source\PSoC5/ADC_DELSIG.c **** void ADC_DELSIG_SetBufferGain(uint8 gain) 
 435:Generated_Source\PSoC5/ADC_DELSIG.c **** {
 436:Generated_Source\PSoC5/ADC_DELSIG.c ****     uint8 tmpReg;
 437:Generated_Source\PSoC5/ADC_DELSIG.c ****     tmpReg = ADC_DELSIG_DSM_BUF1_REG & (uint8)~ADC_DELSIG_DSM_GAIN_MASK;
 438:Generated_Source\PSoC5/ADC_DELSIG.c ****     tmpReg |= (uint8)(gain << ADC_DELSIG_DSM_GAIN_SHIFT) & ADC_DELSIG_DSM_GAIN_MASK;
 439:Generated_Source\PSoC5/ADC_DELSIG.c ****     ADC_DELSIG_DSM_BUF1_REG = tmpReg;
 440:Generated_Source\PSoC5/ADC_DELSIG.c **** }
 441:Generated_Source\PSoC5/ADC_DELSIG.c **** 
 442:Generated_Source\PSoC5/ADC_DELSIG.c **** 
 443:Generated_Source\PSoC5/ADC_DELSIG.c **** /*******************************************************************************
 444:Generated_Source\PSoC5/ADC_DELSIG.c **** * Function Name: ADC_DELSIG_SetCoherency
 445:Generated_Source\PSoC5/ADC_DELSIG.c **** ********************************************************************************
 446:Generated_Source\PSoC5/ADC_DELSIG.c **** *
 447:Generated_Source\PSoC5/ADC_DELSIG.c **** * Summary:
 448:Generated_Source\PSoC5/ADC_DELSIG.c **** *  This function allows the user to change which of the ADC's 3 word
 449:Generated_Source\PSoC5/ADC_DELSIG.c **** *  result will trigger a coherency unlock. The ADC's result will not be
 450:Generated_Source\PSoC5/ADC_DELSIG.c **** *  updated until the set byte is read either by the ADC or DMA. 
 451:Generated_Source\PSoC5/ADC_DELSIG.c **** *  By default the LSB is the coherency byte for right alignment data format. 
 452:Generated_Source\PSoC5/ADC_DELSIG.c **** *  The middle or high byte is set automatically depend on left alignment 
 453:Generated_Source\PSoC5/ADC_DELSIG.c **** *  configuration for DMA data transfer.
 454:Generated_Source\PSoC5/ADC_DELSIG.c **** *  If DMA or if a custom API requires different byte to be read the last,
 455:Generated_Source\PSoC5/ADC_DELSIG.c **** *  this API should be used to set the last byte of the ADC result that is read. 
 456:Generated_Source\PSoC5/ADC_DELSIG.c **** *  If a multibyte read is performed either by DMA or the ARM processor, the
 457:Generated_Source\PSoC5/ADC_DELSIG.c **** *  coherency can be set to any byte in the last word read.
 458:Generated_Source\PSoC5/ADC_DELSIG.c **** *
 459:Generated_Source\PSoC5/ADC_DELSIG.c **** * Parameters:
 460:Generated_Source\PSoC5/ADC_DELSIG.c **** *  coherency:  Two bit value to set the coherency bit.
 461:Generated_Source\PSoC5/ADC_DELSIG.c **** *           00-Coherency checking off
 462:Generated_Source\PSoC5/ADC_DELSIG.c **** *           01-low byte is key byte
 463:Generated_Source\PSoC5/ADC_DELSIG.c **** *           02-middle byte is the key byte
 464:Generated_Source\PSoC5/ADC_DELSIG.c **** *           03-high byte is the key byte
 465:Generated_Source\PSoC5/ADC_DELSIG.c **** *
 466:Generated_Source\PSoC5/ADC_DELSIG.c **** * Return:
 467:Generated_Source\PSoC5/ADC_DELSIG.c **** *  None
 468:Generated_Source\PSoC5/ADC_DELSIG.c **** *
 469:Generated_Source\PSoC5/ADC_DELSIG.c **** *******************************************************************************/
 470:Generated_Source\PSoC5/ADC_DELSIG.c **** void ADC_DELSIG_SetCoherency(uint8 coherency) 
 471:Generated_Source\PSoC5/ADC_DELSIG.c **** {
 472:Generated_Source\PSoC5/ADC_DELSIG.c ****     uint8 tmpReg;
 473:Generated_Source\PSoC5/ADC_DELSIG.c **** 
 474:Generated_Source\PSoC5/ADC_DELSIG.c ****     tmpReg = ADC_DELSIG_DEC_COHER_REG & (uint8)~ADC_DELSIG_DEC_SAMP_KEY_MASK;
 475:Generated_Source\PSoC5/ADC_DELSIG.c ****     tmpReg |= coherency & ADC_DELSIG_DEC_SAMP_KEY_MASK;
 476:Generated_Source\PSoC5/ADC_DELSIG.c ****     ADC_DELSIG_DEC_COHER_REG = tmpReg;
 477:Generated_Source\PSoC5/ADC_DELSIG.c **** }
 478:Generated_Source\PSoC5/ADC_DELSIG.c **** 
 479:Generated_Source\PSoC5/ADC_DELSIG.c **** 
 480:Generated_Source\PSoC5/ADC_DELSIG.c **** /*******************************************************************************
 481:Generated_Source\PSoC5/ADC_DELSIG.c **** * Function Name: ADC_DELSIG_SetGCOR
 482:Generated_Source\PSoC5/ADC_DELSIG.c **** ********************************************************************************
 483:Generated_Source\PSoC5/ADC_DELSIG.c **** *
 484:Generated_Source\PSoC5/ADC_DELSIG.c **** * Summary:
 485:Generated_Source\PSoC5/ADC_DELSIG.c **** *  Calculates a new GCOR value and writes it into the GCOR register. 
 486:Generated_Source\PSoC5/ADC_DELSIG.c **** *  The GCOR value is a 16-bit value that represents a gain of 0 to 2. 
 487:Generated_Source\PSoC5/ADC_DELSIG.c **** *  The ADC result is multiplied by this value before it is placed in the ADC 
ARM GAS  C:\Users\Lory\AppData\Local\Temp\ccNUpijZ.s 			page 10


 488:Generated_Source\PSoC5/ADC_DELSIG.c **** *  output registers. The numerical format for the GCOR value is:
 489:Generated_Source\PSoC5/ADC_DELSIG.c **** *  0x0000 -> 0.000
 490:Generated_Source\PSoC5/ADC_DELSIG.c **** *  0x8000 -> 1.000
 491:Generated_Source\PSoC5/ADC_DELSIG.c **** *  0xFFFF -> 1.99997
 492:Generated_Source\PSoC5/ADC_DELSIG.c **** *  When executing the function, the old GCOR value is multiplied by
 493:Generated_Source\PSoC5/ADC_DELSIG.c **** *  gainAdjust and reloaded into the GCOR register.
 494:Generated_Source\PSoC5/ADC_DELSIG.c **** *
 495:Generated_Source\PSoC5/ADC_DELSIG.c **** * Parameters:
 496:Generated_Source\PSoC5/ADC_DELSIG.c **** *  gainAdjust:  floating point value to set GCOR registers.
 497:Generated_Source\PSoC5/ADC_DELSIG.c **** *
 498:Generated_Source\PSoC5/ADC_DELSIG.c **** * Return:
 499:Generated_Source\PSoC5/ADC_DELSIG.c **** *  uint8: 0 - if GCOR value is within the expected range.
 500:Generated_Source\PSoC5/ADC_DELSIG.c **** *         1 - the correction value is outside GCOR value range of
 501:Generated_Source\PSoC5/ADC_DELSIG.c **** *             0.00 to 1.9999.
 502:Generated_Source\PSoC5/ADC_DELSIG.c **** *
 503:Generated_Source\PSoC5/ADC_DELSIG.c **** * Side Effects:  The GVAL register is set to the amount of valid bits in the
 504:Generated_Source\PSoC5/ADC_DELSIG.c **** *                GCOR  register minus one. If GVAL is 15 (0x0F), all 16 bits
 505:Generated_Source\PSoC5/ADC_DELSIG.c **** *                of the GCOR registers will be valid. If for example GVAL is
 506:Generated_Source\PSoC5/ADC_DELSIG.c **** *                11 (0x0B) only 12 bits will be valid. The least 4 bits will
 507:Generated_Source\PSoC5/ADC_DELSIG.c **** *                be lost when the GCOR value is shifted 4 places to the right.
 508:Generated_Source\PSoC5/ADC_DELSIG.c **** *
 509:Generated_Source\PSoC5/ADC_DELSIG.c **** ******************************************************************************/
 510:Generated_Source\PSoC5/ADC_DELSIG.c **** uint8 ADC_DELSIG_SetGCOR(float32 gainAdjust) 
 511:Generated_Source\PSoC5/ADC_DELSIG.c **** {
 512:Generated_Source\PSoC5/ADC_DELSIG.c ****     uint16 tmpReg;
 513:Generated_Source\PSoC5/ADC_DELSIG.c ****     uint8 status;
 514:Generated_Source\PSoC5/ADC_DELSIG.c ****     float32 tmpValue;
 515:Generated_Source\PSoC5/ADC_DELSIG.c **** 
 516:Generated_Source\PSoC5/ADC_DELSIG.c ****     tmpReg = ADC_DELSIG_gcor[ADC_DELSIG_Config - 1u].gcor;
 517:Generated_Source\PSoC5/ADC_DELSIG.c ****     tmpValue = ((float32)tmpReg / (float32)ADC_DELSIG_IDEAL_GAIN_CONST);
 518:Generated_Source\PSoC5/ADC_DELSIG.c ****     tmpValue = tmpValue * gainAdjust;
 519:Generated_Source\PSoC5/ADC_DELSIG.c **** 
 520:Generated_Source\PSoC5/ADC_DELSIG.c ****     if (tmpValue > 1.9999)
 521:Generated_Source\PSoC5/ADC_DELSIG.c ****     {
 522:Generated_Source\PSoC5/ADC_DELSIG.c ****         status = 1u;
 523:Generated_Source\PSoC5/ADC_DELSIG.c ****     }
 524:Generated_Source\PSoC5/ADC_DELSIG.c ****     else
 525:Generated_Source\PSoC5/ADC_DELSIG.c ****     {
 526:Generated_Source\PSoC5/ADC_DELSIG.c ****         tmpValue *= (float32)ADC_DELSIG_IDEAL_GAIN_CONST;
 527:Generated_Source\PSoC5/ADC_DELSIG.c **** 		tmpReg = (uint16)tmpValue;
 528:Generated_Source\PSoC5/ADC_DELSIG.c ****         CY_SET_REG16(ADC_DELSIG_DEC_GCOR_16B_PTR, tmpReg);
 529:Generated_Source\PSoC5/ADC_DELSIG.c ****         /* Update gain array to be used by SelectConfiguration() API */
 530:Generated_Source\PSoC5/ADC_DELSIG.c ****        ADC_DELSIG_gcor[ADC_DELSIG_Config - 1u].gcor = tmpReg;
 531:Generated_Source\PSoC5/ADC_DELSIG.c **** 
 532:Generated_Source\PSoC5/ADC_DELSIG.c ****         status = 0u;
 533:Generated_Source\PSoC5/ADC_DELSIG.c **** 
 534:Generated_Source\PSoC5/ADC_DELSIG.c ****     }
 535:Generated_Source\PSoC5/ADC_DELSIG.c ****     return(status);
 536:Generated_Source\PSoC5/ADC_DELSIG.c **** }
 537:Generated_Source\PSoC5/ADC_DELSIG.c **** 
 538:Generated_Source\PSoC5/ADC_DELSIG.c **** 
 539:Generated_Source\PSoC5/ADC_DELSIG.c **** /******************************************************************************
 540:Generated_Source\PSoC5/ADC_DELSIG.c **** * Function Name: ADC_DELSIG_ReadGCOR
 541:Generated_Source\PSoC5/ADC_DELSIG.c **** *******************************************************************************
 542:Generated_Source\PSoC5/ADC_DELSIG.c **** *
 543:Generated_Source\PSoC5/ADC_DELSIG.c **** * Summary:
 544:Generated_Source\PSoC5/ADC_DELSIG.c **** *  This API returns the current GCOR register value, normalized based on the
ARM GAS  C:\Users\Lory\AppData\Local\Temp\ccNUpijZ.s 			page 11


 545:Generated_Source\PSoC5/ADC_DELSIG.c **** *  GVAL register settings.
 546:Generated_Source\PSoC5/ADC_DELSIG.c **** *  For example, if the GCOR value is 0x0812 and the GVAL register is set to 
 547:Generated_Source\PSoC5/ADC_DELSIG.c **** *  11 (0x0B) then the returned value will be shifted by for bits to the left.
 548:Generated_Source\PSoC5/ADC_DELSIG.c **** *  (Actual GCOR value = 0x0812, returned value = 0x8120)
 549:Generated_Source\PSoC5/ADC_DELSIG.c **** *
 550:Generated_Source\PSoC5/ADC_DELSIG.c **** * Parameters:
 551:Generated_Source\PSoC5/ADC_DELSIG.c **** *  None
 552:Generated_Source\PSoC5/ADC_DELSIG.c **** *
 553:Generated_Source\PSoC5/ADC_DELSIG.c **** * Return:
 554:Generated_Source\PSoC5/ADC_DELSIG.c **** *  uint16:  Normalized GCOR value.
 555:Generated_Source\PSoC5/ADC_DELSIG.c **** *
 556:Generated_Source\PSoC5/ADC_DELSIG.c **** *******************************************************************************/
 557:Generated_Source\PSoC5/ADC_DELSIG.c **** uint16 ADC_DELSIG_ReadGCOR(void) 
 558:Generated_Source\PSoC5/ADC_DELSIG.c **** {
 559:Generated_Source\PSoC5/ADC_DELSIG.c ****     uint8 gValue;
 560:Generated_Source\PSoC5/ADC_DELSIG.c ****     uint16 gcorValue;
 561:Generated_Source\PSoC5/ADC_DELSIG.c **** 
 562:Generated_Source\PSoC5/ADC_DELSIG.c ****     gValue = ADC_DELSIG_DEC_GVAL_REG;
 563:Generated_Source\PSoC5/ADC_DELSIG.c ****     gcorValue = CY_GET_REG16(ADC_DELSIG_DEC_GCOR_16B_PTR);
 564:Generated_Source\PSoC5/ADC_DELSIG.c **** 
 565:Generated_Source\PSoC5/ADC_DELSIG.c ****     if (gValue < ADC_DELSIG_MAX_GVAL)
 566:Generated_Source\PSoC5/ADC_DELSIG.c ****     {
 567:Generated_Source\PSoC5/ADC_DELSIG.c ****         gcorValue <<= ADC_DELSIG_MAX_GVAL - gValue;
 568:Generated_Source\PSoC5/ADC_DELSIG.c ****     }
 569:Generated_Source\PSoC5/ADC_DELSIG.c **** 
 570:Generated_Source\PSoC5/ADC_DELSIG.c ****     return gcorValue;
 571:Generated_Source\PSoC5/ADC_DELSIG.c **** }
 572:Generated_Source\PSoC5/ADC_DELSIG.c **** 
 573:Generated_Source\PSoC5/ADC_DELSIG.c **** 
 574:Generated_Source\PSoC5/ADC_DELSIG.c **** /*******************************************************************************
 575:Generated_Source\PSoC5/ADC_DELSIG.c **** * Function Name: ADC_DELSIG_StartConvert
 576:Generated_Source\PSoC5/ADC_DELSIG.c **** ********************************************************************************
 577:Generated_Source\PSoC5/ADC_DELSIG.c **** *
 578:Generated_Source\PSoC5/ADC_DELSIG.c **** * Summary:
 579:Generated_Source\PSoC5/ADC_DELSIG.c **** *  Forces the ADC to initiate a conversion. If in the "Single Sample"
 580:Generated_Source\PSoC5/ADC_DELSIG.c **** *  mode, one conversion will be performed then the ADC will halt. If in
 581:Generated_Source\PSoC5/ADC_DELSIG.c **** *  one of the other three conversion modes, the ADC will run
 582:Generated_Source\PSoC5/ADC_DELSIG.c **** *  continuously until the ADC_Stop() or ADC_StopConvert() is called.
 583:Generated_Source\PSoC5/ADC_DELSIG.c **** *
 584:Generated_Source\PSoC5/ADC_DELSIG.c **** * Parameters:
 585:Generated_Source\PSoC5/ADC_DELSIG.c **** *  None
 586:Generated_Source\PSoC5/ADC_DELSIG.c **** *
 587:Generated_Source\PSoC5/ADC_DELSIG.c **** * Return:
 588:Generated_Source\PSoC5/ADC_DELSIG.c **** *  None
 589:Generated_Source\PSoC5/ADC_DELSIG.c **** *
 590:Generated_Source\PSoC5/ADC_DELSIG.c **** *******************************************************************************/
 591:Generated_Source\PSoC5/ADC_DELSIG.c **** void ADC_DELSIG_StartConvert(void) 
 592:Generated_Source\PSoC5/ADC_DELSIG.c **** {
 593:Generated_Source\PSoC5/ADC_DELSIG.c ****     /* Start the conversion */
 594:Generated_Source\PSoC5/ADC_DELSIG.c ****     ADC_DELSIG_DEC_CR_REG |= ADC_DELSIG_DEC_START_CONV;
 595:Generated_Source\PSoC5/ADC_DELSIG.c **** }
 596:Generated_Source\PSoC5/ADC_DELSIG.c **** 
 597:Generated_Source\PSoC5/ADC_DELSIG.c **** 
 598:Generated_Source\PSoC5/ADC_DELSIG.c **** /*******************************************************************************
 599:Generated_Source\PSoC5/ADC_DELSIG.c **** * Function Name: ADC_DELSIG_StopConvert
 600:Generated_Source\PSoC5/ADC_DELSIG.c **** ********************************************************************************
 601:Generated_Source\PSoC5/ADC_DELSIG.c **** *
ARM GAS  C:\Users\Lory\AppData\Local\Temp\ccNUpijZ.s 			page 12


 602:Generated_Source\PSoC5/ADC_DELSIG.c **** * Summary:
 603:Generated_Source\PSoC5/ADC_DELSIG.c **** *  Forces the ADC to stop all conversions. If the ADC is in the middle of a
 604:Generated_Source\PSoC5/ADC_DELSIG.c **** *  conversion, the ADC will be reset and not provide a result for that partial
 605:Generated_Source\PSoC5/ADC_DELSIG.c **** *  conversion.
 606:Generated_Source\PSoC5/ADC_DELSIG.c **** *
 607:Generated_Source\PSoC5/ADC_DELSIG.c **** * Parameters:
 608:Generated_Source\PSoC5/ADC_DELSIG.c **** *  None
 609:Generated_Source\PSoC5/ADC_DELSIG.c **** *
 610:Generated_Source\PSoC5/ADC_DELSIG.c **** * Return:
 611:Generated_Source\PSoC5/ADC_DELSIG.c **** *  None
 612:Generated_Source\PSoC5/ADC_DELSIG.c **** *
 613:Generated_Source\PSoC5/ADC_DELSIG.c **** *******************************************************************************/
 614:Generated_Source\PSoC5/ADC_DELSIG.c **** void ADC_DELSIG_StopConvert(void) 
 615:Generated_Source\PSoC5/ADC_DELSIG.c **** {
 616:Generated_Source\PSoC5/ADC_DELSIG.c ****     /* Stop all conversions */
 617:Generated_Source\PSoC5/ADC_DELSIG.c ****     ADC_DELSIG_DEC_CR_REG &= (uint8)~ADC_DELSIG_DEC_START_CONV;
 618:Generated_Source\PSoC5/ADC_DELSIG.c **** }
 619:Generated_Source\PSoC5/ADC_DELSIG.c **** 
 620:Generated_Source\PSoC5/ADC_DELSIG.c **** 
 621:Generated_Source\PSoC5/ADC_DELSIG.c **** /*******************************************************************************
 622:Generated_Source\PSoC5/ADC_DELSIG.c **** * Function Name: ADC_DELSIG_IsEndConversion
 623:Generated_Source\PSoC5/ADC_DELSIG.c **** ********************************************************************************
 624:Generated_Source\PSoC5/ADC_DELSIG.c **** *
 625:Generated_Source\PSoC5/ADC_DELSIG.c **** * Summary:
 626:Generated_Source\PSoC5/ADC_DELSIG.c **** *  Checks the status that the most recently started conversion has completed.
 627:Generated_Source\PSoC5/ADC_DELSIG.c **** *  The status is cleared by any of ADC_GetResult8(), ADC_GetResult16() or 
 628:Generated_Source\PSoC5/ADC_DELSIG.c **** *  ADC_GetResult32() API.
 629:Generated_Source\PSoC5/ADC_DELSIG.c **** *  This function provides the programmer with two options. In one mode this 
 630:Generated_Source\PSoC5/ADC_DELSIG.c **** *  function immediately returns with the conversion status. In the other mode,
 631:Generated_Source\PSoC5/ADC_DELSIG.c **** *  the function does not return (blocking) until the conversion has completed.
 632:Generated_Source\PSoC5/ADC_DELSIG.c **** *
 633:Generated_Source\PSoC5/ADC_DELSIG.c **** * Parameters:
 634:Generated_Source\PSoC5/ADC_DELSIG.c **** *  retMode: Check conversion return mode. See the following table for options.
 635:Generated_Source\PSoC5/ADC_DELSIG.c **** *   ADC_DELSIG_RETURN_STATUS -   Immediately returns conversion result
 636:Generated_Source\PSoC5/ADC_DELSIG.c **** *                                      status.
 637:Generated_Source\PSoC5/ADC_DELSIG.c **** *   ADC_DELSIG_WAIT_FOR_RESULT - Does not return until ADC conversion
 638:Generated_Source\PSoC5/ADC_DELSIG.c **** *                                      is complete.
 639:Generated_Source\PSoC5/ADC_DELSIG.c **** *
 640:Generated_Source\PSoC5/ADC_DELSIG.c **** * Return:
 641:Generated_Source\PSoC5/ADC_DELSIG.c **** *  If a nonzero value is returned, the last conversion has completed.
 642:Generated_Source\PSoC5/ADC_DELSIG.c **** *  If the returned value is zero, the ADC is still calculating the last result.
 643:Generated_Source\PSoC5/ADC_DELSIG.c **** *
 644:Generated_Source\PSoC5/ADC_DELSIG.c **** * Global variables:
 645:Generated_Source\PSoC5/ADC_DELSIG.c **** *  ADC_DELSIG_convDone:  Used to check whether conversion is complete
 646:Generated_Source\PSoC5/ADC_DELSIG.c **** *  or not for single sample mode with resolution is above 16
 647:Generated_Source\PSoC5/ADC_DELSIG.c **** *
 648:Generated_Source\PSoC5/ADC_DELSIG.c **** *******************************************************************************/
 649:Generated_Source\PSoC5/ADC_DELSIG.c **** uint8 ADC_DELSIG_IsEndConversion(uint8 retMode) 
 650:Generated_Source\PSoC5/ADC_DELSIG.c **** {
 651:Generated_Source\PSoC5/ADC_DELSIG.c ****     uint8 status;
 652:Generated_Source\PSoC5/ADC_DELSIG.c **** 
 653:Generated_Source\PSoC5/ADC_DELSIG.c ****     do
 654:Generated_Source\PSoC5/ADC_DELSIG.c ****     {
 655:Generated_Source\PSoC5/ADC_DELSIG.c ****         /* Check for stop convert if conversion mode is Single Sample with
 656:Generated_Source\PSoC5/ADC_DELSIG.c ****         *   resolution above 16 bit
 657:Generated_Source\PSoC5/ADC_DELSIG.c ****         */
 658:Generated_Source\PSoC5/ADC_DELSIG.c ****         if(ADC_DELSIG_stopConversion != 0u)
ARM GAS  C:\Users\Lory\AppData\Local\Temp\ccNUpijZ.s 			page 13


 659:Generated_Source\PSoC5/ADC_DELSIG.c ****         {
 660:Generated_Source\PSoC5/ADC_DELSIG.c ****             status = ADC_DELSIG_convDone;
 661:Generated_Source\PSoC5/ADC_DELSIG.c ****         }
 662:Generated_Source\PSoC5/ADC_DELSIG.c ****         else
 663:Generated_Source\PSoC5/ADC_DELSIG.c ****         {
 664:Generated_Source\PSoC5/ADC_DELSIG.c ****             status = ADC_DELSIG_DEC_SR_REG & ADC_DELSIG_DEC_CONV_DONE;
 665:Generated_Source\PSoC5/ADC_DELSIG.c ****         }
 666:Generated_Source\PSoC5/ADC_DELSIG.c ****     }while((status != ADC_DELSIG_DEC_CONV_DONE) && (retMode == ADC_DELSIG_WAIT_FOR_RESULT));
 667:Generated_Source\PSoC5/ADC_DELSIG.c **** 
 668:Generated_Source\PSoC5/ADC_DELSIG.c ****     return(status);
 669:Generated_Source\PSoC5/ADC_DELSIG.c **** }
 670:Generated_Source\PSoC5/ADC_DELSIG.c **** 
 671:Generated_Source\PSoC5/ADC_DELSIG.c **** 
 672:Generated_Source\PSoC5/ADC_DELSIG.c **** /*******************************************************************************
 673:Generated_Source\PSoC5/ADC_DELSIG.c **** * Function Name: ADC_DELSIG_GetResult8
 674:Generated_Source\PSoC5/ADC_DELSIG.c **** ********************************************************************************
 675:Generated_Source\PSoC5/ADC_DELSIG.c **** *
 676:Generated_Source\PSoC5/ADC_DELSIG.c **** * Summary:
 677:Generated_Source\PSoC5/ADC_DELSIG.c **** *  This function returns the result of an 8-bit conversion. If the
 678:Generated_Source\PSoC5/ADC_DELSIG.c **** *  resolution is set greater than 8-bits, the LSB of the result will be
 679:Generated_Source\PSoC5/ADC_DELSIG.c **** *  returned. When the ADC is configured for 8-bit single ended mode,
 680:Generated_Source\PSoC5/ADC_DELSIG.c **** *  the ADC_GetResult16() function should be used instead. This
 681:Generated_Source\PSoC5/ADC_DELSIG.c **** *  function returns only signed 8-bit values. The maximum positive
 682:Generated_Source\PSoC5/ADC_DELSIG.c **** *  signed 8-bit value is 127, but in singled ended 8-bit mode, the
 683:Generated_Source\PSoC5/ADC_DELSIG.c **** *  maximum positive value is 255.
 684:Generated_Source\PSoC5/ADC_DELSIG.c **** *
 685:Generated_Source\PSoC5/ADC_DELSIG.c **** * Parameters:
 686:Generated_Source\PSoC5/ADC_DELSIG.c **** *  None
 687:Generated_Source\PSoC5/ADC_DELSIG.c **** *
 688:Generated_Source\PSoC5/ADC_DELSIG.c **** * Return:
 689:Generated_Source\PSoC5/ADC_DELSIG.c **** *  int8: The LSB of the last ADC conversion.
 690:Generated_Source\PSoC5/ADC_DELSIG.c **** *
 691:Generated_Source\PSoC5/ADC_DELSIG.c **** * Global variables:
 692:Generated_Source\PSoC5/ADC_DELSIG.c **** *  ADC_DELSIG_convDone:  Cleared in single sample mode with resolution
 693:Generated_Source\PSoC5/ADC_DELSIG.c **** *                              above 16 bits
 694:Generated_Source\PSoC5/ADC_DELSIG.c **** *
 695:Generated_Source\PSoC5/ADC_DELSIG.c **** *******************************************************************************/
 696:Generated_Source\PSoC5/ADC_DELSIG.c **** int8 ADC_DELSIG_GetResult8( void ) 
 697:Generated_Source\PSoC5/ADC_DELSIG.c **** {
 698:Generated_Source\PSoC5/ADC_DELSIG.c ****     int8 result;
 699:Generated_Source\PSoC5/ADC_DELSIG.c ****     uint8 coherency;
 700:Generated_Source\PSoC5/ADC_DELSIG.c **** 
 701:Generated_Source\PSoC5/ADC_DELSIG.c ****     /* Read active coherency configuration */
 702:Generated_Source\PSoC5/ADC_DELSIG.c ****     coherency = ADC_DELSIG_DEC_COHER_REG & ADC_DELSIG_DEC_SAMP_KEY_MASK;
 703:Generated_Source\PSoC5/ADC_DELSIG.c **** 
 704:Generated_Source\PSoC5/ADC_DELSIG.c ****     result = (int8)ADC_DELSIG_DEC_SAMP_REG;
 705:Generated_Source\PSoC5/ADC_DELSIG.c **** 
 706:Generated_Source\PSoC5/ADC_DELSIG.c ****     if(coherency == ADC_DELSIG_DEC_SAMP_KEY_MID)
 707:Generated_Source\PSoC5/ADC_DELSIG.c ****     {   /* Dummy read of the middle byte to unlock the coherency */
 708:Generated_Source\PSoC5/ADC_DELSIG.c ****         (void)ADC_DELSIG_DEC_SAMPM_REG;
 709:Generated_Source\PSoC5/ADC_DELSIG.c ****     }
 710:Generated_Source\PSoC5/ADC_DELSIG.c ****     else  if(coherency == ADC_DELSIG_DEC_SAMP_KEY_HIGH)
 711:Generated_Source\PSoC5/ADC_DELSIG.c ****     {   /* Dummy read of the MSB byte to unlock the coherency */
 712:Generated_Source\PSoC5/ADC_DELSIG.c ****         (void)ADC_DELSIG_DEC_SAMPH_REG;
 713:Generated_Source\PSoC5/ADC_DELSIG.c ****     }
 714:Generated_Source\PSoC5/ADC_DELSIG.c ****     else /*No action required for other coherency */
 715:Generated_Source\PSoC5/ADC_DELSIG.c ****     {
ARM GAS  C:\Users\Lory\AppData\Local\Temp\ccNUpijZ.s 			page 14


 716:Generated_Source\PSoC5/ADC_DELSIG.c ****     }
 717:Generated_Source\PSoC5/ADC_DELSIG.c ****     /* Clear conversion complete status in Single Sample mode with resolution above 16 bit */
 718:Generated_Source\PSoC5/ADC_DELSIG.c ****     if(ADC_DELSIG_stopConversion != 0u)
 719:Generated_Source\PSoC5/ADC_DELSIG.c ****     {
 720:Generated_Source\PSoC5/ADC_DELSIG.c ****         ADC_DELSIG_convDone = 0u;
 721:Generated_Source\PSoC5/ADC_DELSIG.c ****     }
 722:Generated_Source\PSoC5/ADC_DELSIG.c ****     return (result);
 723:Generated_Source\PSoC5/ADC_DELSIG.c **** }
 724:Generated_Source\PSoC5/ADC_DELSIG.c **** 
 725:Generated_Source\PSoC5/ADC_DELSIG.c **** 
 726:Generated_Source\PSoC5/ADC_DELSIG.c **** /*******************************************************************************
 727:Generated_Source\PSoC5/ADC_DELSIG.c **** * Function Name: ADC_DELSIG_GetResult16
 728:Generated_Source\PSoC5/ADC_DELSIG.c **** ********************************************************************************
 729:Generated_Source\PSoC5/ADC_DELSIG.c **** *
 730:Generated_Source\PSoC5/ADC_DELSIG.c **** * Summary:
 731:Generated_Source\PSoC5/ADC_DELSIG.c **** *  Returns a 16-bit result for a conversion with a result that has a
 732:Generated_Source\PSoC5/ADC_DELSIG.c **** *  resolution of 8 to 16 bits. If the resolution is set greater than 16-bits,
 733:Generated_Source\PSoC5/ADC_DELSIG.c **** *  it will return the 16 least significant bits of the result. When the ADC
 734:Generated_Source\PSoC5/ADC_DELSIG.c **** *  is configured for 16-bit single ended mode, the ADC_GetResult32()
 735:Generated_Source\PSoC5/ADC_DELSIG.c **** *  function should be used instead. This function returns only signed
 736:Generated_Source\PSoC5/ADC_DELSIG.c **** *  16-bit result, which allows a maximum positive value of 32767, not 65535.
 737:Generated_Source\PSoC5/ADC_DELSIG.c **** *  This function supports different coherency settings.
 738:Generated_Source\PSoC5/ADC_DELSIG.c **** *
 739:Generated_Source\PSoC5/ADC_DELSIG.c **** * Parameters:
 740:Generated_Source\PSoC5/ADC_DELSIG.c **** *   void
 741:Generated_Source\PSoC5/ADC_DELSIG.c **** *
 742:Generated_Source\PSoC5/ADC_DELSIG.c **** * Return:
 743:Generated_Source\PSoC5/ADC_DELSIG.c **** *  int16:  ADC result.
 744:Generated_Source\PSoC5/ADC_DELSIG.c **** *
 745:Generated_Source\PSoC5/ADC_DELSIG.c **** * Global variables:
 746:Generated_Source\PSoC5/ADC_DELSIG.c **** *  ADC_DELSIG_convDone:  Cleared in single sample mode with resolution
 747:Generated_Source\PSoC5/ADC_DELSIG.c **** *                              above 16 bits
 748:Generated_Source\PSoC5/ADC_DELSIG.c **** *
 749:Generated_Source\PSoC5/ADC_DELSIG.c **** *******************************************************************************/
 750:Generated_Source\PSoC5/ADC_DELSIG.c **** int16 ADC_DELSIG_GetResult16(void) 
 751:Generated_Source\PSoC5/ADC_DELSIG.c **** {
 752:Generated_Source\PSoC5/ADC_DELSIG.c ****     uint16 result;
 753:Generated_Source\PSoC5/ADC_DELSIG.c ****     uint8 coherency;
 754:Generated_Source\PSoC5/ADC_DELSIG.c **** 
 755:Generated_Source\PSoC5/ADC_DELSIG.c ****     /* Read active coherency configuration */
 756:Generated_Source\PSoC5/ADC_DELSIG.c ****     coherency = ADC_DELSIG_DEC_COHER_REG & ADC_DELSIG_DEC_SAMP_KEY_MASK;
 757:Generated_Source\PSoC5/ADC_DELSIG.c **** 
 758:Generated_Source\PSoC5/ADC_DELSIG.c ****     if(coherency <= ADC_DELSIG_DEC_SAMP_KEY_LOW)
 759:Generated_Source\PSoC5/ADC_DELSIG.c ****     {   /*  Use default method to read result registers i.e. LSB byte read at the end*/
 760:Generated_Source\PSoC5/ADC_DELSIG.c ****         #if (CY_PSOC3)
 761:Generated_Source\PSoC5/ADC_DELSIG.c ****             result = ADC_DELSIG_DEC_SAMPM_REG;
 762:Generated_Source\PSoC5/ADC_DELSIG.c ****             result = (result << 8u) | ADC_DELSIG_DEC_SAMP_REG;
 763:Generated_Source\PSoC5/ADC_DELSIG.c ****         #else
 764:Generated_Source\PSoC5/ADC_DELSIG.c ****             result = (CY_GET_REG16(ADC_DELSIG_DEC_SAMP_16B_PTR));
 765:Generated_Source\PSoC5/ADC_DELSIG.c ****         #endif /* CY_PSOC3 */
 766:Generated_Source\PSoC5/ADC_DELSIG.c ****     }
 767:Generated_Source\PSoC5/ADC_DELSIG.c ****     else /* MID or HIGH */
 768:Generated_Source\PSoC5/ADC_DELSIG.c ****     {   /* Read middle byte at the end */
 769:Generated_Source\PSoC5/ADC_DELSIG.c ****         #if (CY_PSOC3)
 770:Generated_Source\PSoC5/ADC_DELSIG.c ****             result = (CY_GET_REG16(ADC_DELSIG_DEC_SAMP_16B_PTR));
 771:Generated_Source\PSoC5/ADC_DELSIG.c ****         #else
 772:Generated_Source\PSoC5/ADC_DELSIG.c ****             result = ADC_DELSIG_DEC_SAMP_REG;
ARM GAS  C:\Users\Lory\AppData\Local\Temp\ccNUpijZ.s 			page 15


 773:Generated_Source\PSoC5/ADC_DELSIG.c ****             result |=  (uint16)((uint16)ADC_DELSIG_DEC_SAMPM_REG << 8u);
 774:Generated_Source\PSoC5/ADC_DELSIG.c ****         #endif /* CY_PSOC3 */
 775:Generated_Source\PSoC5/ADC_DELSIG.c ****         if(coherency == ADC_DELSIG_DEC_SAMP_KEY_HIGH)
 776:Generated_Source\PSoC5/ADC_DELSIG.c ****         {   /* Dummy read of the MSB byte to unlock the coherency */
 777:Generated_Source\PSoC5/ADC_DELSIG.c ****             (void)ADC_DELSIG_DEC_SAMPH_REG;
 778:Generated_Source\PSoC5/ADC_DELSIG.c ****         }
 779:Generated_Source\PSoC5/ADC_DELSIG.c ****     }
 780:Generated_Source\PSoC5/ADC_DELSIG.c ****     /* Clear conversion complete status in Single Sample mode with resolution above 16 bit */
 781:Generated_Source\PSoC5/ADC_DELSIG.c ****     if(ADC_DELSIG_stopConversion != 0u)
 782:Generated_Source\PSoC5/ADC_DELSIG.c ****     {
 783:Generated_Source\PSoC5/ADC_DELSIG.c ****         ADC_DELSIG_convDone = 0u;
 784:Generated_Source\PSoC5/ADC_DELSIG.c ****     }
 785:Generated_Source\PSoC5/ADC_DELSIG.c **** 
 786:Generated_Source\PSoC5/ADC_DELSIG.c ****     return ((int16)result);
 787:Generated_Source\PSoC5/ADC_DELSIG.c **** }
 788:Generated_Source\PSoC5/ADC_DELSIG.c **** 
 789:Generated_Source\PSoC5/ADC_DELSIG.c **** 
 790:Generated_Source\PSoC5/ADC_DELSIG.c **** /*******************************************************************************
 791:Generated_Source\PSoC5/ADC_DELSIG.c **** * Function Name: ADC_DELSIG_GetResult32
 792:Generated_Source\PSoC5/ADC_DELSIG.c **** ********************************************************************************
 793:Generated_Source\PSoC5/ADC_DELSIG.c **** *
 794:Generated_Source\PSoC5/ADC_DELSIG.c **** * Summary:
 795:Generated_Source\PSoC5/ADC_DELSIG.c **** *  Returns a 32-bit result for a conversion with a result that has a
 796:Generated_Source\PSoC5/ADC_DELSIG.c **** *  resolution of 8 to 20 bits.
 797:Generated_Source\PSoC5/ADC_DELSIG.c **** *  This function supports different coherency settings.
 798:Generated_Source\PSoC5/ADC_DELSIG.c **** *
 799:Generated_Source\PSoC5/ADC_DELSIG.c **** * Parameters:
 800:Generated_Source\PSoC5/ADC_DELSIG.c **** *  None
 801:Generated_Source\PSoC5/ADC_DELSIG.c **** *
 802:Generated_Source\PSoC5/ADC_DELSIG.c **** * Return:
 803:Generated_Source\PSoC5/ADC_DELSIG.c **** *  int32: Result of the last ADC conversion.
 804:Generated_Source\PSoC5/ADC_DELSIG.c **** *
 805:Generated_Source\PSoC5/ADC_DELSIG.c **** * Global variables:
 806:Generated_Source\PSoC5/ADC_DELSIG.c **** *  ADC_DELSIG_convDone:  Cleared in single sample mode with resolution
 807:Generated_Source\PSoC5/ADC_DELSIG.c **** *                              above 16 bits
 808:Generated_Source\PSoC5/ADC_DELSIG.c **** *
 809:Generated_Source\PSoC5/ADC_DELSIG.c **** *******************************************************************************/
 810:Generated_Source\PSoC5/ADC_DELSIG.c **** int32 ADC_DELSIG_GetResult32(void) 
 811:Generated_Source\PSoC5/ADC_DELSIG.c **** {
 812:Generated_Source\PSoC5/ADC_DELSIG.c ****     uint32 result;
 813:Generated_Source\PSoC5/ADC_DELSIG.c ****     uint8 coherency;
 814:Generated_Source\PSoC5/ADC_DELSIG.c ****     #if (CY_PSOC3)
 815:Generated_Source\PSoC5/ADC_DELSIG.c **** 	    uint16 tmp;
 816:Generated_Source\PSoC5/ADC_DELSIG.c ****     #endif /* CY_PSOC3 */
 817:Generated_Source\PSoC5/ADC_DELSIG.c **** 
 818:Generated_Source\PSoC5/ADC_DELSIG.c ****     /* Read active coherency configuration */
 819:Generated_Source\PSoC5/ADC_DELSIG.c ****     coherency = ADC_DELSIG_DEC_COHER_REG & ADC_DELSIG_DEC_SAMP_KEY_MASK;
 820:Generated_Source\PSoC5/ADC_DELSIG.c **** 
 821:Generated_Source\PSoC5/ADC_DELSIG.c ****     if(coherency <= ADC_DELSIG_DEC_SAMP_KEY_LOW)
 822:Generated_Source\PSoC5/ADC_DELSIG.c ****     {   /*  Use default method to read result registers i.e. LSB byte read at the end*/
 823:Generated_Source\PSoC5/ADC_DELSIG.c ****         #if (CY_PSOC3)
 824:Generated_Source\PSoC5/ADC_DELSIG.c ****             result = ADC_DELSIG_DEC_SAMPH_REG;
 825:Generated_Source\PSoC5/ADC_DELSIG.c ****             if((result & 0x80u) != 0u)
 826:Generated_Source\PSoC5/ADC_DELSIG.c ****             {   /* Sign extend */
 827:Generated_Source\PSoC5/ADC_DELSIG.c ****                 result |= 0xFF00u;
 828:Generated_Source\PSoC5/ADC_DELSIG.c ****             }
 829:Generated_Source\PSoC5/ADC_DELSIG.c ****             result = (result << 8u) | ADC_DELSIG_DEC_SAMPM_REG;
ARM GAS  C:\Users\Lory\AppData\Local\Temp\ccNUpijZ.s 			page 16


 830:Generated_Source\PSoC5/ADC_DELSIG.c ****             result = (result << 8u) | ADC_DELSIG_DEC_SAMP_REG;
 831:Generated_Source\PSoC5/ADC_DELSIG.c ****         #else
 832:Generated_Source\PSoC5/ADC_DELSIG.c ****             result = CY_GET_REG16(ADC_DELSIG_DEC_SAMPH_16B_PTR);
 833:Generated_Source\PSoC5/ADC_DELSIG.c ****             result = (result << 16u) | (CY_GET_REG16(ADC_DELSIG_DEC_SAMP_16B_PTR));
 834:Generated_Source\PSoC5/ADC_DELSIG.c ****         #endif /* CY_PSOC3 */
 835:Generated_Source\PSoC5/ADC_DELSIG.c ****     }
 836:Generated_Source\PSoC5/ADC_DELSIG.c ****     else if(coherency == ADC_DELSIG_DEC_SAMP_KEY_MID)
 837:Generated_Source\PSoC5/ADC_DELSIG.c ****     {   /* Read middle byte at the end */
 838:Generated_Source\PSoC5/ADC_DELSIG.c ****         #if (CY_PSOC3)
 839:Generated_Source\PSoC5/ADC_DELSIG.c ****             result = ADC_DELSIG_DEC_SAMPH_REG;
 840:Generated_Source\PSoC5/ADC_DELSIG.c ****             if((result & 0x80u) != 0u)
 841:Generated_Source\PSoC5/ADC_DELSIG.c ****             {   /* Sign extend */
 842:Generated_Source\PSoC5/ADC_DELSIG.c ****                 result |= 0xFF00u;
 843:Generated_Source\PSoC5/ADC_DELSIG.c ****             }
 844:Generated_Source\PSoC5/ADC_DELSIG.c ****             result = (result << 16u) | (CY_GET_REG16(ADC_DELSIG_DEC_SAMP_16B_PTR));
 845:Generated_Source\PSoC5/ADC_DELSIG.c ****         #else
 846:Generated_Source\PSoC5/ADC_DELSIG.c ****             result = CY_GET_REG16(ADC_DELSIG_DEC_SAMPH_16B_PTR);
 847:Generated_Source\PSoC5/ADC_DELSIG.c ****             result = (result << 16u) | ADC_DELSIG_DEC_SAMP_REG;
 848:Generated_Source\PSoC5/ADC_DELSIG.c ****             result |=  (uint32)((uint32)ADC_DELSIG_DEC_SAMPM_REG << 8u);
 849:Generated_Source\PSoC5/ADC_DELSIG.c ****         #endif /* CY_PSOC3 */
 850:Generated_Source\PSoC5/ADC_DELSIG.c ****     }
 851:Generated_Source\PSoC5/ADC_DELSIG.c ****     else /*ADC_DELSIG_DEC_SAMP_KEY_HIGH */
 852:Generated_Source\PSoC5/ADC_DELSIG.c ****     {
 853:Generated_Source\PSoC5/ADC_DELSIG.c ****         /* Read MSB byte at the end */
 854:Generated_Source\PSoC5/ADC_DELSIG.c ****         #if (CY_PSOC3)
 855:Generated_Source\PSoC5/ADC_DELSIG.c ****             result = CY_GET_REG16(ADC_DELSIG_DEC_SAMP_16B_PTR);
 856:Generated_Source\PSoC5/ADC_DELSIG.c **** 			tmp = ADC_DELSIG_DEC_SAMPH_REG;
 857:Generated_Source\PSoC5/ADC_DELSIG.c ****             if((tmp & 0x80u) != 0u)
 858:Generated_Source\PSoC5/ADC_DELSIG.c ****             {   /* Sign extend */
 859:Generated_Source\PSoC5/ADC_DELSIG.c ****                 tmp |= 0xFF00u;
 860:Generated_Source\PSoC5/ADC_DELSIG.c ****             }
 861:Generated_Source\PSoC5/ADC_DELSIG.c ****             result |= (uint32)tmp << 16u;
 862:Generated_Source\PSoC5/ADC_DELSIG.c ****         #else
 863:Generated_Source\PSoC5/ADC_DELSIG.c ****             result = CY_GET_REG16(ADC_DELSIG_DEC_SAMP_16B_PTR);
 864:Generated_Source\PSoC5/ADC_DELSIG.c ****             result |= (uint32)((uint32)CY_GET_REG16(ADC_DELSIG_DEC_SAMPH_16B_PTR) << 16u);
 865:Generated_Source\PSoC5/ADC_DELSIG.c ****         #endif /* CY_PSOC3 */
 866:Generated_Source\PSoC5/ADC_DELSIG.c ****     }
 867:Generated_Source\PSoC5/ADC_DELSIG.c ****     /* Clear conversion complete status in Single Sample mode with resolution above 16 bit */
 868:Generated_Source\PSoC5/ADC_DELSIG.c ****     if(ADC_DELSIG_stopConversion != 0u)
 869:Generated_Source\PSoC5/ADC_DELSIG.c ****     {
 870:Generated_Source\PSoC5/ADC_DELSIG.c ****         ADC_DELSIG_convDone = 0u;
 871:Generated_Source\PSoC5/ADC_DELSIG.c ****     }
 872:Generated_Source\PSoC5/ADC_DELSIG.c **** 
 873:Generated_Source\PSoC5/ADC_DELSIG.c ****     return ((int32)result);
 874:Generated_Source\PSoC5/ADC_DELSIG.c **** }
 875:Generated_Source\PSoC5/ADC_DELSIG.c **** 
 876:Generated_Source\PSoC5/ADC_DELSIG.c **** 
 877:Generated_Source\PSoC5/ADC_DELSIG.c **** /*******************************************************************************
 878:Generated_Source\PSoC5/ADC_DELSIG.c **** * Function Name: ADC_DELSIG_SetOffset
 879:Generated_Source\PSoC5/ADC_DELSIG.c **** ********************************************************************************
 880:Generated_Source\PSoC5/ADC_DELSIG.c **** *
 881:Generated_Source\PSoC5/ADC_DELSIG.c **** * Summary:
 882:Generated_Source\PSoC5/ADC_DELSIG.c **** *  Sets the ADC offset which is used by the functions ADC_CountsTo_uVolts, 
 883:Generated_Source\PSoC5/ADC_DELSIG.c **** *  ADC_CountsTo_mVolts, and ADC_CountsTo_Volts to subtract the offset from the 
 884:Generated_Source\PSoC5/ADC_DELSIG.c **** *  given reading before calculating the voltage conversion.
 885:Generated_Source\PSoC5/ADC_DELSIG.c **** *
 886:Generated_Source\PSoC5/ADC_DELSIG.c **** * Parameters:
ARM GAS  C:\Users\Lory\AppData\Local\Temp\ccNUpijZ.s 			page 17


 887:Generated_Source\PSoC5/ADC_DELSIG.c **** *  int32:  This value is a measured value when the inputs are shorted or 
 888:Generated_Source\PSoC5/ADC_DELSIG.c **** *          connected to the same input voltage.
 889:Generated_Source\PSoC5/ADC_DELSIG.c **** *
 890:Generated_Source\PSoC5/ADC_DELSIG.c **** * Return:
 891:Generated_Source\PSoC5/ADC_DELSIG.c **** *  None
 892:Generated_Source\PSoC5/ADC_DELSIG.c **** *
 893:Generated_Source\PSoC5/ADC_DELSIG.c **** * Global variables:
 894:Generated_Source\PSoC5/ADC_DELSIG.c **** *  ADC_DELSIG_Offset:  Modified to set the user provided offset. This
 895:Generated_Source\PSoC5/ADC_DELSIG.c **** *  variable is used for offset calibration purpose.
 896:Generated_Source\PSoC5/ADC_DELSIG.c **** *
 897:Generated_Source\PSoC5/ADC_DELSIG.c **** * Side Effects:
 898:Generated_Source\PSoC5/ADC_DELSIG.c **** *  Affects the ADC_DELSIG_CountsTo_Volts,
 899:Generated_Source\PSoC5/ADC_DELSIG.c **** *  ADC_DELSIG_CountsTo_mVolts, ADC_DELSIG_CountsTo_uVolts functions
 900:Generated_Source\PSoC5/ADC_DELSIG.c **** *  by subtracting the given offset.
 901:Generated_Source\PSoC5/ADC_DELSIG.c **** *
 902:Generated_Source\PSoC5/ADC_DELSIG.c **** *******************************************************************************/
 903:Generated_Source\PSoC5/ADC_DELSIG.c **** void ADC_DELSIG_SetOffset(int32 offset) 
 904:Generated_Source\PSoC5/ADC_DELSIG.c **** {
 905:Generated_Source\PSoC5/ADC_DELSIG.c **** 
 906:Generated_Source\PSoC5/ADC_DELSIG.c ****     ADC_DELSIG_Offset = offset;
 907:Generated_Source\PSoC5/ADC_DELSIG.c **** }
 908:Generated_Source\PSoC5/ADC_DELSIG.c **** 
 909:Generated_Source\PSoC5/ADC_DELSIG.c **** 
 910:Generated_Source\PSoC5/ADC_DELSIG.c **** /*******************************************************************************
 911:Generated_Source\PSoC5/ADC_DELSIG.c **** * Function Name: ADC_DELSIG_SetGain
 912:Generated_Source\PSoC5/ADC_DELSIG.c **** ********************************************************************************
 913:Generated_Source\PSoC5/ADC_DELSIG.c **** *
 914:Generated_Source\PSoC5/ADC_DELSIG.c **** * Summary:
 915:Generated_Source\PSoC5/ADC_DELSIG.c **** *  Sets the ADC gain in counts per volt for the voltage conversion
 916:Generated_Source\PSoC5/ADC_DELSIG.c **** *  functions below. This value is set by default by the reference and
 917:Generated_Source\PSoC5/ADC_DELSIG.c **** *  input range settings. It should only be used to further calibrate the
 918:Generated_Source\PSoC5/ADC_DELSIG.c **** *  ADC with a known input or if an external reference is used. This
 919:Generated_Source\PSoC5/ADC_DELSIG.c **** *  function may also be used to calibrate an entire signal chain, not
 920:Generated_Source\PSoC5/ADC_DELSIG.c **** *  just the ADC.
 921:Generated_Source\PSoC5/ADC_DELSIG.c **** *
 922:Generated_Source\PSoC5/ADC_DELSIG.c **** * Parameters:
 923:Generated_Source\PSoC5/ADC_DELSIG.c **** *  int32: ADC gain in counts per volt.
 924:Generated_Source\PSoC5/ADC_DELSIG.c **** *
 925:Generated_Source\PSoC5/ADC_DELSIG.c **** * Return:
 926:Generated_Source\PSoC5/ADC_DELSIG.c **** *  None
 927:Generated_Source\PSoC5/ADC_DELSIG.c **** *
 928:Generated_Source\PSoC5/ADC_DELSIG.c **** * Global variables:
 929:Generated_Source\PSoC5/ADC_DELSIG.c **** *  ADC_DELSIG_CountsPerVolt:  modified to set the ADC gain in counts
 930:Generated_Source\PSoC5/ADC_DELSIG.c **** *   per volt.
 931:Generated_Source\PSoC5/ADC_DELSIG.c **** *
 932:Generated_Source\PSoC5/ADC_DELSIG.c **** * Side Effects:
 933:Generated_Source\PSoC5/ADC_DELSIG.c **** *  Affects the ADC_DELSIG_CountsTo_Volts,
 934:Generated_Source\PSoC5/ADC_DELSIG.c **** *  ADC_DELSIG_CountsTo_mVolts, ADC_DELSIG_CountsTo_uVolts functions
 935:Generated_Source\PSoC5/ADC_DELSIG.c **** *  supplying the correct conversion between ADC counts and voltage.
 936:Generated_Source\PSoC5/ADC_DELSIG.c **** *
 937:Generated_Source\PSoC5/ADC_DELSIG.c **** *******************************************************************************/
 938:Generated_Source\PSoC5/ADC_DELSIG.c **** void ADC_DELSIG_SetGain(int32 adcGain) 
 939:Generated_Source\PSoC5/ADC_DELSIG.c **** {
 940:Generated_Source\PSoC5/ADC_DELSIG.c ****     ADC_DELSIG_CountsPerVolt = adcGain;
 941:Generated_Source\PSoC5/ADC_DELSIG.c **** }
 942:Generated_Source\PSoC5/ADC_DELSIG.c **** 
 943:Generated_Source\PSoC5/ADC_DELSIG.c **** 
ARM GAS  C:\Users\Lory\AppData\Local\Temp\ccNUpijZ.s 			page 18


 944:Generated_Source\PSoC5/ADC_DELSIG.c **** /*******************************************************************************
 945:Generated_Source\PSoC5/ADC_DELSIG.c **** * Function Name: ADC_DELSIG_CountsTo_mVolts
 946:Generated_Source\PSoC5/ADC_DELSIG.c **** ********************************************************************************
 947:Generated_Source\PSoC5/ADC_DELSIG.c **** *
 948:Generated_Source\PSoC5/ADC_DELSIG.c **** * Summary:
 949:Generated_Source\PSoC5/ADC_DELSIG.c **** *  Converts the ADC counts output to mVolts as a 16-bit integer. For
 950:Generated_Source\PSoC5/ADC_DELSIG.c **** *  example, if the ADC measured 0.534 volts, the return value would
 951:Generated_Source\PSoC5/ADC_DELSIG.c **** *  be 534 mVolts.
 952:Generated_Source\PSoC5/ADC_DELSIG.c **** *
 953:Generated_Source\PSoC5/ADC_DELSIG.c **** * Parameters:
 954:Generated_Source\PSoC5/ADC_DELSIG.c **** *  int32: adcCounts Result from the ADC conversion.
 955:Generated_Source\PSoC5/ADC_DELSIG.c **** *
 956:Generated_Source\PSoC5/ADC_DELSIG.c **** * Return:
 957:Generated_Source\PSoC5/ADC_DELSIG.c **** *  int16:  Result in mVolts
 958:Generated_Source\PSoC5/ADC_DELSIG.c **** *
 959:Generated_Source\PSoC5/ADC_DELSIG.c **** * Global variables:
 960:Generated_Source\PSoC5/ADC_DELSIG.c **** *  ADC_DELSIG_CountsPerVolt:  used to convert ADC counts to mVolts.
 961:Generated_Source\PSoC5/ADC_DELSIG.c **** *  ADC_DELSIG_Offset:  Used as the offset while converting ADC counts
 962:Generated_Source\PSoC5/ADC_DELSIG.c **** *   to mVolts.
 963:Generated_Source\PSoC5/ADC_DELSIG.c **** *
 964:Generated_Source\PSoC5/ADC_DELSIG.c **** *******************************************************************************/
 965:Generated_Source\PSoC5/ADC_DELSIG.c **** int16 ADC_DELSIG_CountsTo_mVolts(int32 adcCounts) 
 966:Generated_Source\PSoC5/ADC_DELSIG.c **** {
 967:Generated_Source\PSoC5/ADC_DELSIG.c **** 
 968:Generated_Source\PSoC5/ADC_DELSIG.c ****     int16 mVolts;
 969:Generated_Source\PSoC5/ADC_DELSIG.c **** 
 970:Generated_Source\PSoC5/ADC_DELSIG.c ****     /* Convert adcCounts to the right align if left option selected */
 971:Generated_Source\PSoC5/ADC_DELSIG.c ****     #if(ADC_DELSIG_CFG1_DEC_DIV != 0)
 972:Generated_Source\PSoC5/ADC_DELSIG.c ****         if(ADC_DELSIG_Config == ADC_DELSIG_CFG1)
 973:Generated_Source\PSoC5/ADC_DELSIG.c ****         {
 974:Generated_Source\PSoC5/ADC_DELSIG.c ****             adcCounts /= ADC_DELSIG_CFG1_DEC_DIV;
 975:Generated_Source\PSoC5/ADC_DELSIG.c ****         }
 976:Generated_Source\PSoC5/ADC_DELSIG.c ****     #endif /* ADC_DELSIG_CFG1_DEC_DIV */
 977:Generated_Source\PSoC5/ADC_DELSIG.c ****     #if((ADC_DELSIG_CFG2_DEC_DIV != 0) && (ADC_DELSIG_DEFAULT_NUM_CONFIGS > 1))
 978:Generated_Source\PSoC5/ADC_DELSIG.c ****         if(ADC_DELSIG_Config == ADC_DELSIG_CFG2)
 979:Generated_Source\PSoC5/ADC_DELSIG.c ****         {
 980:Generated_Source\PSoC5/ADC_DELSIG.c ****             adcCounts /= ADC_DELSIG_CFG2_DEC_DIV;
 981:Generated_Source\PSoC5/ADC_DELSIG.c ****         }
 982:Generated_Source\PSoC5/ADC_DELSIG.c ****     #endif /* ADC_DELSIG_CFG2_DEC_DIV */
 983:Generated_Source\PSoC5/ADC_DELSIG.c ****     #if((ADC_DELSIG_CFG3_DEC_DIV != 0) && (ADC_DELSIG_DEFAULT_NUM_CONFIGS > 2))
 984:Generated_Source\PSoC5/ADC_DELSIG.c ****         if(ADC_DELSIG_Config == ADC_DELSIG_CFG3)
 985:Generated_Source\PSoC5/ADC_DELSIG.c ****         {
 986:Generated_Source\PSoC5/ADC_DELSIG.c ****             adcCounts /= ADC_DELSIG_CFG3_DEC_DIV;
 987:Generated_Source\PSoC5/ADC_DELSIG.c ****         }
 988:Generated_Source\PSoC5/ADC_DELSIG.c ****     #endif /* ADC_DELSIG_CFG2_DEC_DIV */
 989:Generated_Source\PSoC5/ADC_DELSIG.c ****     #if((ADC_DELSIG_CFG4_DEC_DIV != 0) && (ADC_DELSIG_DEFAULT_NUM_CONFIGS > 3))
 990:Generated_Source\PSoC5/ADC_DELSIG.c ****         if(ADC_DELSIG_Config == ADC_DELSIG_CFG4)
 991:Generated_Source\PSoC5/ADC_DELSIG.c ****         {
 992:Generated_Source\PSoC5/ADC_DELSIG.c ****             adcCounts /= ADC_DELSIG_CFG4_DEC_DIV;
 993:Generated_Source\PSoC5/ADC_DELSIG.c ****         }
 994:Generated_Source\PSoC5/ADC_DELSIG.c ****     #endif /* ADC_DELSIG_CFG2_DEC_DIV */
 995:Generated_Source\PSoC5/ADC_DELSIG.c **** 
 996:Generated_Source\PSoC5/ADC_DELSIG.c ****     /* Subtract ADC offset */
 997:Generated_Source\PSoC5/ADC_DELSIG.c ****     adcCounts -= ADC_DELSIG_Offset;
 998:Generated_Source\PSoC5/ADC_DELSIG.c **** 
 999:Generated_Source\PSoC5/ADC_DELSIG.c ****     mVolts = (int16)(( adcCounts * ADC_DELSIG_1MV_COUNTS ) / ADC_DELSIG_CountsPerVolt) ;
1000:Generated_Source\PSoC5/ADC_DELSIG.c **** 
ARM GAS  C:\Users\Lory\AppData\Local\Temp\ccNUpijZ.s 			page 19


1001:Generated_Source\PSoC5/ADC_DELSIG.c ****     return(mVolts);
1002:Generated_Source\PSoC5/ADC_DELSIG.c **** }
1003:Generated_Source\PSoC5/ADC_DELSIG.c **** 
1004:Generated_Source\PSoC5/ADC_DELSIG.c **** 
1005:Generated_Source\PSoC5/ADC_DELSIG.c **** /*******************************************************************************
1006:Generated_Source\PSoC5/ADC_DELSIG.c **** * Function Name: ADC_DELSIG_CountsTo_Volts
1007:Generated_Source\PSoC5/ADC_DELSIG.c **** ********************************************************************************
1008:Generated_Source\PSoC5/ADC_DELSIG.c **** *
1009:Generated_Source\PSoC5/ADC_DELSIG.c **** * Summary:
1010:Generated_Source\PSoC5/ADC_DELSIG.c **** *  Converts the ADC output to Volts as a floating point number. For
1011:Generated_Source\PSoC5/ADC_DELSIG.c **** *  example, if the ADC measure a voltage of 1.2345 Volts, the
1012:Generated_Source\PSoC5/ADC_DELSIG.c **** *  returned result would be +1.2345 Volts.
1013:Generated_Source\PSoC5/ADC_DELSIG.c **** *
1014:Generated_Source\PSoC5/ADC_DELSIG.c **** * Parameters:
1015:Generated_Source\PSoC5/ADC_DELSIG.c **** *  int32 adcCounts:  Result from the ADC conversion.
1016:Generated_Source\PSoC5/ADC_DELSIG.c **** *
1017:Generated_Source\PSoC5/ADC_DELSIG.c **** * Return:
1018:Generated_Source\PSoC5/ADC_DELSIG.c **** *  float32: Result in Volts
1019:Generated_Source\PSoC5/ADC_DELSIG.c **** *
1020:Generated_Source\PSoC5/ADC_DELSIG.c **** * Global variables:
1021:Generated_Source\PSoC5/ADC_DELSIG.c **** *  ADC_DELSIG_CountsPerVolt:  used to convert to Volts.
1022:Generated_Source\PSoC5/ADC_DELSIG.c **** *  ADC_DELSIG_Offset:  Used as the offset while converting ADC counts
1023:Generated_Source\PSoC5/ADC_DELSIG.c **** *   to Volts.
1024:Generated_Source\PSoC5/ADC_DELSIG.c **** *
1025:Generated_Source\PSoC5/ADC_DELSIG.c **** *******************************************************************************/
1026:Generated_Source\PSoC5/ADC_DELSIG.c **** float32 ADC_DELSIG_CountsTo_Volts(int32 adcCounts) 
1027:Generated_Source\PSoC5/ADC_DELSIG.c **** {
1028:Generated_Source\PSoC5/ADC_DELSIG.c **** 
1029:Generated_Source\PSoC5/ADC_DELSIG.c ****     float32 Volts;
1030:Generated_Source\PSoC5/ADC_DELSIG.c **** 
1031:Generated_Source\PSoC5/ADC_DELSIG.c ****     /* Convert adcCounts to the right align if left option selected */
1032:Generated_Source\PSoC5/ADC_DELSIG.c ****     #if(ADC_DELSIG_CFG1_DEC_DIV != 0)
1033:Generated_Source\PSoC5/ADC_DELSIG.c ****         if(ADC_DELSIG_Config == ADC_DELSIG_CFG1)
1034:Generated_Source\PSoC5/ADC_DELSIG.c ****         {
1035:Generated_Source\PSoC5/ADC_DELSIG.c ****             adcCounts /= ADC_DELSIG_CFG1_DEC_DIV;
1036:Generated_Source\PSoC5/ADC_DELSIG.c ****         }
1037:Generated_Source\PSoC5/ADC_DELSIG.c ****     #endif /* ADC_DELSIG_CFG1_DEC_DIV */
1038:Generated_Source\PSoC5/ADC_DELSIG.c ****     #if((ADC_DELSIG_CFG2_DEC_DIV != 0) && (ADC_DELSIG_DEFAULT_NUM_CONFIGS > 1))
1039:Generated_Source\PSoC5/ADC_DELSIG.c ****         if(ADC_DELSIG_Config == ADC_DELSIG_CFG2)
1040:Generated_Source\PSoC5/ADC_DELSIG.c ****         {
1041:Generated_Source\PSoC5/ADC_DELSIG.c ****             adcCounts /= ADC_DELSIG_CFG2_DEC_DIV;
1042:Generated_Source\PSoC5/ADC_DELSIG.c ****         }
1043:Generated_Source\PSoC5/ADC_DELSIG.c ****     #endif /* ADC_DELSIG_CFG2_DEC_DIV */
1044:Generated_Source\PSoC5/ADC_DELSIG.c ****     #if((ADC_DELSIG_CFG3_DEC_DIV != 0) && (ADC_DELSIG_DEFAULT_NUM_CONFIGS > 2))
1045:Generated_Source\PSoC5/ADC_DELSIG.c ****         if(ADC_DELSIG_Config == ADC_DELSIG_CFG3)
1046:Generated_Source\PSoC5/ADC_DELSIG.c ****         {
1047:Generated_Source\PSoC5/ADC_DELSIG.c ****             adcCounts /= ADC_DELSIG_CFG3_DEC_DIV;
1048:Generated_Source\PSoC5/ADC_DELSIG.c ****         }
1049:Generated_Source\PSoC5/ADC_DELSIG.c ****     #endif /* ADC_DELSIG_CFG2_DEC_DIV */
1050:Generated_Source\PSoC5/ADC_DELSIG.c ****     #if((ADC_DELSIG_CFG4_DEC_DIV != 0) && (ADC_DELSIG_DEFAULT_NUM_CONFIGS > 3))
1051:Generated_Source\PSoC5/ADC_DELSIG.c ****         if(ADC_DELSIG_Config == ADC_DELSIG_CFG4)
1052:Generated_Source\PSoC5/ADC_DELSIG.c ****         {
1053:Generated_Source\PSoC5/ADC_DELSIG.c ****             adcCounts /= ADC_DELSIG_CFG4_DEC_DIV;
1054:Generated_Source\PSoC5/ADC_DELSIG.c ****         }
1055:Generated_Source\PSoC5/ADC_DELSIG.c ****     #endif /* ADC_DELSIG_CFG2_DEC_DIV */
1056:Generated_Source\PSoC5/ADC_DELSIG.c **** 
1057:Generated_Source\PSoC5/ADC_DELSIG.c ****     /* Subtract ADC offset */
ARM GAS  C:\Users\Lory\AppData\Local\Temp\ccNUpijZ.s 			page 20


1058:Generated_Source\PSoC5/ADC_DELSIG.c ****     adcCounts -= ADC_DELSIG_Offset;
1059:Generated_Source\PSoC5/ADC_DELSIG.c **** 
1060:Generated_Source\PSoC5/ADC_DELSIG.c ****     Volts = (float32)adcCounts / (float32)ADC_DELSIG_CountsPerVolt;
1061:Generated_Source\PSoC5/ADC_DELSIG.c **** 
1062:Generated_Source\PSoC5/ADC_DELSIG.c ****     return( Volts );
1063:Generated_Source\PSoC5/ADC_DELSIG.c **** }
1064:Generated_Source\PSoC5/ADC_DELSIG.c **** 
1065:Generated_Source\PSoC5/ADC_DELSIG.c **** 
1066:Generated_Source\PSoC5/ADC_DELSIG.c **** /*******************************************************************************
1067:Generated_Source\PSoC5/ADC_DELSIG.c **** * Function Name: ADC_DELSIG_CountsTo_uVolts
1068:Generated_Source\PSoC5/ADC_DELSIG.c **** ********************************************************************************
1069:Generated_Source\PSoC5/ADC_DELSIG.c **** *
1070:Generated_Source\PSoC5/ADC_DELSIG.c **** * Summary:
1071:Generated_Source\PSoC5/ADC_DELSIG.c **** *  Converts the ADC output to uVolts as a 32-bit integer. For example,
1072:Generated_Source\PSoC5/ADC_DELSIG.c **** *  if the ADC measured -0.02345 Volts, the return value would be -23450 uVolts.
1073:Generated_Source\PSoC5/ADC_DELSIG.c **** *
1074:Generated_Source\PSoC5/ADC_DELSIG.c **** * Parameters:
1075:Generated_Source\PSoC5/ADC_DELSIG.c **** *  int32 adcCounts: Result from the ADC conversion.
1076:Generated_Source\PSoC5/ADC_DELSIG.c **** *
1077:Generated_Source\PSoC5/ADC_DELSIG.c **** * Return:
1078:Generated_Source\PSoC5/ADC_DELSIG.c **** *  int32:  Result in uVolts
1079:Generated_Source\PSoC5/ADC_DELSIG.c **** *
1080:Generated_Source\PSoC5/ADC_DELSIG.c **** * Global variables:
1081:Generated_Source\PSoC5/ADC_DELSIG.c **** *  ADC_DELSIG_CountsPerVolt:  used to convert ADC counts to mVolts.
1082:Generated_Source\PSoC5/ADC_DELSIG.c **** *  ADC_DELSIG_Offset:  Used as the offset while converting ADC counts
1083:Generated_Source\PSoC5/ADC_DELSIG.c **** *   to mVolts.
1084:Generated_Source\PSoC5/ADC_DELSIG.c **** *
1085:Generated_Source\PSoC5/ADC_DELSIG.c **** * Theory:
1086:Generated_Source\PSoC5/ADC_DELSIG.c **** *  Care must be taken to not exceed the maximum value for a 31 bit signed
1087:Generated_Source\PSoC5/ADC_DELSIG.c **** *  number in the conversion to uVolts and at the same time not lose resolution.
1088:Generated_Source\PSoC5/ADC_DELSIG.c **** *
1089:Generated_Source\PSoC5/ADC_DELSIG.c **** *  uVolts = ((A * adcCounts) / ((int32)ADC_DELSIG_CountsPerVolt / B));
1090:Generated_Source\PSoC5/ADC_DELSIG.c **** *
1091:Generated_Source\PSoC5/ADC_DELSIG.c **** *******************************************************************************/
1092:Generated_Source\PSoC5/ADC_DELSIG.c **** int32 ADC_DELSIG_CountsTo_uVolts(int32 adcCounts) 
1093:Generated_Source\PSoC5/ADC_DELSIG.c **** {
1094:Generated_Source\PSoC5/ADC_DELSIG.c **** 
1095:Generated_Source\PSoC5/ADC_DELSIG.c ****     int32 uVolts;
1096:Generated_Source\PSoC5/ADC_DELSIG.c ****     int32 coefA;
1097:Generated_Source\PSoC5/ADC_DELSIG.c ****     int32 coefB;
1098:Generated_Source\PSoC5/ADC_DELSIG.c ****     uint8 resolution;
1099:Generated_Source\PSoC5/ADC_DELSIG.c **** 
1100:Generated_Source\PSoC5/ADC_DELSIG.c ****     /* Set the resolution based on the configuration */
1101:Generated_Source\PSoC5/ADC_DELSIG.c ****     /* Convert adcCounts to the right align if left option selected */
1102:Generated_Source\PSoC5/ADC_DELSIG.c ****     if (ADC_DELSIG_Config == ADC_DELSIG_CFG1)
1103:Generated_Source\PSoC5/ADC_DELSIG.c ****     {
1104:Generated_Source\PSoC5/ADC_DELSIG.c ****         resolution = ADC_DELSIG_CFG1_RESOLUTION;
1105:Generated_Source\PSoC5/ADC_DELSIG.c ****         #if(ADC_DELSIG_CFG1_DEC_DIV != 0)
1106:Generated_Source\PSoC5/ADC_DELSIG.c ****             adcCounts /= ADC_DELSIG_CFG1_DEC_DIV;
1107:Generated_Source\PSoC5/ADC_DELSIG.c ****         #endif /* ADC_DELSIG_CFG1_DEC_DIV */
1108:Generated_Source\PSoC5/ADC_DELSIG.c ****     }
1109:Generated_Source\PSoC5/ADC_DELSIG.c ****     else if (ADC_DELSIG_Config == ADC_DELSIG_CFG2)
1110:Generated_Source\PSoC5/ADC_DELSIG.c ****     {
1111:Generated_Source\PSoC5/ADC_DELSIG.c ****         resolution = ADC_DELSIG_CFG2_RESOLUTION;
1112:Generated_Source\PSoC5/ADC_DELSIG.c ****         #if(ADC_DELSIG_CFG2_DEC_DIV != 0)
1113:Generated_Source\PSoC5/ADC_DELSIG.c ****             adcCounts /= ADC_DELSIG_CFG2_DEC_DIV;
1114:Generated_Source\PSoC5/ADC_DELSIG.c ****         #endif /* ADC_DELSIG_CFG2_DEC_DIV */
ARM GAS  C:\Users\Lory\AppData\Local\Temp\ccNUpijZ.s 			page 21


1115:Generated_Source\PSoC5/ADC_DELSIG.c ****     }
1116:Generated_Source\PSoC5/ADC_DELSIG.c ****     else if (ADC_DELSIG_Config == ADC_DELSIG_CFG3)
1117:Generated_Source\PSoC5/ADC_DELSIG.c ****     {
1118:Generated_Source\PSoC5/ADC_DELSIG.c ****         resolution = ADC_DELSIG_CFG3_RESOLUTION;
1119:Generated_Source\PSoC5/ADC_DELSIG.c ****         #if(ADC_DELSIG_CFG3_DEC_DIV != 0)
1120:Generated_Source\PSoC5/ADC_DELSIG.c ****             adcCounts /= ADC_DELSIG_CFG3_DEC_DIV;
1121:Generated_Source\PSoC5/ADC_DELSIG.c ****         #endif /* ADC_DELSIG_CFG3_DEC_DIV */
1122:Generated_Source\PSoC5/ADC_DELSIG.c ****     }
1123:Generated_Source\PSoC5/ADC_DELSIG.c ****     else
1124:Generated_Source\PSoC5/ADC_DELSIG.c ****     {
1125:Generated_Source\PSoC5/ADC_DELSIG.c ****         resolution = ADC_DELSIG_CFG4_RESOLUTION;
1126:Generated_Source\PSoC5/ADC_DELSIG.c ****         #if(ADC_DELSIG_CFG4_DEC_DIV != 0)
1127:Generated_Source\PSoC5/ADC_DELSIG.c ****             adcCounts /= ADC_DELSIG_CFG4_DEC_DIV;
1128:Generated_Source\PSoC5/ADC_DELSIG.c ****         #endif /* ADC_DELSIG_CFG4_DEC_DIV */
1129:Generated_Source\PSoC5/ADC_DELSIG.c ****     }
1130:Generated_Source\PSoC5/ADC_DELSIG.c **** 
1131:Generated_Source\PSoC5/ADC_DELSIG.c ****     switch (resolution)
1132:Generated_Source\PSoC5/ADC_DELSIG.c ****     {
1133:Generated_Source\PSoC5/ADC_DELSIG.c ****         #if( (ADC_DELSIG_CFG1_RESOLUTION == ADC_DELSIG__BITS_12) || \
1134:Generated_Source\PSoC5/ADC_DELSIG.c ****              (ADC_DELSIG_CFG2_RESOLUTION == ADC_DELSIG__BITS_12) || \
1135:Generated_Source\PSoC5/ADC_DELSIG.c ****              (ADC_DELSIG_CFG3_RESOLUTION == ADC_DELSIG__BITS_12) || \
1136:Generated_Source\PSoC5/ADC_DELSIG.c ****              (ADC_DELSIG_CFG4_RESOLUTION == ADC_DELSIG__BITS_12) )
1137:Generated_Source\PSoC5/ADC_DELSIG.c ****             case (uint8)ADC_DELSIG__BITS_12:
1138:Generated_Source\PSoC5/ADC_DELSIG.c ****                 coefA = ADC_DELSIG_1UV_COUNTS / ADC_DELSIG_DIVISOR_2;
1139:Generated_Source\PSoC5/ADC_DELSIG.c ****                 coefB = ADC_DELSIG_DIVISOR_2;
1140:Generated_Source\PSoC5/ADC_DELSIG.c ****                 break;
1141:Generated_Source\PSoC5/ADC_DELSIG.c ****         #endif /* ADC_DELSIG__BITS_12 */    
1142:Generated_Source\PSoC5/ADC_DELSIG.c ****         #if( (ADC_DELSIG_CFG1_RESOLUTION == ADC_DELSIG__BITS_13) || \
1143:Generated_Source\PSoC5/ADC_DELSIG.c ****              (ADC_DELSIG_CFG2_RESOLUTION == ADC_DELSIG__BITS_13) || \
1144:Generated_Source\PSoC5/ADC_DELSIG.c ****              (ADC_DELSIG_CFG3_RESOLUTION == ADC_DELSIG__BITS_13) || \
1145:Generated_Source\PSoC5/ADC_DELSIG.c ****              (ADC_DELSIG_CFG4_RESOLUTION == ADC_DELSIG__BITS_13) )
1146:Generated_Source\PSoC5/ADC_DELSIG.c ****             case (uint8)ADC_DELSIG__BITS_13:
1147:Generated_Source\PSoC5/ADC_DELSIG.c ****                 coefA = ADC_DELSIG_1UV_COUNTS / ADC_DELSIG_DIVISOR_4;
1148:Generated_Source\PSoC5/ADC_DELSIG.c ****                 coefB = ADC_DELSIG_DIVISOR_4;
1149:Generated_Source\PSoC5/ADC_DELSIG.c ****                 break;
1150:Generated_Source\PSoC5/ADC_DELSIG.c ****         #endif /* ADC_DELSIG__BITS_13 */    
1151:Generated_Source\PSoC5/ADC_DELSIG.c ****         #if( (ADC_DELSIG_CFG1_RESOLUTION == ADC_DELSIG__BITS_14) || \
1152:Generated_Source\PSoC5/ADC_DELSIG.c ****              (ADC_DELSIG_CFG2_RESOLUTION == ADC_DELSIG__BITS_14) || \
1153:Generated_Source\PSoC5/ADC_DELSIG.c ****              (ADC_DELSIG_CFG3_RESOLUTION == ADC_DELSIG__BITS_14) || \
1154:Generated_Source\PSoC5/ADC_DELSIG.c ****              (ADC_DELSIG_CFG4_RESOLUTION == ADC_DELSIG__BITS_14) )
1155:Generated_Source\PSoC5/ADC_DELSIG.c ****             case (uint8)ADC_DELSIG__BITS_14:
1156:Generated_Source\PSoC5/ADC_DELSIG.c ****                 coefA = ADC_DELSIG_1UV_COUNTS / ADC_DELSIG_DIVISOR_8;
1157:Generated_Source\PSoC5/ADC_DELSIG.c ****                 coefB = ADC_DELSIG_DIVISOR_8;
1158:Generated_Source\PSoC5/ADC_DELSIG.c ****                 break;
1159:Generated_Source\PSoC5/ADC_DELSIG.c ****         #endif /* ADC_DELSIG__BITS_14 */    
1160:Generated_Source\PSoC5/ADC_DELSIG.c ****         #if( (ADC_DELSIG_CFG1_RESOLUTION == ADC_DELSIG__BITS_15) || \
1161:Generated_Source\PSoC5/ADC_DELSIG.c ****              (ADC_DELSIG_CFG2_RESOLUTION == ADC_DELSIG__BITS_15) || \
1162:Generated_Source\PSoC5/ADC_DELSIG.c ****              (ADC_DELSIG_CFG3_RESOLUTION == ADC_DELSIG__BITS_15) || \
1163:Generated_Source\PSoC5/ADC_DELSIG.c ****              (ADC_DELSIG_CFG4_RESOLUTION == ADC_DELSIG__BITS_15) )
1164:Generated_Source\PSoC5/ADC_DELSIG.c ****             case (uint8)ADC_DELSIG__BITS_15:
1165:Generated_Source\PSoC5/ADC_DELSIG.c ****                 coefA = ADC_DELSIG_1UV_COUNTS / ADC_DELSIG_DIVISOR_16;
1166:Generated_Source\PSoC5/ADC_DELSIG.c ****                 coefB = ADC_DELSIG_DIVISOR_16;
1167:Generated_Source\PSoC5/ADC_DELSIG.c ****                 break;
1168:Generated_Source\PSoC5/ADC_DELSIG.c ****         #endif /* ADC_DELSIG__BITS_15 */    
1169:Generated_Source\PSoC5/ADC_DELSIG.c ****         #if( (ADC_DELSIG_CFG1_RESOLUTION == ADC_DELSIG__BITS_16) || \
1170:Generated_Source\PSoC5/ADC_DELSIG.c ****              (ADC_DELSIG_CFG2_RESOLUTION == ADC_DELSIG__BITS_16) || \
1171:Generated_Source\PSoC5/ADC_DELSIG.c ****              (ADC_DELSIG_CFG3_RESOLUTION == ADC_DELSIG__BITS_16) || \
ARM GAS  C:\Users\Lory\AppData\Local\Temp\ccNUpijZ.s 			page 22


1172:Generated_Source\PSoC5/ADC_DELSIG.c ****              (ADC_DELSIG_CFG4_RESOLUTION == ADC_DELSIG__BITS_16) )
1173:Generated_Source\PSoC5/ADC_DELSIG.c ****             case (uint8)ADC_DELSIG__BITS_16:
1174:Generated_Source\PSoC5/ADC_DELSIG.c ****                 coefA = ADC_DELSIG_1UV_COUNTS / ADC_DELSIG_DIVISOR_32;
1175:Generated_Source\PSoC5/ADC_DELSIG.c ****                 coefB = ADC_DELSIG_DIVISOR_32;
1176:Generated_Source\PSoC5/ADC_DELSIG.c ****                 break;
1177:Generated_Source\PSoC5/ADC_DELSIG.c ****         #endif /* ADC_DELSIG__BITS_16 */    
1178:Generated_Source\PSoC5/ADC_DELSIG.c ****         #if( (ADC_DELSIG_CFG1_RESOLUTION == ADC_DELSIG__BITS_17) || \
1179:Generated_Source\PSoC5/ADC_DELSIG.c ****              (ADC_DELSIG_CFG2_RESOLUTION == ADC_DELSIG__BITS_17) || \
1180:Generated_Source\PSoC5/ADC_DELSIG.c ****              (ADC_DELSIG_CFG3_RESOLUTION == ADC_DELSIG__BITS_17) || \
1181:Generated_Source\PSoC5/ADC_DELSIG.c ****              (ADC_DELSIG_CFG4_RESOLUTION == ADC_DELSIG__BITS_17) )
1182:Generated_Source\PSoC5/ADC_DELSIG.c ****             case (uint8)ADC_DELSIG__BITS_17:
1183:Generated_Source\PSoC5/ADC_DELSIG.c ****                 coefA = ADC_DELSIG_1UV_COUNTS / ADC_DELSIG_DIVISOR_64;
1184:Generated_Source\PSoC5/ADC_DELSIG.c ****                 coefB = ADC_DELSIG_DIVISOR_64;
1185:Generated_Source\PSoC5/ADC_DELSIG.c ****                 break;
1186:Generated_Source\PSoC5/ADC_DELSIG.c ****         #endif /* ADC_DELSIG__BITS_17 */    
1187:Generated_Source\PSoC5/ADC_DELSIG.c ****         #if( (ADC_DELSIG_CFG1_RESOLUTION == ADC_DELSIG__BITS_18) || \
1188:Generated_Source\PSoC5/ADC_DELSIG.c ****              (ADC_DELSIG_CFG2_RESOLUTION == ADC_DELSIG__BITS_18) || \
1189:Generated_Source\PSoC5/ADC_DELSIG.c ****              (ADC_DELSIG_CFG3_RESOLUTION == ADC_DELSIG__BITS_18) || \
1190:Generated_Source\PSoC5/ADC_DELSIG.c ****              (ADC_DELSIG_CFG4_RESOLUTION == ADC_DELSIG__BITS_18) )
1191:Generated_Source\PSoC5/ADC_DELSIG.c ****             case (uint8)ADC_DELSIG__BITS_18:
1192:Generated_Source\PSoC5/ADC_DELSIG.c ****                 coefA = ADC_DELSIG_1UV_COUNTS / ADC_DELSIG_DIVISOR_125;
1193:Generated_Source\PSoC5/ADC_DELSIG.c ****                 coefB = ADC_DELSIG_DIVISOR_125;
1194:Generated_Source\PSoC5/ADC_DELSIG.c ****                 break;
1195:Generated_Source\PSoC5/ADC_DELSIG.c ****         #endif /* ADC_DELSIG__BITS_18 */    
1196:Generated_Source\PSoC5/ADC_DELSIG.c ****         #if( (ADC_DELSIG_CFG1_RESOLUTION == ADC_DELSIG__BITS_19) || \
1197:Generated_Source\PSoC5/ADC_DELSIG.c ****              (ADC_DELSIG_CFG2_RESOLUTION == ADC_DELSIG__BITS_19) || \
1198:Generated_Source\PSoC5/ADC_DELSIG.c ****              (ADC_DELSIG_CFG3_RESOLUTION == ADC_DELSIG__BITS_19) || \
1199:Generated_Source\PSoC5/ADC_DELSIG.c ****              (ADC_DELSIG_CFG4_RESOLUTION == ADC_DELSIG__BITS_19) )
1200:Generated_Source\PSoC5/ADC_DELSIG.c ****             case (uint8)ADC_DELSIG__BITS_19:
1201:Generated_Source\PSoC5/ADC_DELSIG.c ****                 coefA = ADC_DELSIG_1UV_COUNTS / ADC_DELSIG_DIVISOR_250;
1202:Generated_Source\PSoC5/ADC_DELSIG.c ****                 coefB = ADC_DELSIG_DIVISOR_250;
1203:Generated_Source\PSoC5/ADC_DELSIG.c ****                 break;
1204:Generated_Source\PSoC5/ADC_DELSIG.c ****         #endif /* ADC_DELSIG__BITS_19 */    
1205:Generated_Source\PSoC5/ADC_DELSIG.c ****         #if( (ADC_DELSIG_CFG1_RESOLUTION == ADC_DELSIG__BITS_20) || \
1206:Generated_Source\PSoC5/ADC_DELSIG.c ****              (ADC_DELSIG_CFG2_RESOLUTION == ADC_DELSIG__BITS_20) || \
1207:Generated_Source\PSoC5/ADC_DELSIG.c ****              (ADC_DELSIG_CFG3_RESOLUTION == ADC_DELSIG__BITS_20) || \
1208:Generated_Source\PSoC5/ADC_DELSIG.c ****              (ADC_DELSIG_CFG4_RESOLUTION == ADC_DELSIG__BITS_20) )
1209:Generated_Source\PSoC5/ADC_DELSIG.c ****             case (uint8)ADC_DELSIG__BITS_20:
1210:Generated_Source\PSoC5/ADC_DELSIG.c ****                 coefA = ADC_DELSIG_1UV_COUNTS / ADC_DELSIG_DIVISOR_500;
1211:Generated_Source\PSoC5/ADC_DELSIG.c ****                 coefB = ADC_DELSIG_DIVISOR_500;
1212:Generated_Source\PSoC5/ADC_DELSIG.c ****                 break;
1213:Generated_Source\PSoC5/ADC_DELSIG.c ****         #endif /* ADC_DELSIG__BITS_20 */    
1214:Generated_Source\PSoC5/ADC_DELSIG.c ****         default:    /* resolution < 12 */
1215:Generated_Source\PSoC5/ADC_DELSIG.c ****             /* 11 bits ADC + 2^20(1048576) = 31 bits */
1216:Generated_Source\PSoC5/ADC_DELSIG.c ****             coefA = ADC_DELSIG_1UV_COUNTS;
1217:Generated_Source\PSoC5/ADC_DELSIG.c ****             coefB = ADC_DELSIG_DIVISOR_1;
1218:Generated_Source\PSoC5/ADC_DELSIG.c ****             break;
1219:Generated_Source\PSoC5/ADC_DELSIG.c ****     }
1220:Generated_Source\PSoC5/ADC_DELSIG.c ****     coefB = ADC_DELSIG_CountsPerVolt / coefB;
1221:Generated_Source\PSoC5/ADC_DELSIG.c ****     uVolts = ((coefA * adcCounts) / coefB) - ((coefA * ADC_DELSIG_Offset) / coefB);
1222:Generated_Source\PSoC5/ADC_DELSIG.c **** 
1223:Generated_Source\PSoC5/ADC_DELSIG.c ****     return( uVolts );
1224:Generated_Source\PSoC5/ADC_DELSIG.c **** }
1225:Generated_Source\PSoC5/ADC_DELSIG.c **** 
1226:Generated_Source\PSoC5/ADC_DELSIG.c **** 
1227:Generated_Source\PSoC5/ADC_DELSIG.c **** /*******************************************************************************
1228:Generated_Source\PSoC5/ADC_DELSIG.c **** * Function Name: ADC_DELSIG_InitConfig(uint8 config)
ARM GAS  C:\Users\Lory\AppData\Local\Temp\ccNUpijZ.s 			page 23


1229:Generated_Source\PSoC5/ADC_DELSIG.c **** ********************************************************************************
1230:Generated_Source\PSoC5/ADC_DELSIG.c **** *
1231:Generated_Source\PSoC5/ADC_DELSIG.c **** * Summary:
1232:Generated_Source\PSoC5/ADC_DELSIG.c **** *  Initializes all registers based on customizer settings
1233:Generated_Source\PSoC5/ADC_DELSIG.c **** *
1234:Generated_Source\PSoC5/ADC_DELSIG.c **** * Parameters:
1235:Generated_Source\PSoC5/ADC_DELSIG.c **** *   void
1236:Generated_Source\PSoC5/ADC_DELSIG.c **** *
1237:Generated_Source\PSoC5/ADC_DELSIG.c **** * Return:
1238:Generated_Source\PSoC5/ADC_DELSIG.c **** *  None
1239:Generated_Source\PSoC5/ADC_DELSIG.c **** *
1240:Generated_Source\PSoC5/ADC_DELSIG.c **** * Global variables:
1241:Generated_Source\PSoC5/ADC_DELSIG.c **** *  ADC_DELSIG_CountsPerVolt:  Used to set the default counts per volt.
1242:Generated_Source\PSoC5/ADC_DELSIG.c **** *
1243:Generated_Source\PSoC5/ADC_DELSIG.c **** * Side Effects: Rewrites the coherency set by ADC_DELSIG_SetCoherency()
1244:Generated_Source\PSoC5/ADC_DELSIG.c **** *   API to the default value.
1245:Generated_Source\PSoC5/ADC_DELSIG.c **** *
1246:Generated_Source\PSoC5/ADC_DELSIG.c **** *******************************************************************************/
1247:Generated_Source\PSoC5/ADC_DELSIG.c **** static void ADC_DELSIG_InitConfig(uint8 config) 
1248:Generated_Source\PSoC5/ADC_DELSIG.c **** {
1249:Generated_Source\PSoC5/ADC_DELSIG.c ****     ADC_DELSIG_stopConversion = 0u;
1250:Generated_Source\PSoC5/ADC_DELSIG.c **** 
1251:Generated_Source\PSoC5/ADC_DELSIG.c ****     if (config == 1u)
1252:Generated_Source\PSoC5/ADC_DELSIG.c ****     {
1253:Generated_Source\PSoC5/ADC_DELSIG.c ****         /* Default Config */
1254:Generated_Source\PSoC5/ADC_DELSIG.c ****         ADC_DELSIG_DEC_CR_REG      = ADC_DELSIG_CFG1_DEC_CR;
1255:Generated_Source\PSoC5/ADC_DELSIG.c ****         ADC_DELSIG_DEC_SHIFT1_REG  = ADC_DELSIG_CFG1_DEC_SHIFT1;
1256:Generated_Source\PSoC5/ADC_DELSIG.c ****         ADC_DELSIG_DEC_SHIFT2_REG  = ADC_DELSIG_CFG1_DEC_SHIFT2;
1257:Generated_Source\PSoC5/ADC_DELSIG.c ****         ADC_DELSIG_DEC_DR2_REG     = ADC_DELSIG_CFG1_DEC_DR2;
1258:Generated_Source\PSoC5/ADC_DELSIG.c ****         ADC_DELSIG_DEC_DR2H_REG    = ADC_DELSIG_CFG1_DEC_DR2H;
1259:Generated_Source\PSoC5/ADC_DELSIG.c ****         ADC_DELSIG_DEC_DR1_REG     = ADC_DELSIG_CFG1_DEC_DR1;
1260:Generated_Source\PSoC5/ADC_DELSIG.c ****         ADC_DELSIG_DEC_OCOR_REG    = ADC_DELSIG_CFG1_DEC_OCOR;
1261:Generated_Source\PSoC5/ADC_DELSIG.c ****         ADC_DELSIG_DEC_OCORM_REG   = ADC_DELSIG_CFG1_DEC_OCORM;
1262:Generated_Source\PSoC5/ADC_DELSIG.c ****         ADC_DELSIG_DEC_OCORH_REG   = ADC_DELSIG_CFG1_DEC_OCORH;
1263:Generated_Source\PSoC5/ADC_DELSIG.c ****         ADC_DELSIG_DEC_COHER_REG   = ADC_DELSIG_CFG1_DEC_COHER;
1264:Generated_Source\PSoC5/ADC_DELSIG.c **** 
1265:Generated_Source\PSoC5/ADC_DELSIG.c ****         ADC_DELSIG_DSM_CR4_REG     = ADC_DELSIG_CFG1_DSM_CR4;
1266:Generated_Source\PSoC5/ADC_DELSIG.c ****         ADC_DELSIG_DSM_CR5_REG     = ADC_DELSIG_CFG1_DSM_CR5;
1267:Generated_Source\PSoC5/ADC_DELSIG.c ****         ADC_DELSIG_DSM_CR6_REG     = ADC_DELSIG_CFG1_DSM_CR6;
1268:Generated_Source\PSoC5/ADC_DELSIG.c ****         ADC_DELSIG_DSM_CR7_REG     = ADC_DELSIG_CFG1_DSM_CR7;
1269:Generated_Source\PSoC5/ADC_DELSIG.c ****         ADC_DELSIG_DSM_CR10_REG    = ADC_DELSIG_CFG1_DSM_CR10;
1270:Generated_Source\PSoC5/ADC_DELSIG.c ****         ADC_DELSIG_DSM_CR11_REG    = ADC_DELSIG_CFG1_DSM_CR11;
1271:Generated_Source\PSoC5/ADC_DELSIG.c ****         ADC_DELSIG_DSM_CR12_REG    = ADC_DELSIG_CFG1_DSM_CR12;
1272:Generated_Source\PSoC5/ADC_DELSIG.c ****         ADC_DELSIG_DSM_CR14_REG    = ADC_DELSIG_CFG1_DSM_CR14;
1273:Generated_Source\PSoC5/ADC_DELSIG.c ****         ADC_DELSIG_DSM_CR15_REG    = ADC_DELSIG_CFG1_DSM_CR15;
1274:Generated_Source\PSoC5/ADC_DELSIG.c ****         ADC_DELSIG_DSM_CR16_REG    = ADC_DELSIG_CFG1_DSM_CR16;
1275:Generated_Source\PSoC5/ADC_DELSIG.c ****         ADC_DELSIG_DSM_CR17_REG    = ADC_DELSIG_CFG1_DSM_CR17;
1276:Generated_Source\PSoC5/ADC_DELSIG.c ****         /* Set DSM_REF0_REG by disabling and enabling the PRESS circuit */
1277:Generated_Source\PSoC5/ADC_DELSIG.c ****         ADC_DELSIG_SetDSMRef0Reg(ADC_DELSIG_CFG1_DSM_REF0);
1278:Generated_Source\PSoC5/ADC_DELSIG.c ****         ADC_DELSIG_DSM_REF2_REG    = ADC_DELSIG_CFG1_DSM_REF2;
1279:Generated_Source\PSoC5/ADC_DELSIG.c ****         ADC_DELSIG_DSM_REF3_REG    = ADC_DELSIG_CFG1_DSM_REF3;
1280:Generated_Source\PSoC5/ADC_DELSIG.c **** 
1281:Generated_Source\PSoC5/ADC_DELSIG.c ****         ADC_DELSIG_DSM_BUF0_REG    = ADC_DELSIG_CFG1_DSM_BUF0;
1282:Generated_Source\PSoC5/ADC_DELSIG.c ****         ADC_DELSIG_DSM_BUF1_REG    = ADC_DELSIG_CFG1_DSM_BUF1;
1283:Generated_Source\PSoC5/ADC_DELSIG.c ****         ADC_DELSIG_DSM_BUF2_REG    = ADC_DELSIG_CFG1_DSM_BUF2;
1284:Generated_Source\PSoC5/ADC_DELSIG.c ****         ADC_DELSIG_DSM_BUF3_REG    = ADC_DELSIG_CFG1_DSM_BUF3;
1285:Generated_Source\PSoC5/ADC_DELSIG.c **** 
ARM GAS  C:\Users\Lory\AppData\Local\Temp\ccNUpijZ.s 			page 24


1286:Generated_Source\PSoC5/ADC_DELSIG.c ****         /* To select either Vssa or Vref to -ve input of DSM depending on
1287:Generated_Source\PSoC5/ADC_DELSIG.c ****         *  the input  range selected.
1288:Generated_Source\PSoC5/ADC_DELSIG.c ****         */
1289:Generated_Source\PSoC5/ADC_DELSIG.c ****         #if(ADC_DELSIG_DEFAULT_INPUT_MODE)
1290:Generated_Source\PSoC5/ADC_DELSIG.c ****             #if (ADC_DELSIG_CFG1_INPUT_RANGE == ADC_DELSIG_IR_VSSA_TO_2VREF)
1291:Generated_Source\PSoC5/ADC_DELSIG.c ****                 ADC_DELSIG_AMux_Select(1u);
1292:Generated_Source\PSoC5/ADC_DELSIG.c ****             #else
1293:Generated_Source\PSoC5/ADC_DELSIG.c ****                 ADC_DELSIG_AMux_Select(0u);
1294:Generated_Source\PSoC5/ADC_DELSIG.c ****             #endif /* ADC_DELSIG_IR_VSSA_TO_2VREF) */
1295:Generated_Source\PSoC5/ADC_DELSIG.c ****         #endif /* ADC_DELSIG_DEFAULT_INPUT_MODE */
1296:Generated_Source\PSoC5/ADC_DELSIG.c **** 
1297:Generated_Source\PSoC5/ADC_DELSIG.c ****         /* Set the Conversion stop if resolution is above 16 bit and conversion
1298:Generated_Source\PSoC5/ADC_DELSIG.c ****         *   mode is Single sample
1299:Generated_Source\PSoC5/ADC_DELSIG.c ****         */
1300:Generated_Source\PSoC5/ADC_DELSIG.c ****         #if(ADC_DELSIG_CFG1_RESOLUTION > 16 && \
1301:Generated_Source\PSoC5/ADC_DELSIG.c ****             ADC_DELSIG_CFG1_CONV_MODE == ADC_DELSIG_MODE_SINGLE_SAMPLE)
1302:Generated_Source\PSoC5/ADC_DELSIG.c ****             ADC_DELSIG_stopConversion = 1u;
1303:Generated_Source\PSoC5/ADC_DELSIG.c ****         #endif /* Single sample with resolution above 16 bits. */
1304:Generated_Source\PSoC5/ADC_DELSIG.c **** 
1305:Generated_Source\PSoC5/ADC_DELSIG.c ****         ADC_DELSIG_CountsPerVolt = (int32)ADC_DELSIG_CFG1_COUNTS_PER_VOLT;
1306:Generated_Source\PSoC5/ADC_DELSIG.c **** 
1307:Generated_Source\PSoC5/ADC_DELSIG.c ****         ADC_DELSIG_Ext_CP_Clk_SetDividerRegister(ADC_DELSIG_CFG1_CP_CLK_DIVIDER, 1u);
1308:Generated_Source\PSoC5/ADC_DELSIG.c **** 
1309:Generated_Source\PSoC5/ADC_DELSIG.c ****         /* This is only valid if there is an internal clock */
1310:Generated_Source\PSoC5/ADC_DELSIG.c ****         #if(ADC_DELSIG_DEFAULT_INTERNAL_CLK)
1311:Generated_Source\PSoC5/ADC_DELSIG.c ****             ADC_DELSIG_theACLK_SetDividerRegister(ADC_DELSIG_CFG1_ADC_CLK_DIVIDER, 1u);
1312:Generated_Source\PSoC5/ADC_DELSIG.c ****         #endif /* ADC_DELSIG_DEFAULT_INTERNAL_CLK */
1313:Generated_Source\PSoC5/ADC_DELSIG.c **** 
1314:Generated_Source\PSoC5/ADC_DELSIG.c ****         #if(ADC_DELSIG_IRQ_REMOVE == 0u)
1315:Generated_Source\PSoC5/ADC_DELSIG.c ****             /* Set interrupt vector */
1316:Generated_Source\PSoC5/ADC_DELSIG.c ****             (void)CyIntSetVector(ADC_DELSIG_INTC_NUMBER, &ADC_DELSIG_ISR1);
1317:Generated_Source\PSoC5/ADC_DELSIG.c ****         #endif   /* End ADC_DELSIG_IRQ_REMOVE */
1318:Generated_Source\PSoC5/ADC_DELSIG.c ****     }
1319:Generated_Source\PSoC5/ADC_DELSIG.c **** 
1320:Generated_Source\PSoC5/ADC_DELSIG.c ****     #if(ADC_DELSIG_DEFAULT_NUM_CONFIGS > 1)
1321:Generated_Source\PSoC5/ADC_DELSIG.c ****         if(config == 2u)
1322:Generated_Source\PSoC5/ADC_DELSIG.c ****         {
1323:Generated_Source\PSoC5/ADC_DELSIG.c ****             /* Second Config */
1324:Generated_Source\PSoC5/ADC_DELSIG.c ****             ADC_DELSIG_DEC_CR_REG      = ADC_DELSIG_CFG2_DEC_CR;
1325:Generated_Source\PSoC5/ADC_DELSIG.c ****             ADC_DELSIG_DEC_SHIFT1_REG  = ADC_DELSIG_CFG2_DEC_SHIFT1;
1326:Generated_Source\PSoC5/ADC_DELSIG.c ****             ADC_DELSIG_DEC_SHIFT2_REG  = ADC_DELSIG_CFG2_DEC_SHIFT2;
1327:Generated_Source\PSoC5/ADC_DELSIG.c ****             ADC_DELSIG_DEC_DR2_REG     = ADC_DELSIG_CFG2_DEC_DR2;
1328:Generated_Source\PSoC5/ADC_DELSIG.c ****             ADC_DELSIG_DEC_DR2H_REG    = ADC_DELSIG_CFG2_DEC_DR2H;
1329:Generated_Source\PSoC5/ADC_DELSIG.c ****             ADC_DELSIG_DEC_DR1_REG     = ADC_DELSIG_CFG2_DEC_DR1;
1330:Generated_Source\PSoC5/ADC_DELSIG.c ****             ADC_DELSIG_DEC_OCOR_REG    = ADC_DELSIG_CFG2_DEC_OCOR;
1331:Generated_Source\PSoC5/ADC_DELSIG.c ****             ADC_DELSIG_DEC_OCORM_REG   = ADC_DELSIG_CFG2_DEC_OCORM;
1332:Generated_Source\PSoC5/ADC_DELSIG.c ****             ADC_DELSIG_DEC_OCORH_REG   = ADC_DELSIG_CFG2_DEC_OCORH;
1333:Generated_Source\PSoC5/ADC_DELSIG.c ****             ADC_DELSIG_DEC_COHER_REG   = ADC_DELSIG_CFG2_DEC_COHER;
1334:Generated_Source\PSoC5/ADC_DELSIG.c **** 
1335:Generated_Source\PSoC5/ADC_DELSIG.c ****             ADC_DELSIG_DSM_CR4_REG     = ADC_DELSIG_CFG2_DSM_CR4;
1336:Generated_Source\PSoC5/ADC_DELSIG.c ****             ADC_DELSIG_DSM_CR5_REG     = ADC_DELSIG_CFG2_DSM_CR5;
1337:Generated_Source\PSoC5/ADC_DELSIG.c ****             ADC_DELSIG_DSM_CR6_REG     = ADC_DELSIG_CFG2_DSM_CR6;
1338:Generated_Source\PSoC5/ADC_DELSIG.c ****             ADC_DELSIG_DSM_CR7_REG     = ADC_DELSIG_CFG2_DSM_CR7;
1339:Generated_Source\PSoC5/ADC_DELSIG.c ****             ADC_DELSIG_DSM_CR10_REG    = ADC_DELSIG_CFG2_DSM_CR10;
1340:Generated_Source\PSoC5/ADC_DELSIG.c ****             ADC_DELSIG_DSM_CR11_REG    = ADC_DELSIG_CFG2_DSM_CR11;
1341:Generated_Source\PSoC5/ADC_DELSIG.c ****             ADC_DELSIG_DSM_CR12_REG    = ADC_DELSIG_CFG2_DSM_CR12;
1342:Generated_Source\PSoC5/ADC_DELSIG.c ****             ADC_DELSIG_DSM_CR14_REG    = ADC_DELSIG_CFG2_DSM_CR14;
ARM GAS  C:\Users\Lory\AppData\Local\Temp\ccNUpijZ.s 			page 25


1343:Generated_Source\PSoC5/ADC_DELSIG.c ****             ADC_DELSIG_DSM_CR15_REG    = ADC_DELSIG_CFG2_DSM_CR15;
1344:Generated_Source\PSoC5/ADC_DELSIG.c ****             ADC_DELSIG_DSM_CR16_REG    = ADC_DELSIG_CFG2_DSM_CR16;
1345:Generated_Source\PSoC5/ADC_DELSIG.c ****             ADC_DELSIG_DSM_CR17_REG    = ADC_DELSIG_CFG2_DSM_CR17;
1346:Generated_Source\PSoC5/ADC_DELSIG.c ****             /* Set DSM_REF0_REG by disabling and enabling the PRESS cirucit */
1347:Generated_Source\PSoC5/ADC_DELSIG.c ****             ADC_DELSIG_SetDSMRef0Reg(ADC_DELSIG_CFG2_DSM_REF0);
1348:Generated_Source\PSoC5/ADC_DELSIG.c ****             ADC_DELSIG_DSM_REF2_REG    = ADC_DELSIG_CFG2_DSM_REF2;
1349:Generated_Source\PSoC5/ADC_DELSIG.c ****             ADC_DELSIG_DSM_REF3_REG    = ADC_DELSIG_CFG2_DSM_REF3;
1350:Generated_Source\PSoC5/ADC_DELSIG.c **** 
1351:Generated_Source\PSoC5/ADC_DELSIG.c ****             ADC_DELSIG_DSM_BUF0_REG    = ADC_DELSIG_CFG2_DSM_BUF0;
1352:Generated_Source\PSoC5/ADC_DELSIG.c ****             ADC_DELSIG_DSM_BUF1_REG    = ADC_DELSIG_CFG2_DSM_BUF1;
1353:Generated_Source\PSoC5/ADC_DELSIG.c ****             ADC_DELSIG_DSM_BUF2_REG    = ADC_DELSIG_CFG2_DSM_BUF2;
1354:Generated_Source\PSoC5/ADC_DELSIG.c ****             ADC_DELSIG_DSM_BUF3_REG    = ADC_DELSIG_CFG2_DSM_BUF3;
1355:Generated_Source\PSoC5/ADC_DELSIG.c **** 
1356:Generated_Source\PSoC5/ADC_DELSIG.c ****             /* To select either Vssa or Vref to -ve input of DSM depending on
1357:Generated_Source\PSoC5/ADC_DELSIG.c ****             *  the input range selected.
1358:Generated_Source\PSoC5/ADC_DELSIG.c ****             */
1359:Generated_Source\PSoC5/ADC_DELSIG.c **** 
1360:Generated_Source\PSoC5/ADC_DELSIG.c ****             #if(ADC_DELSIG_DEFAULT_INPUT_MODE)
1361:Generated_Source\PSoC5/ADC_DELSIG.c ****                 #if (ADC_DELSIG_CFG2_INPUT_RANGE == ADC_DELSIG_IR_VSSA_TO_2VREF)
1362:Generated_Source\PSoC5/ADC_DELSIG.c ****                     ADC_DELSIG_AMux_Select(1u);
1363:Generated_Source\PSoC5/ADC_DELSIG.c ****                 #else
1364:Generated_Source\PSoC5/ADC_DELSIG.c ****                     ADC_DELSIG_AMux_Select(0u);
1365:Generated_Source\PSoC5/ADC_DELSIG.c ****                 #endif /* ADC_DELSIG_IR_VSSA_TO_2VREF) */
1366:Generated_Source\PSoC5/ADC_DELSIG.c ****             #endif /* ADC_DELSIG_DEFAULT_INPUT_MODE */
1367:Generated_Source\PSoC5/ADC_DELSIG.c **** 
1368:Generated_Source\PSoC5/ADC_DELSIG.c ****             /* Set the Conversion stop if resolution is above 16 bit and
1369:Generated_Source\PSoC5/ADC_DELSIG.c ****             *   conversion mode is Single sample
1370:Generated_Source\PSoC5/ADC_DELSIG.c ****             */
1371:Generated_Source\PSoC5/ADC_DELSIG.c ****             #if(ADC_DELSIG_CFG2_RESOLUTION > 16 && \
1372:Generated_Source\PSoC5/ADC_DELSIG.c ****                 ADC_DELSIG_CFG2_CONV_MODE == ADC_DELSIG_MODE_SINGLE_SAMPLE)
1373:Generated_Source\PSoC5/ADC_DELSIG.c ****                 ADC_DELSIG_stopConversion = 1u;
1374:Generated_Source\PSoC5/ADC_DELSIG.c ****             #endif /* Single sample with resolution above 16 bits. */
1375:Generated_Source\PSoC5/ADC_DELSIG.c **** 
1376:Generated_Source\PSoC5/ADC_DELSIG.c ****             ADC_DELSIG_CountsPerVolt = (int32)ADC_DELSIG_CFG2_COUNTS_PER_VOLT;
1377:Generated_Source\PSoC5/ADC_DELSIG.c **** 
1378:Generated_Source\PSoC5/ADC_DELSIG.c ****             ADC_DELSIG_Ext_CP_Clk_SetDividerRegister(ADC_DELSIG_CFG2_CP_CLK_DIVIDER, 1u);
1379:Generated_Source\PSoC5/ADC_DELSIG.c **** 
1380:Generated_Source\PSoC5/ADC_DELSIG.c ****             /* This is only valid if there is an internal clock */
1381:Generated_Source\PSoC5/ADC_DELSIG.c ****             #if(ADC_DELSIG_DEFAULT_INTERNAL_CLK)
1382:Generated_Source\PSoC5/ADC_DELSIG.c ****                 ADC_DELSIG_theACLK_SetDividerRegister(ADC_DELSIG_CFG2_ADC_CLK_DIVIDER, 1u);
1383:Generated_Source\PSoC5/ADC_DELSIG.c ****             #endif /* ADC_DELSIG_DEFAULT_INTERNAL_CLK */
1384:Generated_Source\PSoC5/ADC_DELSIG.c **** 
1385:Generated_Source\PSoC5/ADC_DELSIG.c ****             #if(ADC_DELSIG_IRQ_REMOVE == 0u)
1386:Generated_Source\PSoC5/ADC_DELSIG.c ****                 /* Set interrupt vector */
1387:Generated_Source\PSoC5/ADC_DELSIG.c ****                 (void)CyIntSetVector(ADC_DELSIG_INTC_NUMBER, &ADC_DELSIG_ISR2);
1388:Generated_Source\PSoC5/ADC_DELSIG.c ****             #endif   /* End ADC_DELSIG_IRQ_REMOVE */
1389:Generated_Source\PSoC5/ADC_DELSIG.c ****         }
1390:Generated_Source\PSoC5/ADC_DELSIG.c ****     #endif /* ADC_DELSIG_DEFAULT_NUM_CONFIGS > 1 */
1391:Generated_Source\PSoC5/ADC_DELSIG.c **** 
1392:Generated_Source\PSoC5/ADC_DELSIG.c ****     #if(ADC_DELSIG_DEFAULT_NUM_CONFIGS > 2)
1393:Generated_Source\PSoC5/ADC_DELSIG.c ****         if(config == 3u)
1394:Generated_Source\PSoC5/ADC_DELSIG.c ****         {
1395:Generated_Source\PSoC5/ADC_DELSIG.c ****             /* Third Config */
1396:Generated_Source\PSoC5/ADC_DELSIG.c ****             ADC_DELSIG_DEC_CR_REG      = ADC_DELSIG_CFG3_DEC_CR;
1397:Generated_Source\PSoC5/ADC_DELSIG.c ****             ADC_DELSIG_DEC_SHIFT1_REG  = ADC_DELSIG_CFG3_DEC_SHIFT1;
1398:Generated_Source\PSoC5/ADC_DELSIG.c ****             ADC_DELSIG_DEC_SHIFT2_REG  = ADC_DELSIG_CFG3_DEC_SHIFT2;
1399:Generated_Source\PSoC5/ADC_DELSIG.c ****             ADC_DELSIG_DEC_DR2_REG     = ADC_DELSIG_CFG3_DEC_DR2;
ARM GAS  C:\Users\Lory\AppData\Local\Temp\ccNUpijZ.s 			page 26


1400:Generated_Source\PSoC5/ADC_DELSIG.c ****             ADC_DELSIG_DEC_DR2H_REG    = ADC_DELSIG_CFG3_DEC_DR2H;
1401:Generated_Source\PSoC5/ADC_DELSIG.c ****             ADC_DELSIG_DEC_DR1_REG     = ADC_DELSIG_CFG3_DEC_DR1;
1402:Generated_Source\PSoC5/ADC_DELSIG.c ****             ADC_DELSIG_DEC_OCOR_REG    = ADC_DELSIG_CFG3_DEC_OCOR;
1403:Generated_Source\PSoC5/ADC_DELSIG.c ****             ADC_DELSIG_DEC_OCORM_REG   = ADC_DELSIG_CFG3_DEC_OCORM;
1404:Generated_Source\PSoC5/ADC_DELSIG.c ****             ADC_DELSIG_DEC_OCORH_REG   = ADC_DELSIG_CFG3_DEC_OCORH;
1405:Generated_Source\PSoC5/ADC_DELSIG.c ****             ADC_DELSIG_DEC_COHER_REG   = ADC_DELSIG_CFG3_DEC_COHER;
1406:Generated_Source\PSoC5/ADC_DELSIG.c **** 
1407:Generated_Source\PSoC5/ADC_DELSIG.c ****             ADC_DELSIG_DSM_CR4_REG     = ADC_DELSIG_CFG3_DSM_CR4;
1408:Generated_Source\PSoC5/ADC_DELSIG.c ****             ADC_DELSIG_DSM_CR5_REG     = ADC_DELSIG_CFG3_DSM_CR5;
1409:Generated_Source\PSoC5/ADC_DELSIG.c ****             ADC_DELSIG_DSM_CR6_REG     = ADC_DELSIG_CFG3_DSM_CR6;
1410:Generated_Source\PSoC5/ADC_DELSIG.c ****             ADC_DELSIG_DSM_CR7_REG     = ADC_DELSIG_CFG3_DSM_CR7;
1411:Generated_Source\PSoC5/ADC_DELSIG.c ****             ADC_DELSIG_DSM_CR10_REG    = ADC_DELSIG_CFG3_DSM_CR10;
1412:Generated_Source\PSoC5/ADC_DELSIG.c ****             ADC_DELSIG_DSM_CR11_REG    = ADC_DELSIG_CFG3_DSM_CR11;
1413:Generated_Source\PSoC5/ADC_DELSIG.c ****             ADC_DELSIG_DSM_CR12_REG    = ADC_DELSIG_CFG3_DSM_CR12;
1414:Generated_Source\PSoC5/ADC_DELSIG.c ****             ADC_DELSIG_DSM_CR14_REG    = ADC_DELSIG_CFG3_DSM_CR14;
1415:Generated_Source\PSoC5/ADC_DELSIG.c ****             ADC_DELSIG_DSM_CR15_REG    = ADC_DELSIG_CFG3_DSM_CR15;
1416:Generated_Source\PSoC5/ADC_DELSIG.c ****             ADC_DELSIG_DSM_CR16_REG    = ADC_DELSIG_CFG3_DSM_CR16;
1417:Generated_Source\PSoC5/ADC_DELSIG.c ****             ADC_DELSIG_DSM_CR17_REG    = ADC_DELSIG_CFG3_DSM_CR17;
1418:Generated_Source\PSoC5/ADC_DELSIG.c ****             /* Set DSM_REF0_REG by disabling and enabling the PRESS circuit */
1419:Generated_Source\PSoC5/ADC_DELSIG.c ****             ADC_DELSIG_SetDSMRef0Reg(ADC_DELSIG_CFG3_DSM_REF0);
1420:Generated_Source\PSoC5/ADC_DELSIG.c ****             ADC_DELSIG_DSM_REF2_REG    = ADC_DELSIG_CFG3_DSM_REF2;
1421:Generated_Source\PSoC5/ADC_DELSIG.c ****             ADC_DELSIG_DSM_REF3_REG    = ADC_DELSIG_CFG3_DSM_REF3;
1422:Generated_Source\PSoC5/ADC_DELSIG.c **** 
1423:Generated_Source\PSoC5/ADC_DELSIG.c ****             ADC_DELSIG_DSM_BUF0_REG    = ADC_DELSIG_CFG3_DSM_BUF0;
1424:Generated_Source\PSoC5/ADC_DELSIG.c ****             ADC_DELSIG_DSM_BUF1_REG    = ADC_DELSIG_CFG3_DSM_BUF1;
1425:Generated_Source\PSoC5/ADC_DELSIG.c ****             ADC_DELSIG_DSM_BUF2_REG    = ADC_DELSIG_CFG3_DSM_BUF2;
1426:Generated_Source\PSoC5/ADC_DELSIG.c ****             ADC_DELSIG_DSM_BUF3_REG    = ADC_DELSIG_CFG3_DSM_BUF3;
1427:Generated_Source\PSoC5/ADC_DELSIG.c **** 
1428:Generated_Source\PSoC5/ADC_DELSIG.c ****             /* To select either Vssa or Vref to -ve input of DSM depending on
1429:Generated_Source\PSoC5/ADC_DELSIG.c ****             *  the input range selected.
1430:Generated_Source\PSoC5/ADC_DELSIG.c ****             */
1431:Generated_Source\PSoC5/ADC_DELSIG.c ****             #if(ADC_DELSIG_DEFAULT_INPUT_MODE)
1432:Generated_Source\PSoC5/ADC_DELSIG.c ****                 #if (ADC_DELSIG_CFG3_INPUT_RANGE == ADC_DELSIG_IR_VSSA_TO_2VREF)
1433:Generated_Source\PSoC5/ADC_DELSIG.c ****                     ADC_DELSIG_AMux_Select(1u);
1434:Generated_Source\PSoC5/ADC_DELSIG.c ****                 #else
1435:Generated_Source\PSoC5/ADC_DELSIG.c ****                     ADC_DELSIG_AMux_Select(0u);
1436:Generated_Source\PSoC5/ADC_DELSIG.c ****                 #endif /* ADC_DELSIG_IR_VSSA_TO_2VREF) */
1437:Generated_Source\PSoC5/ADC_DELSIG.c ****             #endif /* ADC_DELSIG_DEFAULT_INPUT_MODE */
1438:Generated_Source\PSoC5/ADC_DELSIG.c **** 
1439:Generated_Source\PSoC5/ADC_DELSIG.c ****             /* Set the Conversion stop if resolution is above 16 bit and
1440:Generated_Source\PSoC5/ADC_DELSIG.c ****                conversion  mode is Single sample */
1441:Generated_Source\PSoC5/ADC_DELSIG.c ****             #if(ADC_DELSIG_CFG3_RESOLUTION > 16 && \
1442:Generated_Source\PSoC5/ADC_DELSIG.c ****                 ADC_DELSIG_CFG3_CONV_MODE == ADC_DELSIG_MODE_SINGLE_SAMPLE)
1443:Generated_Source\PSoC5/ADC_DELSIG.c ****                 ADC_DELSIG_stopConversion = 1u;
1444:Generated_Source\PSoC5/ADC_DELSIG.c ****             #endif /* Single sample with resolution above 16 bits */
1445:Generated_Source\PSoC5/ADC_DELSIG.c **** 
1446:Generated_Source\PSoC5/ADC_DELSIG.c ****             ADC_DELSIG_CountsPerVolt = (int32)ADC_DELSIG_CFG3_COUNTS_PER_VOLT;
1447:Generated_Source\PSoC5/ADC_DELSIG.c **** 
1448:Generated_Source\PSoC5/ADC_DELSIG.c ****             ADC_DELSIG_Ext_CP_Clk_SetDividerRegister(ADC_DELSIG_CFG3_CP_CLK_DIVIDER, 1u);
1449:Generated_Source\PSoC5/ADC_DELSIG.c **** 
1450:Generated_Source\PSoC5/ADC_DELSIG.c ****             /* This is only valid if there is an internal clock */
1451:Generated_Source\PSoC5/ADC_DELSIG.c ****             #if(ADC_DELSIG_DEFAULT_INTERNAL_CLK)
1452:Generated_Source\PSoC5/ADC_DELSIG.c ****                 ADC_DELSIG_theACLK_SetDividerRegister(ADC_DELSIG_CFG3_ADC_CLK_DIVIDER, 1u);
1453:Generated_Source\PSoC5/ADC_DELSIG.c ****             #endif /* ADC_DELSIG_DEFAULT_INTERNAL_CLK */
1454:Generated_Source\PSoC5/ADC_DELSIG.c **** 
1455:Generated_Source\PSoC5/ADC_DELSIG.c ****             #if(ADC_DELSIG_IRQ_REMOVE == 0u)
1456:Generated_Source\PSoC5/ADC_DELSIG.c ****                 /* Set interrupt vector */
ARM GAS  C:\Users\Lory\AppData\Local\Temp\ccNUpijZ.s 			page 27


1457:Generated_Source\PSoC5/ADC_DELSIG.c ****                 (void)CyIntSetVector(ADC_DELSIG_INTC_NUMBER, &ADC_DELSIG_ISR3);
1458:Generated_Source\PSoC5/ADC_DELSIG.c ****             #endif   /* End ADC_DELSIG_IRQ_REMOVE */
1459:Generated_Source\PSoC5/ADC_DELSIG.c ****         }
1460:Generated_Source\PSoC5/ADC_DELSIG.c ****     #endif /* ADC_DELSIG_DEFAULT_NUM_CONFIGS > 2 */
1461:Generated_Source\PSoC5/ADC_DELSIG.c **** 
1462:Generated_Source\PSoC5/ADC_DELSIG.c ****     #if(ADC_DELSIG_DEFAULT_NUM_CONFIGS > 3)
1463:Generated_Source\PSoC5/ADC_DELSIG.c ****         if (config == 4u)
1464:Generated_Source\PSoC5/ADC_DELSIG.c ****         {
1465:Generated_Source\PSoC5/ADC_DELSIG.c ****             /* Fourth Config */
1466:Generated_Source\PSoC5/ADC_DELSIG.c ****             ADC_DELSIG_DEC_CR_REG      = ADC_DELSIG_CFG4_DEC_CR;
1467:Generated_Source\PSoC5/ADC_DELSIG.c ****             ADC_DELSIG_DEC_SHIFT1_REG  = ADC_DELSIG_CFG4_DEC_SHIFT1;
1468:Generated_Source\PSoC5/ADC_DELSIG.c ****             ADC_DELSIG_DEC_SHIFT2_REG  = ADC_DELSIG_CFG4_DEC_SHIFT2;
1469:Generated_Source\PSoC5/ADC_DELSIG.c ****             ADC_DELSIG_DEC_DR2_REG     = ADC_DELSIG_CFG4_DEC_DR2;
1470:Generated_Source\PSoC5/ADC_DELSIG.c ****             ADC_DELSIG_DEC_DR2H_REG    = ADC_DELSIG_CFG4_DEC_DR2H;
1471:Generated_Source\PSoC5/ADC_DELSIG.c ****             ADC_DELSIG_DEC_DR1_REG     = ADC_DELSIG_CFG4_DEC_DR1;
1472:Generated_Source\PSoC5/ADC_DELSIG.c ****             ADC_DELSIG_DEC_OCOR_REG    = ADC_DELSIG_CFG4_DEC_OCOR;
1473:Generated_Source\PSoC5/ADC_DELSIG.c ****             ADC_DELSIG_DEC_OCORM_REG   = ADC_DELSIG_CFG4_DEC_OCORM;
1474:Generated_Source\PSoC5/ADC_DELSIG.c ****             ADC_DELSIG_DEC_OCORH_REG   = ADC_DELSIG_CFG4_DEC_OCORH;
1475:Generated_Source\PSoC5/ADC_DELSIG.c ****             ADC_DELSIG_DEC_COHER_REG   = ADC_DELSIG_CFG4_DEC_COHER;
1476:Generated_Source\PSoC5/ADC_DELSIG.c **** 
1477:Generated_Source\PSoC5/ADC_DELSIG.c ****             ADC_DELSIG_DSM_CR4_REG     = ADC_DELSIG_CFG4_DSM_CR4;
1478:Generated_Source\PSoC5/ADC_DELSIG.c ****             ADC_DELSIG_DSM_CR5_REG     = ADC_DELSIG_CFG4_DSM_CR5;
1479:Generated_Source\PSoC5/ADC_DELSIG.c ****             ADC_DELSIG_DSM_CR6_REG     = ADC_DELSIG_CFG4_DSM_CR6;
1480:Generated_Source\PSoC5/ADC_DELSIG.c ****             ADC_DELSIG_DSM_CR7_REG     = ADC_DELSIG_CFG4_DSM_CR7;
1481:Generated_Source\PSoC5/ADC_DELSIG.c ****             ADC_DELSIG_DSM_CR10_REG    = ADC_DELSIG_CFG4_DSM_CR10;
1482:Generated_Source\PSoC5/ADC_DELSIG.c ****             ADC_DELSIG_DSM_CR11_REG    = ADC_DELSIG_CFG4_DSM_CR11;
1483:Generated_Source\PSoC5/ADC_DELSIG.c ****             ADC_DELSIG_DSM_CR12_REG    = ADC_DELSIG_CFG4_DSM_CR12;
1484:Generated_Source\PSoC5/ADC_DELSIG.c ****             ADC_DELSIG_DSM_CR14_REG    = ADC_DELSIG_CFG4_DSM_CR14;
1485:Generated_Source\PSoC5/ADC_DELSIG.c ****             ADC_DELSIG_DSM_CR15_REG    = ADC_DELSIG_CFG4_DSM_CR15;
1486:Generated_Source\PSoC5/ADC_DELSIG.c ****             ADC_DELSIG_DSM_CR16_REG    = ADC_DELSIG_CFG4_DSM_CR16;
1487:Generated_Source\PSoC5/ADC_DELSIG.c ****             ADC_DELSIG_DSM_CR17_REG    = ADC_DELSIG_CFG4_DSM_CR17;
1488:Generated_Source\PSoC5/ADC_DELSIG.c ****             /* Set DSM_REF0_REG by disabling and enabling the PRESS circuit */
1489:Generated_Source\PSoC5/ADC_DELSIG.c ****             ADC_DELSIG_SetDSMRef0Reg(ADC_DELSIG_CFG4_DSM_REF0);
1490:Generated_Source\PSoC5/ADC_DELSIG.c ****             ADC_DELSIG_DSM_REF2_REG    = ADC_DELSIG_CFG4_DSM_REF2;
1491:Generated_Source\PSoC5/ADC_DELSIG.c ****             ADC_DELSIG_DSM_REF3_REG    = ADC_DELSIG_CFG4_DSM_REF3;
1492:Generated_Source\PSoC5/ADC_DELSIG.c **** 
1493:Generated_Source\PSoC5/ADC_DELSIG.c ****             ADC_DELSIG_DSM_BUF0_REG    = ADC_DELSIG_CFG4_DSM_BUF0;
1494:Generated_Source\PSoC5/ADC_DELSIG.c ****             ADC_DELSIG_DSM_BUF1_REG    = ADC_DELSIG_CFG4_DSM_BUF1;
1495:Generated_Source\PSoC5/ADC_DELSIG.c ****             ADC_DELSIG_DSM_BUF2_REG    = ADC_DELSIG_CFG4_DSM_BUF2;
1496:Generated_Source\PSoC5/ADC_DELSIG.c ****             ADC_DELSIG_DSM_BUF3_REG    = ADC_DELSIG_CFG4_DSM_BUF3;
1497:Generated_Source\PSoC5/ADC_DELSIG.c **** 
1498:Generated_Source\PSoC5/ADC_DELSIG.c ****             /* To select either Vssa or Vref to -ve input of DSM depending on
1499:Generated_Source\PSoC5/ADC_DELSIG.c ****             *  the input range selected.
1500:Generated_Source\PSoC5/ADC_DELSIG.c ****             */
1501:Generated_Source\PSoC5/ADC_DELSIG.c ****             #if(ADC_DELSIG_DEFAULT_INPUT_MODE)
1502:Generated_Source\PSoC5/ADC_DELSIG.c ****                 #if (ADC_DELSIG_CFG4_INPUT_RANGE == ADC_DELSIG_IR_VSSA_TO_2VREF)
1503:Generated_Source\PSoC5/ADC_DELSIG.c ****                     ADC_DELSIG_AMux_Select(1u);
1504:Generated_Source\PSoC5/ADC_DELSIG.c ****                 #else
1505:Generated_Source\PSoC5/ADC_DELSIG.c ****                     ADC_DELSIG_AMux_Select(0u);
1506:Generated_Source\PSoC5/ADC_DELSIG.c ****                 #endif /* ADC_DELSIG_IR_VSSA_TO_2VREF) */
1507:Generated_Source\PSoC5/ADC_DELSIG.c ****             #endif /* ADC_DELSIG_DEFAULT_INPUT_MODE */
1508:Generated_Source\PSoC5/ADC_DELSIG.c **** 
1509:Generated_Source\PSoC5/ADC_DELSIG.c ****             /* Set the Conversion stop if resolution is above 16 bit and
1510:Generated_Source\PSoC5/ADC_DELSIG.c ****                conversion mode is Single sample */
1511:Generated_Source\PSoC5/ADC_DELSIG.c ****             #if(ADC_DELSIG_CFG4_RESOLUTION > 16 && \
1512:Generated_Source\PSoC5/ADC_DELSIG.c ****                 ADC_DELSIG_CFG4_CONV_MODE == ADC_DELSIG_MODE_SINGLE_SAMPLE)
1513:Generated_Source\PSoC5/ADC_DELSIG.c ****                 ADC_DELSIG_stopConversion = 1u;
ARM GAS  C:\Users\Lory\AppData\Local\Temp\ccNUpijZ.s 			page 28


1514:Generated_Source\PSoC5/ADC_DELSIG.c ****             #endif /* Single sample with resolution above 16 bits */
1515:Generated_Source\PSoC5/ADC_DELSIG.c **** 
1516:Generated_Source\PSoC5/ADC_DELSIG.c ****             ADC_DELSIG_CountsPerVolt = (int32)ADC_DELSIG_CFG4_COUNTS_PER_VOLT;
1517:Generated_Source\PSoC5/ADC_DELSIG.c **** 
1518:Generated_Source\PSoC5/ADC_DELSIG.c ****             ADC_DELSIG_Ext_CP_Clk_SetDividerRegister(ADC_DELSIG_CFG4_CP_CLK_DIVIDER, 1u);
1519:Generated_Source\PSoC5/ADC_DELSIG.c **** 
1520:Generated_Source\PSoC5/ADC_DELSIG.c ****             /* This is only valid if there is an internal clock */
1521:Generated_Source\PSoC5/ADC_DELSIG.c ****             #if(ADC_DELSIG_DEFAULT_INTERNAL_CLK)
1522:Generated_Source\PSoC5/ADC_DELSIG.c ****                 ADC_DELSIG_theACLK_SetDividerRegister(ADC_DELSIG_CFG4_ADC_CLK_DIVIDER, 1u);
1523:Generated_Source\PSoC5/ADC_DELSIG.c ****             #endif /* ADC_DELSIG_DEFAULT_INTERNAL_CLK */
1524:Generated_Source\PSoC5/ADC_DELSIG.c **** 
1525:Generated_Source\PSoC5/ADC_DELSIG.c ****             #if(ADC_DELSIG_IRQ_REMOVE == 0u)
1526:Generated_Source\PSoC5/ADC_DELSIG.c ****                 /* Set interrupt vector */
1527:Generated_Source\PSoC5/ADC_DELSIG.c ****                 (void)CyIntSetVector(ADC_DELSIG_INTC_NUMBER, &ADC_DELSIG_ISR4);
1528:Generated_Source\PSoC5/ADC_DELSIG.c ****             #endif   /* End ADC_DELSIG_IRQ_REMOVE */
1529:Generated_Source\PSoC5/ADC_DELSIG.c ****         }
1530:Generated_Source\PSoC5/ADC_DELSIG.c ****     #endif /* ADC_DELSIG_DEFAULT_NUM_CONFIGS > 3 */
1531:Generated_Source\PSoC5/ADC_DELSIG.c **** }
1532:Generated_Source\PSoC5/ADC_DELSIG.c **** 
1533:Generated_Source\PSoC5/ADC_DELSIG.c **** 
1534:Generated_Source\PSoC5/ADC_DELSIG.c **** /*******************************************************************************
1535:Generated_Source\PSoC5/ADC_DELSIG.c **** * Function Name: ADC_DELSIG_SelectCofiguration
1536:Generated_Source\PSoC5/ADC_DELSIG.c **** ********************************************************************************
1537:Generated_Source\PSoC5/ADC_DELSIG.c **** *
1538:Generated_Source\PSoC5/ADC_DELSIG.c **** * Summary:
1539:Generated_Source\PSoC5/ADC_DELSIG.c **** *  Sets one of up to four ADC configurations. Before setting the new
1540:Generated_Source\PSoC5/ADC_DELSIG.c **** *  configuration, the ADC is stopped and powered down. After setting
1541:Generated_Source\PSoC5/ADC_DELSIG.c **** *  the new configuration, the ADC can be powered and conversion
1542:Generated_Source\PSoC5/ADC_DELSIG.c **** *  can be restarted depending up on the value of second parameter
1543:Generated_Source\PSoC5/ADC_DELSIG.c **** *  restart. If the value of this parameter is 1, then ADC will be
1544:Generated_Source\PSoC5/ADC_DELSIG.c **** *  restarted. If this value is zero, then user must call ADC_DELSIG_Start
1545:Generated_Source\PSoC5/ADC_DELSIG.c **** *  and ADC_DELSIG_StartConvert() to restart the conversion.
1546:Generated_Source\PSoC5/ADC_DELSIG.c **** *
1547:Generated_Source\PSoC5/ADC_DELSIG.c **** * Parameters:
1548:Generated_Source\PSoC5/ADC_DELSIG.c **** *  config:  configuration user wants to select.
1549:Generated_Source\PSoC5/ADC_DELSIG.c **** *           Valid range: 1..4
1550:Generated_Source\PSoC5/ADC_DELSIG.c **** *  restart:  Restart option. 1 means start the ADC and restart the conversion.
1551:Generated_Source\PSoC5/ADC_DELSIG.c **** *                            0 means do not start the ADC and conversion.
1552:Generated_Source\PSoC5/ADC_DELSIG.c **** *
1553:Generated_Source\PSoC5/ADC_DELSIG.c **** * Return:
1554:Generated_Source\PSoC5/ADC_DELSIG.c **** *  None
1555:Generated_Source\PSoC5/ADC_DELSIG.c **** *
1556:Generated_Source\PSoC5/ADC_DELSIG.c **** * Side Effects: 
1557:Generated_Source\PSoC5/ADC_DELSIG.c **** *  Enables internal interrupt.
1558:Generated_Source\PSoC5/ADC_DELSIG.c **** *
1559:Generated_Source\PSoC5/ADC_DELSIG.c **** *******************************************************************************/
1560:Generated_Source\PSoC5/ADC_DELSIG.c **** void ADC_DELSIG_SelectConfiguration(uint8 config, uint8 restart)
1561:Generated_Source\PSoC5/ADC_DELSIG.c ****                                               
1562:Generated_Source\PSoC5/ADC_DELSIG.c **** {
1563:Generated_Source\PSoC5/ADC_DELSIG.c ****     /* Check whether the configuration number is valid or not */
1564:Generated_Source\PSoC5/ADC_DELSIG.c ****     if((config > 0u) && (config <= ADC_DELSIG_DEFAULT_NUM_CONFIGS))
1565:Generated_Source\PSoC5/ADC_DELSIG.c ****     {
1566:Generated_Source\PSoC5/ADC_DELSIG.c ****         /* Set the flag to ensure Start() API doesn't override the 
1567:Generated_Source\PSoC5/ADC_DELSIG.c **** 		*  selected configuration
1568:Generated_Source\PSoC5/ADC_DELSIG.c **** 		*/
1569:Generated_Source\PSoC5/ADC_DELSIG.c ****         if(ADC_DELSIG_initVar == 0u)
1570:Generated_Source\PSoC5/ADC_DELSIG.c ****         {
ARM GAS  C:\Users\Lory\AppData\Local\Temp\ccNUpijZ.s 			page 29


1571:Generated_Source\PSoC5/ADC_DELSIG.c ****             ADC_DELSIG_started = 1u;
1572:Generated_Source\PSoC5/ADC_DELSIG.c ****         }
1573:Generated_Source\PSoC5/ADC_DELSIG.c **** 
1574:Generated_Source\PSoC5/ADC_DELSIG.c ****         /* Update the config flag */
1575:Generated_Source\PSoC5/ADC_DELSIG.c ****         ADC_DELSIG_Config = config;
1576:Generated_Source\PSoC5/ADC_DELSIG.c **** 
1577:Generated_Source\PSoC5/ADC_DELSIG.c ****         /* Stop the ADC  */
1578:Generated_Source\PSoC5/ADC_DELSIG.c ****         ADC_DELSIG_Stop();
1579:Generated_Source\PSoC5/ADC_DELSIG.c **** 
1580:Generated_Source\PSoC5/ADC_DELSIG.c ****         /* Set the  ADC registers based on the configuration */
1581:Generated_Source\PSoC5/ADC_DELSIG.c ****         ADC_DELSIG_InitConfig(config);
1582:Generated_Source\PSoC5/ADC_DELSIG.c **** 
1583:Generated_Source\PSoC5/ADC_DELSIG.c ****         /* Compensate the gain */
1584:Generated_Source\PSoC5/ADC_DELSIG.c ****         ADC_DELSIG_DEC_GVAL_REG = ADC_DELSIG_gcor[config - 1u].gval;
1585:Generated_Source\PSoC5/ADC_DELSIG.c ****         CY_SET_REG16(ADC_DELSIG_DEC_GCOR_16B_PTR, ADC_DELSIG_gcor[config - 1u].gcor);
1586:Generated_Source\PSoC5/ADC_DELSIG.c **** 
1587:Generated_Source\PSoC5/ADC_DELSIG.c ****         if(restart == 1u)
1588:Generated_Source\PSoC5/ADC_DELSIG.c ****         {
1589:Generated_Source\PSoC5/ADC_DELSIG.c ****             /* Restart the ADC */
1590:Generated_Source\PSoC5/ADC_DELSIG.c ****             ADC_DELSIG_Start();
1591:Generated_Source\PSoC5/ADC_DELSIG.c **** 
1592:Generated_Source\PSoC5/ADC_DELSIG.c ****             /* Restart the ADC conversion */
1593:Generated_Source\PSoC5/ADC_DELSIG.c ****             ADC_DELSIG_StartConvert();
1594:Generated_Source\PSoC5/ADC_DELSIG.c ****         }
1595:Generated_Source\PSoC5/ADC_DELSIG.c ****     }
1596:Generated_Source\PSoC5/ADC_DELSIG.c ****     else
1597:Generated_Source\PSoC5/ADC_DELSIG.c ****     {
1598:Generated_Source\PSoC5/ADC_DELSIG.c ****         /* Halt CPU in debug mode if config is out of valid range */
1599:Generated_Source\PSoC5/ADC_DELSIG.c ****         CYASSERT(0u != 0u);
1600:Generated_Source\PSoC5/ADC_DELSIG.c ****     }
1601:Generated_Source\PSoC5/ADC_DELSIG.c **** }
1602:Generated_Source\PSoC5/ADC_DELSIG.c **** 
1603:Generated_Source\PSoC5/ADC_DELSIG.c **** 
1604:Generated_Source\PSoC5/ADC_DELSIG.c **** /*******************************************************************************
1605:Generated_Source\PSoC5/ADC_DELSIG.c **** * Function Name: ADC_DELSIG_GainCompensation
1606:Generated_Source\PSoC5/ADC_DELSIG.c **** ********************************************************************************
1607:Generated_Source\PSoC5/ADC_DELSIG.c **** *
1608:Generated_Source\PSoC5/ADC_DELSIG.c **** * Summary:
1609:Generated_Source\PSoC5/ADC_DELSIG.c **** *  This API calculates the trim value and then store this to gcor structure.
1610:Generated_Source\PSoC5/ADC_DELSIG.c **** *
1611:Generated_Source\PSoC5/ADC_DELSIG.c **** * Parameters:
1612:Generated_Source\PSoC5/ADC_DELSIG.c **** *  inputRange:  input range for which trim value is to be calculated.
1613:Generated_Source\PSoC5/ADC_DELSIG.c **** *  IdealDecGain:  Ideal Decimator gain for the selected resolution and
1614:Generated_Source\PSoC5/ADC_DELSIG.c **** *                 conversion  mode.
1615:Generated_Source\PSoC5/ADC_DELSIG.c **** *  IdealOddDecGain:  Ideal odd decimation gain for the selected resolution and
1616:Generated_Source\PSoC5/ADC_DELSIG.c ****                      conversion mode.
1617:Generated_Source\PSoC5/ADC_DELSIG.c **** *  resolution:  Resolution to select the proper flash location for trim value.
1618:Generated_Source\PSoC5/ADC_DELSIG.c **** *  config:      Specifies the configuration number
1619:Generated_Source\PSoC5/ADC_DELSIG.c **** *               Valid range: 1..4
1620:Generated_Source\PSoC5/ADC_DELSIG.c **** *
1621:Generated_Source\PSoC5/ADC_DELSIG.c **** * Return:
1622:Generated_Source\PSoC5/ADC_DELSIG.c **** *  None
1623:Generated_Source\PSoC5/ADC_DELSIG.c **** *
1624:Generated_Source\PSoC5/ADC_DELSIG.c **** *******************************************************************************/
1625:Generated_Source\PSoC5/ADC_DELSIG.c **** static void ADC_DELSIG_GainCompensation(uint8 inputRange, uint16 idealDecGain, uint16 idealOddDecGa
1626:Generated_Source\PSoC5/ADC_DELSIG.c ****                               uint8 resolution, uint8 config) 
1627:Generated_Source\PSoC5/ADC_DELSIG.c **** {
ARM GAS  C:\Users\Lory\AppData\Local\Temp\ccNUpijZ.s 			page 30


  27              		.loc 1 1627 0
  28              		.cfi_startproc
  29              		@ args = 4, pretend = 0, frame = 0
  30              		@ frame_needed = 0, uses_anonymous_args = 0
  31              	.LVL0:
  32 0000 10B5     		push	{r4, lr}
  33              		.cfi_def_cfa_offset 8
  34              		.cfi_offset 4, -8
  35              		.cfi_offset 14, -4
  36 0002 9DF80840 		ldrb	r4, [sp, #8]	@ zero_extendqisi2
1628:Generated_Source\PSoC5/ADC_DELSIG.c ****     int8 flash;
1629:Generated_Source\PSoC5/ADC_DELSIG.c **** 	int32 normalised;
1630:Generated_Source\PSoC5/ADC_DELSIG.c **** 	uint16 gcorValue;
1631:Generated_Source\PSoC5/ADC_DELSIG.c ****     uint32 gcorTmp;
1632:Generated_Source\PSoC5/ADC_DELSIG.c **** 
1633:Generated_Source\PSoC5/ADC_DELSIG.c ****     if((config > 0u) && (config <= ADC_DELSIG_DEFAULT_NUM_CONFIGS))
  37              		.loc 1 1633 0
  38 0006 012C     		cmp	r4, #1
  39 0008 51D1     		bne	.L2
1634:Generated_Source\PSoC5/ADC_DELSIG.c ****     {
1635:Generated_Source\PSoC5/ADC_DELSIG.c ****         switch(inputRange)
  40              		.loc 1 1635 0
  41 000a 0138     		subs	r0, r0, #1
  42              	.LVL1:
  43 000c 0928     		cmp	r0, #9
  44 000e 2ED8     		bhi	.L16
  45 0010 DFE800F0 		tbb	[pc, r0]
  46              	.L5:
  47 0014 05       		.byte	(.L4-.L5)/2
  48 0015 2D       		.byte	(.L16-.L5)/2
  49 0016 2D       		.byte	(.L16-.L5)/2
  50 0017 05       		.byte	(.L4-.L5)/2
  51 0018 2D       		.byte	(.L16-.L5)/2
  52 0019 2D       		.byte	(.L16-.L5)/2
  53 001a 0F       		.byte	(.L6-.L5)/2
  54 001b 19       		.byte	(.L7-.L5)/2
  55 001c 2D       		.byte	(.L16-.L5)/2
  56 001d 23       		.byte	(.L8-.L5)/2
  57              		.p2align 1
  58              	.L4:
1636:Generated_Source\PSoC5/ADC_DELSIG.c ****         {
1637:Generated_Source\PSoC5/ADC_DELSIG.c ****             case ADC_DELSIG_IR_VNEG_VREF_DIFF:
1638:Generated_Source\PSoC5/ADC_DELSIG.c ****             case ADC_DELSIG_IR_VSSA_TO_2VREF:
1639:Generated_Source\PSoC5/ADC_DELSIG.c ****                 /* Normalize the flash Value */
1640:Generated_Source\PSoC5/ADC_DELSIG.c ****                 if(resolution > 15u)
  59              		.loc 1 1640 0
  60 001e 0F2B     		cmp	r3, #15
  61 0020 03D9     		bls	.L9
1641:Generated_Source\PSoC5/ADC_DELSIG.c ****                 {
1642:Generated_Source\PSoC5/ADC_DELSIG.c ****                     flash = ADC_DELSIG_DEC_TRIM_VREF_DIFF_16_20;
  62              		.loc 1 1642 0
  63 0022 2548     		ldr	r0, .L18
  64 0024 0078     		ldrb	r0, [r0]	@ zero_extendqisi2
  65 0026 40B2     		sxtb	r0, r0
  66              	.LVL2:
  67 0028 22E0     		b	.L3
  68              	.LVL3:
ARM GAS  C:\Users\Lory\AppData\Local\Temp\ccNUpijZ.s 			page 31


  69              	.L9:
1643:Generated_Source\PSoC5/ADC_DELSIG.c ****                 }
1644:Generated_Source\PSoC5/ADC_DELSIG.c ****                 else
1645:Generated_Source\PSoC5/ADC_DELSIG.c ****                 {
1646:Generated_Source\PSoC5/ADC_DELSIG.c ****                     flash = ADC_DELSIG_DEC_TRIM_VREF_DIFF_8_15;
  70              		.loc 1 1646 0
  71 002a 2448     		ldr	r0, .L18+4
  72 002c 0078     		ldrb	r0, [r0]	@ zero_extendqisi2
  73 002e 40B2     		sxtb	r0, r0
  74              	.LVL4:
  75 0030 1EE0     		b	.L3
  76              	.LVL5:
  77              	.L6:
1647:Generated_Source\PSoC5/ADC_DELSIG.c ****                 }
1648:Generated_Source\PSoC5/ADC_DELSIG.c ****                 break;
1649:Generated_Source\PSoC5/ADC_DELSIG.c **** 
1650:Generated_Source\PSoC5/ADC_DELSIG.c ****             case ADC_DELSIG_IR_VNEG_VREF_2_DIFF:
1651:Generated_Source\PSoC5/ADC_DELSIG.c ****                 /* Normalize the flash Value */
1652:Generated_Source\PSoC5/ADC_DELSIG.c ****                 if(resolution > 15u)
  78              		.loc 1 1652 0
  79 0032 0F2B     		cmp	r3, #15
  80 0034 03D9     		bls	.L10
1653:Generated_Source\PSoC5/ADC_DELSIG.c ****                 {
1654:Generated_Source\PSoC5/ADC_DELSIG.c ****                     flash = ADC_DELSIG_DEC_TRIM_VREF_2_DIFF_16_20;
  81              		.loc 1 1654 0
  82 0036 2248     		ldr	r0, .L18+8
  83 0038 0078     		ldrb	r0, [r0]	@ zero_extendqisi2
  84 003a 40B2     		sxtb	r0, r0
  85              	.LVL6:
  86 003c 18E0     		b	.L3
  87              	.LVL7:
  88              	.L10:
1655:Generated_Source\PSoC5/ADC_DELSIG.c ****                 }
1656:Generated_Source\PSoC5/ADC_DELSIG.c ****                 else
1657:Generated_Source\PSoC5/ADC_DELSIG.c ****                 {
1658:Generated_Source\PSoC5/ADC_DELSIG.c ****                     flash = ADC_DELSIG_DEC_TRIM_VREF_2_DIFF_8_15;
  89              		.loc 1 1658 0
  90 003e 2148     		ldr	r0, .L18+12
  91 0040 0078     		ldrb	r0, [r0]	@ zero_extendqisi2
  92 0042 40B2     		sxtb	r0, r0
  93              	.LVL8:
  94 0044 14E0     		b	.L3
  95              	.LVL9:
  96              	.L7:
1659:Generated_Source\PSoC5/ADC_DELSIG.c ****                 }
1660:Generated_Source\PSoC5/ADC_DELSIG.c ****                 break;
1661:Generated_Source\PSoC5/ADC_DELSIG.c **** 
1662:Generated_Source\PSoC5/ADC_DELSIG.c ****             case ADC_DELSIG_IR_VNEG_VREF_4_DIFF:
1663:Generated_Source\PSoC5/ADC_DELSIG.c ****                 /* Normalize the flash Value */
1664:Generated_Source\PSoC5/ADC_DELSIG.c ****                 if(resolution > 15u)
  97              		.loc 1 1664 0
  98 0046 0F2B     		cmp	r3, #15
  99 0048 03D9     		bls	.L11
1665:Generated_Source\PSoC5/ADC_DELSIG.c ****                 {
1666:Generated_Source\PSoC5/ADC_DELSIG.c ****                     flash = ADC_DELSIG_DEC_TRIM_VREF_4_DIFF_16_20;
 100              		.loc 1 1666 0
 101 004a 1F48     		ldr	r0, .L18+16
ARM GAS  C:\Users\Lory\AppData\Local\Temp\ccNUpijZ.s 			page 32


 102 004c 0078     		ldrb	r0, [r0]	@ zero_extendqisi2
 103 004e 40B2     		sxtb	r0, r0
 104              	.LVL10:
 105 0050 0EE0     		b	.L3
 106              	.LVL11:
 107              	.L11:
1667:Generated_Source\PSoC5/ADC_DELSIG.c ****                 }
1668:Generated_Source\PSoC5/ADC_DELSIG.c ****                 else
1669:Generated_Source\PSoC5/ADC_DELSIG.c ****                 {
1670:Generated_Source\PSoC5/ADC_DELSIG.c ****                     flash = ADC_DELSIG_DEC_TRIM_VREF_4_DIFF_8_15;
 108              		.loc 1 1670 0
 109 0052 1E48     		ldr	r0, .L18+20
 110 0054 0078     		ldrb	r0, [r0]	@ zero_extendqisi2
 111 0056 40B2     		sxtb	r0, r0
 112              	.LVL12:
 113 0058 0AE0     		b	.L3
 114              	.LVL13:
 115              	.L8:
1671:Generated_Source\PSoC5/ADC_DELSIG.c ****                 }
1672:Generated_Source\PSoC5/ADC_DELSIG.c ****                 break;
1673:Generated_Source\PSoC5/ADC_DELSIG.c **** 
1674:Generated_Source\PSoC5/ADC_DELSIG.c ****             case ADC_DELSIG_IR_VNEG_VREF_16_DIFF:
1675:Generated_Source\PSoC5/ADC_DELSIG.c ****                 /* Normalize the flash Value */
1676:Generated_Source\PSoC5/ADC_DELSIG.c ****                 if(resolution > 15u)
 116              		.loc 1 1676 0
 117 005a 0F2B     		cmp	r3, #15
 118 005c 03D9     		bls	.L12
1677:Generated_Source\PSoC5/ADC_DELSIG.c ****                 {
1678:Generated_Source\PSoC5/ADC_DELSIG.c ****                     flash = ADC_DELSIG_DEC_TRIM_VREF_16_DIFF_16_20;
 119              		.loc 1 1678 0
 120 005e 1C48     		ldr	r0, .L18+24
 121 0060 0078     		ldrb	r0, [r0]	@ zero_extendqisi2
 122 0062 40B2     		sxtb	r0, r0
 123              	.LVL14:
 124 0064 04E0     		b	.L3
 125              	.LVL15:
 126              	.L12:
1679:Generated_Source\PSoC5/ADC_DELSIG.c ****                 }
1680:Generated_Source\PSoC5/ADC_DELSIG.c ****                 else
1681:Generated_Source\PSoC5/ADC_DELSIG.c ****                 {
1682:Generated_Source\PSoC5/ADC_DELSIG.c ****                     flash = ADC_DELSIG_DEC_TRIM_VREF_16_DIFF_8_15;
 127              		.loc 1 1682 0
 128 0066 1B48     		ldr	r0, .L18+28
 129 0068 0078     		ldrb	r0, [r0]	@ zero_extendqisi2
 130 006a 40B2     		sxtb	r0, r0
 131              	.LVL16:
 132 006c 00E0     		b	.L3
 133              	.LVL17:
 134              	.L16:
1683:Generated_Source\PSoC5/ADC_DELSIG.c ****                 }
1684:Generated_Source\PSoC5/ADC_DELSIG.c ****                 break;
1685:Generated_Source\PSoC5/ADC_DELSIG.c **** 
1686:Generated_Source\PSoC5/ADC_DELSIG.c ****             default:
1687:Generated_Source\PSoC5/ADC_DELSIG.c ****                 flash = 0;
 135              		.loc 1 1687 0
 136 006e 0020     		movs	r0, #0
 137              	.L3:
ARM GAS  C:\Users\Lory\AppData\Local\Temp\ccNUpijZ.s 			page 33


 138              	.LVL18:
1688:Generated_Source\PSoC5/ADC_DELSIG.c ****                 break;
1689:Generated_Source\PSoC5/ADC_DELSIG.c ****         }
1690:Generated_Source\PSoC5/ADC_DELSIG.c **** 
1691:Generated_Source\PSoC5/ADC_DELSIG.c ****         /* Add two values */
1692:Generated_Source\PSoC5/ADC_DELSIG.c **** 		normalised = (int32)idealDecGain + ((int32)flash * 32);
 139              		.loc 1 1692 0
 140 0070 01EB4011 		add	r1, r1, r0, lsl #5
 141              	.LVL19:
1693:Generated_Source\PSoC5/ADC_DELSIG.c ****         gcorTmp = (uint32)normalised * (uint32)idealOddDecGain;
 142              		.loc 1 1693 0
 143 0074 01FB02F1 		mul	r1, r1, r2
 144              	.LVL20:
1694:Generated_Source\PSoC5/ADC_DELSIG.c ****         gcorValue = (uint16)(gcorTmp / ADC_DELSIG_IDEAL_GAIN_CONST);
 145              		.loc 1 1694 0
 146 0078 C90B     		lsrs	r1, r1, #15
 147              	.LVL21:
 148 007a 8AB2     		uxth	r2, r1
 149              	.LVL22:
1695:Generated_Source\PSoC5/ADC_DELSIG.c **** 
1696:Generated_Source\PSoC5/ADC_DELSIG.c ****         if (resolution < (ADC_DELSIG_MAX_GVAL - 1u))
 150              		.loc 1 1696 0
 151 007c 0D2B     		cmp	r3, #13
 152 007e 0BD8     		bhi	.L13
1697:Generated_Source\PSoC5/ADC_DELSIG.c ****         {
1698:Generated_Source\PSoC5/ADC_DELSIG.c ****             gcorValue = (gcorValue >> (ADC_DELSIG_MAX_GVAL - (resolution + 1u)));
 153              		.loc 1 1698 0
 154 0080 C3F10E02 		rsb	r2, r3, #14
 155              	.LVL23:
 156 0084 89B2     		uxth	r1, r1
 157 0086 1141     		asrs	r1, r1, r2
 158              	.LVL24:
 159 0088 8AB2     		uxth	r2, r1
 160              	.LVL25:
1699:Generated_Source\PSoC5/ADC_DELSIG.c ****             ADC_DELSIG_gcor[config - 1u].gval = (resolution + 1u);
 161              		.loc 1 1699 0
 162 008a 611E     		subs	r1, r4, #1
 163 008c 1248     		ldr	r0, .L18+32
 164              	.LVL26:
 165 008e 00EB8101 		add	r1, r0, r1, lsl #2
 166 0092 0133     		adds	r3, r3, #1
 167              	.LVL27:
 168 0094 8B70     		strb	r3, [r1, #2]
 169 0096 05E0     		b	.L14
 170              	.LVL28:
 171              	.L13:
1700:Generated_Source\PSoC5/ADC_DELSIG.c ****         }
1701:Generated_Source\PSoC5/ADC_DELSIG.c ****         else
1702:Generated_Source\PSoC5/ADC_DELSIG.c ****         {
1703:Generated_Source\PSoC5/ADC_DELSIG.c ****             /* Use all 16 bits */
1704:Generated_Source\PSoC5/ADC_DELSIG.c ****             ADC_DELSIG_gcor[config - 1u].gval = ADC_DELSIG_MAX_GVAL;
 172              		.loc 1 1704 0
 173 0098 631E     		subs	r3, r4, #1
 174              	.LVL29:
 175 009a 0F49     		ldr	r1, .L18+32
 176 009c 01EB8303 		add	r3, r1, r3, lsl #2
 177 00a0 0F21     		movs	r1, #15
ARM GAS  C:\Users\Lory\AppData\Local\Temp\ccNUpijZ.s 			page 34


 178 00a2 9970     		strb	r1, [r3, #2]
 179              	.LVL30:
 180              	.L14:
1705:Generated_Source\PSoC5/ADC_DELSIG.c ****         }
1706:Generated_Source\PSoC5/ADC_DELSIG.c **** 
1707:Generated_Source\PSoC5/ADC_DELSIG.c ****         /* Save the gain correction register value */
1708:Generated_Source\PSoC5/ADC_DELSIG.c ****         ADC_DELSIG_gcor[config - 1u].gcor = gcorValue;
 181              		.loc 1 1708 0
 182 00a4 013C     		subs	r4, r4, #1
 183 00a6 0C4B     		ldr	r3, .L18+32
 184 00a8 23F82420 		strh	r2, [r3, r4, lsl #2]	@ movhi
 185 00ac 10BD     		pop	{r4, pc}
 186              	.LVL31:
 187              	.L2:
1709:Generated_Source\PSoC5/ADC_DELSIG.c ****     }
1710:Generated_Source\PSoC5/ADC_DELSIG.c ****     else
1711:Generated_Source\PSoC5/ADC_DELSIG.c ****     {
1712:Generated_Source\PSoC5/ADC_DELSIG.c ****         /* Halt CPU in debug mode if config is out of valid range */
1713:Generated_Source\PSoC5/ADC_DELSIG.c ****         CYASSERT(0u != 0u);
 188              		.loc 1 1713 0 discriminator 1
 189 00ae 0020     		movs	r0, #0
 190              	.LVL32:
 191 00b0 FFF7FEFF 		bl	CyHalt
 192              	.LVL33:
 193 00b4 10BD     		pop	{r4, pc}
 194              	.LVL34:
 195              	.L19:
 196 00b6 00BF     		.align	2
 197              	.L18:
 198 00b8 18010049 		.word	1224737048
 199 00bc 1C010049 		.word	1224737052
 200 00c0 19010049 		.word	1224737049
 201 00c4 1D010049 		.word	1224737053
 202 00c8 1A010049 		.word	1224737050
 203 00cc 1E010049 		.word	1224737054
 204 00d0 1B010049 		.word	1224737051
 205 00d4 1F010049 		.word	1224737055
 206 00d8 00000000 		.word	.LANCHOR0
 207              		.cfi_endproc
 208              	.LFE21:
 209              		.size	ADC_DELSIG_GainCompensation, .-ADC_DELSIG_GainCompensation
 210              		.section	.text.ADC_DELSIG_SetDSMRef0Reg,"ax",%progbits
 211              		.align	2
 212              		.thumb
 213              		.thumb_func
 214              		.type	ADC_DELSIG_SetDSMRef0Reg, %function
 215              	ADC_DELSIG_SetDSMRef0Reg:
 216              	.LFB22:
1714:Generated_Source\PSoC5/ADC_DELSIG.c ****     }
1715:Generated_Source\PSoC5/ADC_DELSIG.c **** }
1716:Generated_Source\PSoC5/ADC_DELSIG.c **** 
1717:Generated_Source\PSoC5/ADC_DELSIG.c **** 
1718:Generated_Source\PSoC5/ADC_DELSIG.c **** /******************************************************************************
1719:Generated_Source\PSoC5/ADC_DELSIG.c **** * Function Name: ADC_DELSIG_SetDSMRef0Reg(uint8)
1720:Generated_Source\PSoC5/ADC_DELSIG.c **** ******************************************************************************
1721:Generated_Source\PSoC5/ADC_DELSIG.c **** *
1722:Generated_Source\PSoC5/ADC_DELSIG.c **** * Summary:
ARM GAS  C:\Users\Lory\AppData\Local\Temp\ccNUpijZ.s 			page 35


1723:Generated_Source\PSoC5/ADC_DELSIG.c **** *  This API sets the DSM_REF0 register. This is written for internal use.
1724:Generated_Source\PSoC5/ADC_DELSIG.c **** *
1725:Generated_Source\PSoC5/ADC_DELSIG.c **** * Parameters:
1726:Generated_Source\PSoC5/ADC_DELSIG.c **** *  value:  Value to be written to DSM_REF0 register.
1727:Generated_Source\PSoC5/ADC_DELSIG.c **** *
1728:Generated_Source\PSoC5/ADC_DELSIG.c **** * Return:
1729:Generated_Source\PSoC5/ADC_DELSIG.c **** *  None
1730:Generated_Source\PSoC5/ADC_DELSIG.c **** *
1731:Generated_Source\PSoC5/ADC_DELSIG.c **** ******************************************************************************/
1732:Generated_Source\PSoC5/ADC_DELSIG.c **** static void ADC_DELSIG_SetDSMRef0Reg(uint8 value) 
1733:Generated_Source\PSoC5/ADC_DELSIG.c **** {
 217              		.loc 1 1733 0
 218              		.cfi_startproc
 219              		@ args = 0, pretend = 0, frame = 0
 220              		@ frame_needed = 0, uses_anonymous_args = 0
 221              	.LVL35:
 222 0000 F8B5     		push	{r3, r4, r5, r6, r7, lr}
 223              		.cfi_def_cfa_offset 24
 224              		.cfi_offset 3, -24
 225              		.cfi_offset 4, -20
 226              		.cfi_offset 5, -16
 227              		.cfi_offset 6, -12
 228              		.cfi_offset 7, -8
 229              		.cfi_offset 14, -4
 230 0002 0746     		mov	r7, r0
1734:Generated_Source\PSoC5/ADC_DELSIG.c ****     uint8 enableInterrupts;
1735:Generated_Source\PSoC5/ADC_DELSIG.c ****     enableInterrupts = CyEnterCriticalSection();
 231              		.loc 1 1735 0
 232 0004 FFF7FEFF 		bl	CyEnterCriticalSection
 233              	.LVL36:
 234 0008 0646     		mov	r6, r0
 235              	.LVL37:
1736:Generated_Source\PSoC5/ADC_DELSIG.c **** 
1737:Generated_Source\PSoC5/ADC_DELSIG.c ****     /* Disable PRES, Enable power to VCMBUF0, REFBUF0 and REFBUF1, enable PRES */
1738:Generated_Source\PSoC5/ADC_DELSIG.c ****     ADC_DELSIG_RESET_CR4_REG |= (ADC_DELSIG_IGNORE_PRESA1 | ADC_DELSIG_IGNORE_PRESD1);
 236              		.loc 1 1738 0
 237 000a 0D4D     		ldr	r5, .L22
 238 000c 2B78     		ldrb	r3, [r5]	@ zero_extendqisi2
 239 000e 43F00303 		orr	r3, r3, #3
 240 0012 2B70     		strb	r3, [r5]
1739:Generated_Source\PSoC5/ADC_DELSIG.c ****     ADC_DELSIG_RESET_CR5_REG |= (ADC_DELSIG_IGNORE_PRESA2 | ADC_DELSIG_IGNORE_PRESD2);
 241              		.loc 1 1739 0
 242 0014 0B4C     		ldr	r4, .L22+4
 243 0016 2378     		ldrb	r3, [r4]	@ zero_extendqisi2
 244 0018 43F00303 		orr	r3, r3, #3
 245 001c 2370     		strb	r3, [r4]
1740:Generated_Source\PSoC5/ADC_DELSIG.c ****     ADC_DELSIG_DSM_REF0_REG = value;
 246              		.loc 1 1740 0
 247 001e 0A4B     		ldr	r3, .L22+8
 248 0020 1F70     		strb	r7, [r3]
1741:Generated_Source\PSoC5/ADC_DELSIG.c **** 
1742:Generated_Source\PSoC5/ADC_DELSIG.c ****     /* Wait for 3 microseconds */
1743:Generated_Source\PSoC5/ADC_DELSIG.c ****     CyDelayUs(ADC_DELSIG_PRES_DELAY_TIME);
 249              		.loc 1 1743 0
 250 0022 0320     		movs	r0, #3
 251 0024 FFF7FEFF 		bl	CyDelayUs
 252              	.LVL38:
ARM GAS  C:\Users\Lory\AppData\Local\Temp\ccNUpijZ.s 			page 36


1744:Generated_Source\PSoC5/ADC_DELSIG.c ****     /* Enable the press circuit */
1745:Generated_Source\PSoC5/ADC_DELSIG.c ****     ADC_DELSIG_RESET_CR4_REG &= (uint8)~(ADC_DELSIG_IGNORE_PRESA1 | ADC_DELSIG_IGNORE_PRESD1);
 253              		.loc 1 1745 0
 254 0028 2B78     		ldrb	r3, [r5]	@ zero_extendqisi2
 255 002a 03F0FC03 		and	r3, r3, #252
 256 002e 2B70     		strb	r3, [r5]
1746:Generated_Source\PSoC5/ADC_DELSIG.c ****     ADC_DELSIG_RESET_CR5_REG &= (uint8)~(ADC_DELSIG_IGNORE_PRESA2 | ADC_DELSIG_IGNORE_PRESD2);
 257              		.loc 1 1746 0
 258 0030 2378     		ldrb	r3, [r4]	@ zero_extendqisi2
 259 0032 03F0FC03 		and	r3, r3, #252
 260 0036 2370     		strb	r3, [r4]
1747:Generated_Source\PSoC5/ADC_DELSIG.c **** 
1748:Generated_Source\PSoC5/ADC_DELSIG.c ****     CyExitCriticalSection(enableInterrupts);
 261              		.loc 1 1748 0
 262 0038 3046     		mov	r0, r6
 263 003a FFF7FEFF 		bl	CyExitCriticalSection
 264              	.LVL39:
 265 003e F8BD     		pop	{r3, r4, r5, r6, r7, pc}
 266              	.LVL40:
 267              	.L23:
 268              		.align	2
 269              	.L22:
 270 0040 F8460040 		.word	1073759992
 271 0044 F9460040 		.word	1073759993
 272 0048 92580040 		.word	1073764498
 273              		.cfi_endproc
 274              	.LFE22:
 275              		.size	ADC_DELSIG_SetDSMRef0Reg, .-ADC_DELSIG_SetDSMRef0Reg
 276              		.section	.text.ADC_DELSIG_InitConfig,"ax",%progbits
 277              		.align	2
 278              		.thumb
 279              		.thumb_func
 280              		.type	ADC_DELSIG_InitConfig, %function
 281              	ADC_DELSIG_InitConfig:
 282              	.LFB19:
1248:Generated_Source\PSoC5/ADC_DELSIG.c ****     ADC_DELSIG_stopConversion = 0u;
 283              		.loc 1 1248 0
 284              		.cfi_startproc
 285              		@ args = 0, pretend = 0, frame = 0
 286              		@ frame_needed = 0, uses_anonymous_args = 0
 287              	.LVL41:
1249:Generated_Source\PSoC5/ADC_DELSIG.c **** 
 288              		.loc 1 1249 0
 289 0000 0022     		movs	r2, #0
 290 0002 314B     		ldr	r3, .L28
 291 0004 1A71     		strb	r2, [r3, #4]
1251:Generated_Source\PSoC5/ADC_DELSIG.c ****     {
 292              		.loc 1 1251 0
 293 0006 0128     		cmp	r0, #1
 294 0008 5CD1     		bne	.L27
1248:Generated_Source\PSoC5/ADC_DELSIG.c ****     ADC_DELSIG_stopConversion = 0u;
 295              		.loc 1 1248 0
 296 000a 70B5     		push	{r4, r5, r6, lr}
 297              		.cfi_def_cfa_offset 16
 298              		.cfi_offset 4, -16
 299              		.cfi_offset 5, -12
 300              		.cfi_offset 6, -8
ARM GAS  C:\Users\Lory\AppData\Local\Temp\ccNUpijZ.s 			page 37


 301              		.cfi_offset 14, -4
1254:Generated_Source\PSoC5/ADC_DELSIG.c ****         ADC_DELSIG_DEC_SHIFT1_REG  = ADC_DELSIG_CFG1_DEC_SHIFT1;
 302              		.loc 1 1254 0
 303 000c 3822     		movs	r2, #56
 304 000e 2F4B     		ldr	r3, .L28+4
 305 0010 1A70     		strb	r2, [r3]
1255:Generated_Source\PSoC5/ADC_DELSIG.c ****         ADC_DELSIG_DEC_SHIFT2_REG  = ADC_DELSIG_CFG1_DEC_SHIFT2;
 306              		.loc 1 1255 0
 307 0012 0422     		movs	r2, #4
 308 0014 0233     		adds	r3, r3, #2
 309 0016 1A70     		strb	r2, [r3]
1256:Generated_Source\PSoC5/ADC_DELSIG.c ****         ADC_DELSIG_DEC_DR2_REG     = ADC_DELSIG_CFG1_DEC_DR2;
 310              		.loc 1 1256 0
 311 0018 0622     		movs	r2, #6
 312 001a 0133     		adds	r3, r3, #1
 313 001c 1A70     		strb	r2, [r3]
1257:Generated_Source\PSoC5/ADC_DELSIG.c ****         ADC_DELSIG_DEC_DR2H_REG    = ADC_DELSIG_CFG1_DEC_DR2H;
 314              		.loc 1 1257 0
 315 001e 0024     		movs	r4, #0
 316 0020 0133     		adds	r3, r3, #1
 317 0022 1C70     		strb	r4, [r3]
1258:Generated_Source\PSoC5/ADC_DELSIG.c ****         ADC_DELSIG_DEC_DR1_REG     = ADC_DELSIG_CFG1_DEC_DR1;
 318              		.loc 1 1258 0
 319 0024 0133     		adds	r3, r3, #1
 320 0026 1C70     		strb	r4, [r3]
1259:Generated_Source\PSoC5/ADC_DELSIG.c ****         ADC_DELSIG_DEC_OCOR_REG    = ADC_DELSIG_CFG1_DEC_OCOR;
 321              		.loc 1 1259 0
 322 0028 0F22     		movs	r2, #15
 323 002a 0133     		adds	r3, r3, #1
 324 002c 1A70     		strb	r2, [r3]
1260:Generated_Source\PSoC5/ADC_DELSIG.c ****         ADC_DELSIG_DEC_OCORM_REG   = ADC_DELSIG_CFG1_DEC_OCORM;
 325              		.loc 1 1260 0
 326 002e 0233     		adds	r3, r3, #2
 327 0030 1C70     		strb	r4, [r3]
1261:Generated_Source\PSoC5/ADC_DELSIG.c ****         ADC_DELSIG_DEC_OCORH_REG   = ADC_DELSIG_CFG1_DEC_OCORH;
 328              		.loc 1 1261 0
 329 0032 0133     		adds	r3, r3, #1
 330 0034 1C70     		strb	r4, [r3]
1262:Generated_Source\PSoC5/ADC_DELSIG.c ****         ADC_DELSIG_DEC_COHER_REG   = ADC_DELSIG_CFG1_DEC_COHER;
 331              		.loc 1 1262 0
 332 0036 0133     		adds	r3, r3, #1
 333 0038 1C70     		strb	r4, [r3]
1263:Generated_Source\PSoC5/ADC_DELSIG.c **** 
 334              		.loc 1 1263 0
 335 003a 0125     		movs	r5, #1
 336 003c 0A33     		adds	r3, r3, #10
 337 003e 1D70     		strb	r5, [r3]
1265:Generated_Source\PSoC5/ADC_DELSIG.c ****         ADC_DELSIG_DSM_CR5_REG     = ADC_DELSIG_CFG1_DSM_CR5;
 338              		.loc 1 1265 0
 339 0040 1422     		movs	r2, #20
 340 0042 03F52763 		add	r3, r3, #2672
 341 0046 1A70     		strb	r2, [r3]
1266:Generated_Source\PSoC5/ADC_DELSIG.c ****         ADC_DELSIG_DSM_CR6_REG     = ADC_DELSIG_CFG1_DSM_CR6;
 342              		.loc 1 1266 0
 343 0048 0526     		movs	r6, #5
 344 004a 0133     		adds	r3, r3, #1
 345 004c 1E70     		strb	r6, [r3]
ARM GAS  C:\Users\Lory\AppData\Local\Temp\ccNUpijZ.s 			page 38


1267:Generated_Source\PSoC5/ADC_DELSIG.c ****         ADC_DELSIG_DSM_CR7_REG     = ADC_DELSIG_CFG1_DSM_CR7;
 346              		.loc 1 1267 0
 347 004e 1622     		movs	r2, #22
 348 0050 0133     		adds	r3, r3, #1
 349 0052 1A70     		strb	r2, [r3]
1268:Generated_Source\PSoC5/ADC_DELSIG.c ****         ADC_DELSIG_DSM_CR10_REG    = ADC_DELSIG_CFG1_DSM_CR10;
 350              		.loc 1 1268 0
 351 0054 0133     		adds	r3, r3, #1
 352 0056 1C70     		strb	r4, [r3]
1269:Generated_Source\PSoC5/ADC_DELSIG.c ****         ADC_DELSIG_DSM_CR11_REG    = ADC_DELSIG_CFG1_DSM_CR11;
 353              		.loc 1 1269 0
 354 0058 4422     		movs	r2, #68
 355 005a 0333     		adds	r3, r3, #3
 356 005c 1A70     		strb	r2, [r3]
1270:Generated_Source\PSoC5/ADC_DELSIG.c ****         ADC_DELSIG_DSM_CR12_REG    = ADC_DELSIG_CFG1_DSM_CR12;
 357              		.loc 1 1270 0
 358 005e 4822     		movs	r2, #72
 359 0060 0133     		adds	r3, r3, #1
 360 0062 1A70     		strb	r2, [r3]
1271:Generated_Source\PSoC5/ADC_DELSIG.c ****         ADC_DELSIG_DSM_CR14_REG    = ADC_DELSIG_CFG1_DSM_CR14;
 361              		.loc 1 1271 0
 362 0064 0133     		adds	r3, r3, #1
 363 0066 1D70     		strb	r5, [r3]
1272:Generated_Source\PSoC5/ADC_DELSIG.c ****         ADC_DELSIG_DSM_CR15_REG    = ADC_DELSIG_CFG1_DSM_CR15;
 364              		.loc 1 1272 0
 365 0068 0233     		adds	r3, r3, #2
 366 006a 1C70     		strb	r4, [r3]
1273:Generated_Source\PSoC5/ADC_DELSIG.c ****         ADC_DELSIG_DSM_CR16_REG    = ADC_DELSIG_CFG1_DSM_CR16;
 367              		.loc 1 1273 0
 368 006c 0133     		adds	r3, r3, #1
 369 006e 1C70     		strb	r4, [r3]
1274:Generated_Source\PSoC5/ADC_DELSIG.c ****         ADC_DELSIG_DSM_CR17_REG    = ADC_DELSIG_CFG1_DSM_CR17;
 370              		.loc 1 1274 0
 371 0070 0A22     		movs	r2, #10
 372 0072 0133     		adds	r3, r3, #1
 373 0074 1A70     		strb	r2, [r3]
1275:Generated_Source\PSoC5/ADC_DELSIG.c ****         /* Set DSM_REF0_REG by disabling and enabling the PRESS circuit */
 374              		.loc 1 1275 0
 375 0076 4322     		movs	r2, #67
 376 0078 0133     		adds	r3, r3, #1
 377 007a 1A70     		strb	r2, [r3]
1277:Generated_Source\PSoC5/ADC_DELSIG.c ****         ADC_DELSIG_DSM_REF2_REG    = ADC_DELSIG_CFG1_DSM_REF2;
 378              		.loc 1 1277 0
 379 007c 5220     		movs	r0, #82
 380              	.LVL42:
 381 007e FFF7FEFF 		bl	ADC_DELSIG_SetDSMRef0Reg
 382              	.LVL43:
1278:Generated_Source\PSoC5/ADC_DELSIG.c ****         ADC_DELSIG_DSM_REF3_REG    = ADC_DELSIG_CFG1_DSM_REF3;
 383              		.loc 1 1278 0
 384 0082 5822     		movs	r2, #88
 385 0084 124B     		ldr	r3, .L28+8
 386 0086 1A70     		strb	r2, [r3]
1279:Generated_Source\PSoC5/ADC_DELSIG.c **** 
 387              		.loc 1 1279 0
 388 0088 0133     		adds	r3, r3, #1
 389 008a 1C70     		strb	r4, [r3]
1281:Generated_Source\PSoC5/ADC_DELSIG.c ****         ADC_DELSIG_DSM_BUF1_REG    = ADC_DELSIG_CFG1_DSM_BUF1;
ARM GAS  C:\Users\Lory\AppData\Local\Temp\ccNUpijZ.s 			page 39


 390              		.loc 1 1281 0
 391 008c 0533     		adds	r3, r3, #5
 392 008e 1E70     		strb	r6, [r3]
1282:Generated_Source\PSoC5/ADC_DELSIG.c ****         ADC_DELSIG_DSM_BUF2_REG    = ADC_DELSIG_CFG1_DSM_BUF2;
 393              		.loc 1 1282 0
 394 0090 0222     		movs	r2, #2
 395 0092 0133     		adds	r3, r3, #1
 396 0094 1A70     		strb	r2, [r3]
1283:Generated_Source\PSoC5/ADC_DELSIG.c ****         ADC_DELSIG_DSM_BUF3_REG    = ADC_DELSIG_CFG1_DSM_BUF3;
 397              		.loc 1 1283 0
 398 0096 0133     		adds	r3, r3, #1
 399 0098 1C70     		strb	r4, [r3]
1284:Generated_Source\PSoC5/ADC_DELSIG.c **** 
 400              		.loc 1 1284 0
 401 009a 0133     		adds	r3, r3, #1
 402 009c 1C70     		strb	r4, [r3]
1293:Generated_Source\PSoC5/ADC_DELSIG.c ****             #endif /* ADC_DELSIG_IR_VSSA_TO_2VREF) */
 403              		.loc 1 1293 0
 404 009e 2046     		mov	r0, r4
 405 00a0 FFF7FEFF 		bl	ADC_DELSIG_AMux_Select
 406              	.LVL44:
1305:Generated_Source\PSoC5/ADC_DELSIG.c **** 
 407              		.loc 1 1305 0
 408 00a4 3322     		movs	r2, #51
 409 00a6 0B4B     		ldr	r3, .L28+12
 410 00a8 1A60     		str	r2, [r3]
1307:Generated_Source\PSoC5/ADC_DELSIG.c **** 
 411              		.loc 1 1307 0
 412 00aa 2946     		mov	r1, r5
 413 00ac 3046     		mov	r0, r6
 414 00ae FFF7FEFF 		bl	ADC_DELSIG_Ext_CP_Clk_SetDividerRegister
 415              	.LVL45:
1311:Generated_Source\PSoC5/ADC_DELSIG.c ****         #endif /* ADC_DELSIG_DEFAULT_INTERNAL_CLK */
 416              		.loc 1 1311 0
 417 00b2 2946     		mov	r1, r5
 418 00b4 BA20     		movs	r0, #186
 419 00b6 FFF7FEFF 		bl	ADC_DELSIG_theACLK_SetDividerRegister
 420              	.LVL46:
1316:Generated_Source\PSoC5/ADC_DELSIG.c ****         #endif   /* End ADC_DELSIG_IRQ_REMOVE */
 421              		.loc 1 1316 0
 422 00ba 0749     		ldr	r1, .L28+16
 423 00bc 1D20     		movs	r0, #29
 424 00be FFF7FEFF 		bl	CyIntSetVector
 425              	.LVL47:
 426 00c2 70BD     		pop	{r4, r5, r6, pc}
 427              	.LVL48:
 428              	.L27:
 429              		.cfi_def_cfa_offset 0
 430              		.cfi_restore 4
 431              		.cfi_restore 5
 432              		.cfi_restore 6
 433              		.cfi_restore 14
 434 00c4 7047     		bx	lr
 435              	.L29:
 436 00c6 00BF     		.align	2
 437              	.L28:
 438 00c8 00000000 		.word	.LANCHOR0
ARM GAS  C:\Users\Lory\AppData\Local\Temp\ccNUpijZ.s 			page 40


 439 00cc 004E0040 		.word	1073761792
 440 00d0 94580040 		.word	1073764500
 441 00d4 00000000 		.word	ADC_DELSIG_CountsPerVolt
 442 00d8 00000000 		.word	ADC_DELSIG_ISR1
 443              		.cfi_endproc
 444              	.LFE19:
 445              		.size	ADC_DELSIG_InitConfig, .-ADC_DELSIG_InitConfig
 446              		.section	.text.ADC_DELSIG_Init,"ax",%progbits
 447              		.align	2
 448              		.global	ADC_DELSIG_Init
 449              		.thumb
 450              		.thumb_func
 451              		.type	ADC_DELSIG_Init, %function
 452              	ADC_DELSIG_Init:
 453              	.LFB0:
  92:Generated_Source\PSoC5/ADC_DELSIG.c **** 
 454              		.loc 1 92 0
 455              		.cfi_startproc
 456              		@ args = 0, pretend = 0, frame = 0
 457              		@ frame_needed = 0, uses_anonymous_args = 0
 458 0000 F0B5     		push	{r4, r5, r6, r7, lr}
 459              		.cfi_def_cfa_offset 20
 460              		.cfi_offset 4, -20
 461              		.cfi_offset 5, -16
 462              		.cfi_offset 6, -12
 463              		.cfi_offset 7, -8
 464              		.cfi_offset 14, -4
 465 0002 83B0     		sub	sp, sp, #12
 466              		.cfi_def_cfa_offset 32
  94:Generated_Source\PSoC5/ADC_DELSIG.c ****     ADC_DELSIG_convDone = 0u;
 467              		.loc 1 94 0
 468 0004 284D     		ldr	r5, .L32
 469 0006 0127     		movs	r7, #1
 470 0008 2F70     		strb	r7, [r5]
  95:Generated_Source\PSoC5/ADC_DELSIG.c **** 
 471              		.loc 1 95 0
 472 000a 284E     		ldr	r6, .L32+4
 473 000c 0024     		movs	r4, #0
 474 000e 7471     		strb	r4, [r6, #5]
  97:Generated_Source\PSoC5/ADC_DELSIG.c **** 
 475              		.loc 1 97 0
 476 0010 1020     		movs	r0, #16
 477 0012 FFF7FEFF 		bl	ADC_DELSIG_Ext_CP_Clk_SetModeRegister
 478              	.LVL49:
 101:Generated_Source\PSoC5/ADC_DELSIG.c ****     #endif /* ADC_DELSIG_DEFAULT_INTERNAL_CLK */
 479              		.loc 1 101 0
 480 0016 1020     		movs	r0, #16
 481 0018 FFF7FEFF 		bl	ADC_DELSIG_theACLK_SetModeRegister
 482              	.LVL50:
 106:Generated_Source\PSoC5/ADC_DELSIG.c ****     #endif   /* End ADC_DELSIG_IRQ_REMOVE */
 483              		.loc 1 106 0
 484 001c 0721     		movs	r1, #7
 485 001e 1D20     		movs	r0, #29
 486 0020 FFF7FEFF 		bl	CyIntSetPriority
 487              	.LVL51:
 110:Generated_Source\PSoC5/ADC_DELSIG.c ****     ADC_DELSIG_DSM_DEM1_REG    = ADC_DELSIG_CFG1_DSM_DEM1;
 488              		.loc 1 110 0
ARM GAS  C:\Users\Lory\AppData\Local\Temp\ccNUpijZ.s 			page 41


 489 0024 0422     		movs	r2, #4
 490 0026 224B     		ldr	r3, .L32+8
 491 0028 1A70     		strb	r2, [r3]
 111:Generated_Source\PSoC5/ADC_DELSIG.c ****     ADC_DELSIG_DSM_MISC_REG    = ADC_DELSIG_CFG1_DSM_MISC;
 492              		.loc 1 111 0
 493 002a 0133     		adds	r3, r3, #1
 494 002c 1C70     		strb	r4, [r3]
 112:Generated_Source\PSoC5/ADC_DELSIG.c ****     ADC_DELSIG_DSM_CLK_REG    |= ADC_DELSIG_CFG1_DSM_CLK;
 495              		.loc 1 112 0
 496 002e 0733     		adds	r3, r3, #7
 497 0030 1C70     		strb	r4, [r3]
 113:Generated_Source\PSoC5/ADC_DELSIG.c ****     ADC_DELSIG_DSM_REF1_REG    = ADC_DELSIG_CFG1_DSM_REF1;
 498              		.loc 1 113 0
 499 0032 204A     		ldr	r2, .L32+12
 500 0034 1378     		ldrb	r3, [r2]	@ zero_extendqisi2
 501 0036 43F01803 		orr	r3, r3, #24
 502 003a 1370     		strb	r3, [r2]
 114:Generated_Source\PSoC5/ADC_DELSIG.c **** 
 503              		.loc 1 114 0
 504 003c 1E4B     		ldr	r3, .L32+16
 505 003e 1C70     		strb	r4, [r3]
 116:Generated_Source\PSoC5/ADC_DELSIG.c ****     ADC_DELSIG_DSM_OUT1_REG    = ADC_DELSIG_CFG1_DSM_OUT1;
 506              		.loc 1 116 0
 507 0040 03F2F523 		addw	r3, r3, #757
 508 0044 1C70     		strb	r4, [r3]
 117:Generated_Source\PSoC5/ADC_DELSIG.c **** 
 509              		.loc 1 117 0
 510 0046 0133     		adds	r3, r3, #1
 511 0048 1C70     		strb	r4, [r3]
 119:Generated_Source\PSoC5/ADC_DELSIG.c ****     ADC_DELSIG_DSM_CR1_REG     = ADC_DELSIG_CFG1_DSM_CR1;
 512              		.loc 1 119 0
 513 004a 0A22     		movs	r2, #10
 514 004c A3F20933 		subw	r3, r3, #777
 515 0050 1A70     		strb	r2, [r3]
 120:Generated_Source\PSoC5/ADC_DELSIG.c **** #if(ADC_DELSIG_MI_ENABLE != 0u) /* Enable Modulator Input */
 516              		.loc 1 120 0
 517 0052 0133     		adds	r3, r3, #1
 518 0054 1C70     		strb	r4, [r3]
 124:Generated_Source\PSoC5/ADC_DELSIG.c **** #endif /* ADC_DELSIG_MI_ENABLE != 0u*/    
 519              		.loc 1 124 0
 520 0056 0233     		adds	r3, r3, #2
 521 0058 1C70     		strb	r4, [r3]
 126:Generated_Source\PSoC5/ADC_DELSIG.c ****     ADC_DELSIG_DSM_CR9_REG     = ADC_DELSIG_CFG1_DSM_CR9;
 522              		.loc 1 126 0
 523 005a 1222     		movs	r2, #18
 524 005c 0533     		adds	r3, r3, #5
 525 005e 1A70     		strb	r2, [r3]
 127:Generated_Source\PSoC5/ADC_DELSIG.c ****     ADC_DELSIG_DSM_CR13_REG    = ADC_DELSIG_CFG1_DSM_CR13;
 526              		.loc 1 127 0
 527 0060 1322     		movs	r2, #19
 528 0062 0133     		adds	r3, r3, #1
 529 0064 1A70     		strb	r2, [r3]
 128:Generated_Source\PSoC5/ADC_DELSIG.c **** 
 530              		.loc 1 128 0
 531 0066 0433     		adds	r3, r3, #4
 532 0068 1C70     		strb	r4, [r3]
 130:Generated_Source\PSoC5/ADC_DELSIG.c **** 
ARM GAS  C:\Users\Lory\AppData\Local\Temp\ccNUpijZ.s 			page 42


 533              		.loc 1 130 0
 534 006a 1422     		movs	r2, #20
 535 006c A3F68C23 		subw	r3, r3, #2700
 536 0070 1A70     		strb	r2, [r3]
 133:Generated_Source\PSoC5/ADC_DELSIG.c ****                                       ADC_DELSIG_CFG1_IDEAL_DEC_GAIN,
 537              		.loc 1 133 0
 538 0072 0097     		str	r7, [sp]
 539 0074 0823     		movs	r3, #8
 540 0076 4FF40042 		mov	r2, #32768
 541 007a 48F66B51 		movw	r1, #36203
 542 007e 0220     		movs	r0, #2
 543 0080 FFF7FEFF 		bl	ADC_DELSIG_GainCompensation
 544              	.LVL52:
 161:Generated_Source\PSoC5/ADC_DELSIG.c ****     CY_SET_REG16(ADC_DELSIG_DEC_GCOR_16B_PTR, ADC_DELSIG_gcor[ADC_DELSIG_Config - 1u].gcor);
 545              		.loc 1 161 0
 546 0084 2B78     		ldrb	r3, [r5]	@ zero_extendqisi2
 547 0086 013B     		subs	r3, r3, #1
 548 0088 06EB8303 		add	r3, r6, r3, lsl #2
 549 008c 9A78     		ldrb	r2, [r3, #2]	@ zero_extendqisi2
 550 008e 0B4B     		ldr	r3, .L32+20
 551 0090 1A70     		strb	r2, [r3]
 162:Generated_Source\PSoC5/ADC_DELSIG.c **** 
 552              		.loc 1 162 0
 553 0092 2B78     		ldrb	r3, [r5]	@ zero_extendqisi2
 554 0094 013B     		subs	r3, r3, #1
 555 0096 36F82320 		ldrh	r2, [r6, r3, lsl #2]
 556 009a 094B     		ldr	r3, .L32+24
 557 009c 1A80     		strh	r2, [r3]	@ movhi
 165:Generated_Source\PSoC5/ADC_DELSIG.c **** }
 558              		.loc 1 165 0
 559 009e 2878     		ldrb	r0, [r5]	@ zero_extendqisi2
 560 00a0 FFF7FEFF 		bl	ADC_DELSIG_InitConfig
 561              	.LVL53:
 166:Generated_Source\PSoC5/ADC_DELSIG.c **** 
 562              		.loc 1 166 0
 563 00a4 03B0     		add	sp, sp, #12
 564              		.cfi_def_cfa_offset 20
 565              		@ sp needed
 566 00a6 F0BD     		pop	{r4, r5, r6, r7, pc}
 567              	.L33:
 568              		.align	2
 569              	.L32:
 570 00a8 00000000 		.word	.LANCHOR1
 571 00ac 00000000 		.word	.LANCHOR0
 572 00b0 96580040 		.word	1073764502
 573 00b4 075B0040 		.word	1073765127
 574 00b8 93580040 		.word	1073764499
 575 00bc 0E4E0040 		.word	1073761806
 576 00c0 0C4E0040 		.word	1073761804
 577              		.cfi_endproc
 578              	.LFE0:
 579              		.size	ADC_DELSIG_Init, .-ADC_DELSIG_Init
 580              		.section	.text.ADC_DELSIG_Enable,"ax",%progbits
 581              		.align	2
 582              		.global	ADC_DELSIG_Enable
 583              		.thumb
 584              		.thumb_func
ARM GAS  C:\Users\Lory\AppData\Local\Temp\ccNUpijZ.s 			page 43


 585              		.type	ADC_DELSIG_Enable, %function
 586              	ADC_DELSIG_Enable:
 587              	.LFB1:
 187:Generated_Source\PSoC5/ADC_DELSIG.c **** 	uint8 config;
 588              		.loc 1 187 0
 589              		.cfi_startproc
 590              		@ args = 0, pretend = 0, frame = 0
 591              		@ frame_needed = 0, uses_anonymous_args = 0
 592 0000 70B5     		push	{r4, r5, r6, lr}
 593              		.cfi_def_cfa_offset 16
 594              		.cfi_offset 4, -16
 595              		.cfi_offset 5, -12
 596              		.cfi_offset 6, -8
 597              		.cfi_offset 14, -4
 190:Generated_Source\PSoC5/ADC_DELSIG.c **** 
 598              		.loc 1 190 0
 599 0002 FFF7FEFF 		bl	CyEnterCriticalSection
 600              	.LVL54:
 601 0006 0646     		mov	r6, r0
 602              	.LVL55:
 193:Generated_Source\PSoC5/ADC_DELSIG.c ****     
 603              		.loc 1 193 0
 604 0008 2A4B     		ldr	r3, .L36
 605 000a 1B78     		ldrb	r3, [r3]	@ zero_extendqisi2
 606              	.LVL56:
 196:Generated_Source\PSoC5/ADC_DELSIG.c ****     ADC_DELSIG_PWRMGR_DSM_REG |= ADC_DELSIG_ACT_PWR_DSM_EN;
 607              		.loc 1 196 0
 608 000c 2A4B     		ldr	r3, .L36+4
 609 000e 1A78     		ldrb	r2, [r3]	@ zero_extendqisi2
 610 0010 42F00102 		orr	r2, r2, #1
 611 0014 1A70     		strb	r2, [r3]
 197:Generated_Source\PSoC5/ADC_DELSIG.c **** 
 612              		.loc 1 197 0
 613 0016 1A78     		ldrb	r2, [r3]	@ zero_extendqisi2
 614 0018 42F01002 		orr	r2, r2, #16
 615 001c 1A70     		strb	r2, [r3]
 200:Generated_Source\PSoC5/ADC_DELSIG.c ****     ADC_DELSIG_STBY_PWRMGR_DSM_REG |= ADC_DELSIG_STBY_PWR_DSM_EN;
 616              		.loc 1 200 0
 617 001e 1033     		adds	r3, r3, #16
 618 0020 1A78     		ldrb	r2, [r3]	@ zero_extendqisi2
 619 0022 42F00102 		orr	r2, r2, #1
 620 0026 1A70     		strb	r2, [r3]
 201:Generated_Source\PSoC5/ADC_DELSIG.c **** 
 621              		.loc 1 201 0
 622 0028 1A78     		ldrb	r2, [r3]	@ zero_extendqisi2
 623 002a 42F01002 		orr	r2, r2, #16
 624 002e 1A70     		strb	r2, [r3]
 204:Generated_Source\PSoC5/ADC_DELSIG.c ****     ADC_DELSIG_RESET_CR5_REG |= ADC_DELSIG_IGNORE_PRESA2;
 625              		.loc 1 204 0
 626 0030 224D     		ldr	r5, .L36+8
 627 0032 2B78     		ldrb	r3, [r5]	@ zero_extendqisi2
 628 0034 43F00203 		orr	r3, r3, #2
 629 0038 2B70     		strb	r3, [r5]
 205:Generated_Source\PSoC5/ADC_DELSIG.c **** 
 630              		.loc 1 205 0
 631 003a 214C     		ldr	r4, .L36+12
 632 003c 2378     		ldrb	r3, [r4]	@ zero_extendqisi2
ARM GAS  C:\Users\Lory\AppData\Local\Temp\ccNUpijZ.s 			page 44


 633 003e 43F00203 		orr	r3, r3, #2
 634 0042 2370     		strb	r3, [r4]
 207:Generated_Source\PSoC5/ADC_DELSIG.c **** 
 635              		.loc 1 207 0
 636 0044 1F4A     		ldr	r2, .L36+16
 637 0046 1378     		ldrb	r3, [r2]	@ zero_extendqisi2
 638 0048 43F00303 		orr	r3, r3, #3
 639 004c 1370     		strb	r3, [r2]
 273:Generated_Source\PSoC5/ADC_DELSIG.c **** 
 640              		.loc 1 273 0
 641 004e 0320     		movs	r0, #3
 642 0050 FFF7FEFF 		bl	CyDelayUs
 643              	.LVL57:
 276:Generated_Source\PSoC5/ADC_DELSIG.c ****     ADC_DELSIG_RESET_CR5_REG &= (uint8)~ADC_DELSIG_IGNORE_PRESA2;
 644              		.loc 1 276 0
 645 0054 2B78     		ldrb	r3, [r5]	@ zero_extendqisi2
 646 0056 03F0FD03 		and	r3, r3, #253
 647 005a 2B70     		strb	r3, [r5]
 277:Generated_Source\PSoC5/ADC_DELSIG.c **** 
 648              		.loc 1 277 0
 649 005c 2378     		ldrb	r3, [r4]	@ zero_extendqisi2
 650 005e 03F0FD03 		and	r3, r3, #253
 651 0062 2370     		strb	r3, [r4]
 280:Generated_Source\PSoC5/ADC_DELSIG.c **** 
 652              		.loc 1 280 0
 653 0064 184A     		ldr	r2, .L36+20
 654 0066 1378     		ldrb	r3, [r2]	@ zero_extendqisi2
 655 0068 43F00603 		orr	r3, r3, #6
 656 006c 1370     		strb	r3, [r2]
 283:Generated_Source\PSoC5/ADC_DELSIG.c **** 
 657              		.loc 1 283 0
 658 006e 7A22     		movs	r2, #122
 659 0070 164B     		ldr	r3, .L36+24
 660 0072 1A70     		strb	r2, [r3]
 287:Generated_Source\PSoC5/ADC_DELSIG.c ****         ADC_DELSIG_STBY_PWRMGR_CLK_REG |= ADC_DELSIG_STBY_PWR_CLK_EN;
 661              		.loc 1 287 0
 662 0074 164A     		ldr	r2, .L36+28
 663 0076 1378     		ldrb	r3, [r2]	@ zero_extendqisi2
 664 0078 43F00103 		orr	r3, r3, #1
 665 007c 1370     		strb	r3, [r2]
 288:Generated_Source\PSoC5/ADC_DELSIG.c ****     #endif /* ADC_DELSIG_DEFAULT_INTERNAL_CLK */
 666              		.loc 1 288 0
 667 007e 1032     		adds	r2, r2, #16
 668 0080 1378     		ldrb	r3, [r2]	@ zero_extendqisi2
 669 0082 43F00103 		orr	r3, r3, #1
 670 0086 1370     		strb	r3, [r2]
 292:Generated_Source\PSoC5/ADC_DELSIG.c ****     ADC_DELSIG_STBY_PWRMGR_CHARGE_PUMP_CLK_REG |= ADC_DELSIG_STBY_PWR_CHARGE_PUMP_CLK_EN;
 671              		.loc 1 292 0
 672 0088 0F3A     		subs	r2, r2, #15
 673 008a 1378     		ldrb	r3, [r2]	@ zero_extendqisi2
 674 008c 43F00103 		orr	r3, r3, #1
 675 0090 1370     		strb	r3, [r2]
 293:Generated_Source\PSoC5/ADC_DELSIG.c **** 
 676              		.loc 1 293 0
 677 0092 1032     		adds	r2, r2, #16
 678 0094 1378     		ldrb	r3, [r2]	@ zero_extendqisi2
 679 0096 43F00103 		orr	r3, r3, #1
ARM GAS  C:\Users\Lory\AppData\Local\Temp\ccNUpijZ.s 			page 45


 680 009a 1370     		strb	r3, [r2]
 297:Generated_Source\PSoC5/ADC_DELSIG.c ****         /* Enable interrupt */
 681              		.loc 1 297 0
 682 009c 4FF00053 		mov	r3, #536870912
 683 00a0 0C4A     		ldr	r2, .L36+32
 684 00a2 1360     		str	r3, [r2]
 299:Generated_Source\PSoC5/ADC_DELSIG.c ****     #endif   /* End ADC_DELSIG_IRQ_REMOVE */
 685              		.loc 1 299 0
 686 00a4 A2F5C072 		sub	r2, r2, #384
 687 00a8 1360     		str	r3, [r2]
 302:Generated_Source\PSoC5/ADC_DELSIG.c **** 
 688              		.loc 1 302 0
 689 00aa 3046     		mov	r0, r6
 690 00ac FFF7FEFF 		bl	CyExitCriticalSection
 691              	.LVL58:
 692 00b0 70BD     		pop	{r4, r5, r6, pc}
 693              	.LVL59:
 694              	.L37:
 695 00b2 00BF     		.align	2
 696              	.L36:
 697 00b4 00000000 		.word	.LANCHOR1
 698 00b8 AA430040 		.word	1073759146
 699 00bc F8460040 		.word	1073759992
 700 00c0 F9460040 		.word	1073759993
 701 00c4 91580040 		.word	1073764497
 702 00c8 77580040 		.word	1073764471
 703 00cc 82580040 		.word	1073764482
 704 00d0 A1430040 		.word	1073759137
 705 00d4 80E200E0 		.word	-536812928
 706              		.cfi_endproc
 707              	.LFE1:
 708              		.size	ADC_DELSIG_Enable, .-ADC_DELSIG_Enable
 709              		.section	.text.ADC_DELSIG_Start,"ax",%progbits
 710              		.align	2
 711              		.global	ADC_DELSIG_Start
 712              		.thumb
 713              		.thumb_func
 714              		.type	ADC_DELSIG_Start, %function
 715              	ADC_DELSIG_Start:
 716              	.LFB2:
 335:Generated_Source\PSoC5/ADC_DELSIG.c ****     if(ADC_DELSIG_initVar == 0u)
 717              		.loc 1 335 0
 718              		.cfi_startproc
 719              		@ args = 0, pretend = 0, frame = 0
 720              		@ frame_needed = 0, uses_anonymous_args = 0
 721 0000 08B5     		push	{r3, lr}
 722              		.cfi_def_cfa_offset 8
 723              		.cfi_offset 3, -8
 724              		.cfi_offset 14, -4
 336:Generated_Source\PSoC5/ADC_DELSIG.c ****     {
 725              		.loc 1 336 0
 726 0002 084B     		ldr	r3, .L42
 727 0004 9B79     		ldrb	r3, [r3, #6]	@ zero_extendqisi2
 728 0006 4BB9     		cbnz	r3, .L39
 338:Generated_Source\PSoC5/ADC_DELSIG.c ****         {
 729              		.loc 1 338 0
 730 0008 064B     		ldr	r3, .L42
ARM GAS  C:\Users\Lory\AppData\Local\Temp\ccNUpijZ.s 			page 46


 731 000a DB79     		ldrb	r3, [r3, #7]	@ zero_extendqisi2
 732 000c 13F0FF0F 		tst	r3, #255
 733 0010 01D1     		bne	.L40
 340:Generated_Source\PSoC5/ADC_DELSIG.c ****         }
 734              		.loc 1 340 0
 735 0012 FFF7FEFF 		bl	ADC_DELSIG_Init
 736              	.LVL60:
 737              	.L40:
 342:Generated_Source\PSoC5/ADC_DELSIG.c ****     }
 738              		.loc 1 342 0
 739 0016 0122     		movs	r2, #1
 740 0018 024B     		ldr	r3, .L42
 741 001a 9A71     		strb	r2, [r3, #6]
 742              	.L39:
 346:Generated_Source\PSoC5/ADC_DELSIG.c **** }
 743              		.loc 1 346 0
 744 001c FFF7FEFF 		bl	ADC_DELSIG_Enable
 745              	.LVL61:
 746 0020 08BD     		pop	{r3, pc}
 747              	.L43:
 748 0022 00BF     		.align	2
 749              	.L42:
 750 0024 00000000 		.word	.LANCHOR0
 751              		.cfi_endproc
 752              	.LFE2:
 753              		.size	ADC_DELSIG_Start, .-ADC_DELSIG_Start
 754              		.section	.text.ADC_DELSIG_Stop,"ax",%progbits
 755              		.align	2
 756              		.global	ADC_DELSIG_Stop
 757              		.thumb
 758              		.thumb_func
 759              		.type	ADC_DELSIG_Stop, %function
 760              	ADC_DELSIG_Stop:
 761              	.LFB3:
 368:Generated_Source\PSoC5/ADC_DELSIG.c ****     uint8 enableInterrupts;
 762              		.loc 1 368 0
 763              		.cfi_startproc
 764              		@ args = 0, pretend = 0, frame = 0
 765              		@ frame_needed = 0, uses_anonymous_args = 0
 766 0000 70B5     		push	{r4, r5, r6, lr}
 767              		.cfi_def_cfa_offset 16
 768              		.cfi_offset 4, -16
 769              		.cfi_offset 5, -12
 770              		.cfi_offset 6, -8
 771              		.cfi_offset 14, -4
 370:Generated_Source\PSoC5/ADC_DELSIG.c **** 
 772              		.loc 1 370 0
 773 0002 FFF7FEFF 		bl	CyEnterCriticalSection
 774              	.LVL62:
 775 0006 0646     		mov	r6, r0
 776              	.LVL63:
 373:Generated_Source\PSoC5/ADC_DELSIG.c ****     ADC_DELSIG_DEC_SR_REG |=  ADC_DELSIG_DEC_INTR_CLEAR;
 777              		.loc 1 373 0
 778 0008 314A     		ldr	r2, .L46
 779 000a 1378     		ldrb	r3, [r2]	@ zero_extendqisi2
 780 000c 03F0FE03 		and	r3, r3, #254
 781 0010 1370     		strb	r3, [r2]
ARM GAS  C:\Users\Lory\AppData\Local\Temp\ccNUpijZ.s 			page 47


 374:Generated_Source\PSoC5/ADC_DELSIG.c **** 
 782              		.loc 1 374 0
 783 0012 0132     		adds	r2, r2, #1
 784 0014 1378     		ldrb	r3, [r2]	@ zero_extendqisi2
 785 0016 43F00403 		orr	r3, r3, #4
 786 001a 1370     		strb	r3, [r2]
 378:Generated_Source\PSoC5/ADC_DELSIG.c ****     ADC_DELSIG_RESET_CR5_REG |= ADC_DELSIG_IGNORE_PRESA2;
 787              		.loc 1 378 0
 788 001c 2D4D     		ldr	r5, .L46+4
 789 001e 2B78     		ldrb	r3, [r5]	@ zero_extendqisi2
 790 0020 43F00203 		orr	r3, r3, #2
 791 0024 2B70     		strb	r3, [r5]
 379:Generated_Source\PSoC5/ADC_DELSIG.c **** 
 792              		.loc 1 379 0
 793 0026 2C4C     		ldr	r4, .L46+8
 794 0028 2378     		ldrb	r3, [r4]	@ zero_extendqisi2
 795 002a 43F00203 		orr	r3, r3, #2
 796 002e 2370     		strb	r3, [r4]
 381:Generated_Source\PSoC5/ADC_DELSIG.c ****     ADC_DELSIG_DSM_REF0_REG &= (uint8)~ADC_DELSIG_DSM_EN_BUF_VREF_INN;
 797              		.loc 1 381 0
 798 0030 02F52962 		add	r2, r2, #2704
 799 0034 1378     		ldrb	r3, [r2]	@ zero_extendqisi2
 800 0036 03F0FC03 		and	r3, r3, #252
 801 003a 1370     		strb	r3, [r2]
 382:Generated_Source\PSoC5/ADC_DELSIG.c **** 
 802              		.loc 1 382 0
 803 003c 0132     		adds	r2, r2, #1
 804 003e 1378     		ldrb	r3, [r2]	@ zero_extendqisi2
 805 0040 03F0F703 		and	r3, r3, #247
 806 0044 1370     		strb	r3, [r2]
 385:Generated_Source\PSoC5/ADC_DELSIG.c **** 
 807              		.loc 1 385 0
 808 0046 0320     		movs	r0, #3
 809 0048 FFF7FEFF 		bl	CyDelayUs
 810              	.LVL64:
 388:Generated_Source\PSoC5/ADC_DELSIG.c ****     ADC_DELSIG_RESET_CR5_REG &= (uint8)~ADC_DELSIG_IGNORE_PRESA2;
 811              		.loc 1 388 0
 812 004c 2B78     		ldrb	r3, [r5]	@ zero_extendqisi2
 813 004e 03F0FD03 		and	r3, r3, #253
 814 0052 2B70     		strb	r3, [r5]
 389:Generated_Source\PSoC5/ADC_DELSIG.c **** 
 815              		.loc 1 389 0
 816 0054 2378     		ldrb	r3, [r4]	@ zero_extendqisi2
 817 0056 03F0FD03 		and	r3, r3, #253
 818 005a 2370     		strb	r3, [r4]
 392:Generated_Source\PSoC5/ADC_DELSIG.c **** 
 819              		.loc 1 392 0
 820 005c 1F4B     		ldr	r3, .L46+12
 821 005e 1A78     		ldrb	r2, [r3]	@ zero_extendqisi2
 822 0060 02F0EF02 		and	r2, r2, #239
 823 0064 1A70     		strb	r2, [r3]
 395:Generated_Source\PSoC5/ADC_DELSIG.c **** 
 824              		.loc 1 395 0
 825 0066 1A78     		ldrb	r2, [r3]	@ zero_extendqisi2
 826 0068 02F0FE02 		and	r2, r2, #254
 827 006c 1A70     		strb	r2, [r3]
 398:Generated_Source\PSoC5/ADC_DELSIG.c ****     ADC_DELSIG_STBY_PWRMGR_DSM_REG &= (uint8)~ADC_DELSIG_STBY_PWR_DSM_EN;
ARM GAS  C:\Users\Lory\AppData\Local\Temp\ccNUpijZ.s 			page 48


 828              		.loc 1 398 0
 829 006e 1033     		adds	r3, r3, #16
 830 0070 1A78     		ldrb	r2, [r3]	@ zero_extendqisi2
 831 0072 02F0FE02 		and	r2, r2, #254
 832 0076 1A70     		strb	r2, [r3]
 399:Generated_Source\PSoC5/ADC_DELSIG.c **** 
 833              		.loc 1 399 0
 834 0078 1A78     		ldrb	r2, [r3]	@ zero_extendqisi2
 835 007a 02F0EF02 		and	r2, r2, #239
 836 007e 1A70     		strb	r2, [r3]
 402:Generated_Source\PSoC5/ADC_DELSIG.c **** 
 837              		.loc 1 402 0
 838 0080 174A     		ldr	r2, .L46+16
 839 0082 1378     		ldrb	r3, [r2]	@ zero_extendqisi2
 840 0084 03F0F903 		and	r3, r3, #249
 841 0088 1370     		strb	r3, [r2]
 406:Generated_Source\PSoC5/ADC_DELSIG.c ****         ADC_DELSIG_STBY_PWRMGR_CLK_REG &= (uint8)~ADC_DELSIG_STBY_PWR_CLK_EN;
 842              		.loc 1 406 0
 843 008a A2F5A652 		sub	r2, r2, #5312
 844 008e 163A     		subs	r2, r2, #22
 845 0090 1378     		ldrb	r3, [r2]	@ zero_extendqisi2
 846 0092 03F0FE03 		and	r3, r3, #254
 847 0096 1370     		strb	r3, [r2]
 407:Generated_Source\PSoC5/ADC_DELSIG.c ****     #endif /* ADC_DELSIG_DEFAULT_INTERNAL_CLK */
 848              		.loc 1 407 0
 849 0098 1032     		adds	r2, r2, #16
 850 009a 1378     		ldrb	r3, [r2]	@ zero_extendqisi2
 851 009c 03F0FE03 		and	r3, r3, #254
 852 00a0 1370     		strb	r3, [r2]
 411:Generated_Source\PSoC5/ADC_DELSIG.c ****     /* Disable power to charge pump clock */
 853              		.loc 1 411 0
 854 00a2 02F5A652 		add	r2, r2, #5312
 855 00a6 1132     		adds	r2, r2, #17
 856 00a8 1378     		ldrb	r3, [r2]	@ zero_extendqisi2
 857 00aa 03F0F703 		and	r3, r3, #247
 858 00ae 1370     		strb	r3, [r2]
 413:Generated_Source\PSoC5/ADC_DELSIG.c ****     ADC_DELSIG_STBY_PWRMGR_CHARGE_PUMP_CLK_REG &= (uint8)~ADC_DELSIG_STBY_PWR_CHARGE_PUMP_CLK_EN;
 859              		.loc 1 413 0
 860 00b0 A2F5A752 		sub	r2, r2, #5344
 861 00b4 1378     		ldrb	r3, [r2]	@ zero_extendqisi2
 862 00b6 03F0FE03 		and	r3, r3, #254
 863 00ba 1370     		strb	r3, [r2]
 414:Generated_Source\PSoC5/ADC_DELSIG.c ****     
 864              		.loc 1 414 0
 865 00bc 1032     		adds	r2, r2, #16
 866 00be 1378     		ldrb	r3, [r2]	@ zero_extendqisi2
 867 00c0 03F0FE03 		and	r3, r3, #254
 868 00c4 1370     		strb	r3, [r2]
 416:Generated_Source\PSoC5/ADC_DELSIG.c **** }
 869              		.loc 1 416 0
 870 00c6 3046     		mov	r0, r6
 871 00c8 FFF7FEFF 		bl	CyExitCriticalSection
 872              	.LVL65:
 873 00cc 70BD     		pop	{r4, r5, r6, pc}
 874              	.LVL66:
 875              	.L47:
 876 00ce 00BF     		.align	2
ARM GAS  C:\Users\Lory\AppData\Local\Temp\ccNUpijZ.s 			page 49


 877              	.L46:
 878 00d0 004E0040 		.word	1073761792
 879 00d4 F8460040 		.word	1073759992
 880 00d8 F9460040 		.word	1073759993
 881 00dc AA430040 		.word	1073759146
 882 00e0 77580040 		.word	1073764471
 883              		.cfi_endproc
 884              	.LFE3:
 885              		.size	ADC_DELSIG_Stop, .-ADC_DELSIG_Stop
 886              		.section	.text.ADC_DELSIG_SetBufferGain,"ax",%progbits
 887              		.align	2
 888              		.global	ADC_DELSIG_SetBufferGain
 889              		.thumb
 890              		.thumb_func
 891              		.type	ADC_DELSIG_SetBufferGain, %function
 892              	ADC_DELSIG_SetBufferGain:
 893              	.LFB4:
 435:Generated_Source\PSoC5/ADC_DELSIG.c ****     uint8 tmpReg;
 894              		.loc 1 435 0
 895              		.cfi_startproc
 896              		@ args = 0, pretend = 0, frame = 0
 897              		@ frame_needed = 0, uses_anonymous_args = 0
 898              		@ link register save eliminated.
 899              	.LVL67:
 437:Generated_Source\PSoC5/ADC_DELSIG.c ****     tmpReg |= (uint8)(gain << ADC_DELSIG_DSM_GAIN_SHIFT) & ADC_DELSIG_DSM_GAIN_MASK;
 900              		.loc 1 437 0
 901 0000 044A     		ldr	r2, .L49
 902 0002 1378     		ldrb	r3, [r2]	@ zero_extendqisi2
 903 0004 03F0F303 		and	r3, r3, #243
 904              	.LVL68:
 438:Generated_Source\PSoC5/ADC_DELSIG.c ****     ADC_DELSIG_DSM_BUF1_REG = tmpReg;
 905              		.loc 1 438 0
 906 0008 8000     		lsls	r0, r0, #2
 907              	.LVL69:
 908 000a 00F00C00 		and	r0, r0, #12
 909 000e 1843     		orrs	r0, r0, r3
 910              	.LVL70:
 439:Generated_Source\PSoC5/ADC_DELSIG.c **** }
 911              		.loc 1 439 0
 912 0010 1070     		strb	r0, [r2]
 913 0012 7047     		bx	lr
 914              	.L50:
 915              		.align	2
 916              	.L49:
 917 0014 9B580040 		.word	1073764507
 918              		.cfi_endproc
 919              	.LFE4:
 920              		.size	ADC_DELSIG_SetBufferGain, .-ADC_DELSIG_SetBufferGain
 921              		.section	.text.ADC_DELSIG_SetCoherency,"ax",%progbits
 922              		.align	2
 923              		.global	ADC_DELSIG_SetCoherency
 924              		.thumb
 925              		.thumb_func
 926              		.type	ADC_DELSIG_SetCoherency, %function
 927              	ADC_DELSIG_SetCoherency:
 928              	.LFB5:
 471:Generated_Source\PSoC5/ADC_DELSIG.c ****     uint8 tmpReg;
ARM GAS  C:\Users\Lory\AppData\Local\Temp\ccNUpijZ.s 			page 50


 929              		.loc 1 471 0
 930              		.cfi_startproc
 931              		@ args = 0, pretend = 0, frame = 0
 932              		@ frame_needed = 0, uses_anonymous_args = 0
 933              		@ link register save eliminated.
 934              	.LVL71:
 474:Generated_Source\PSoC5/ADC_DELSIG.c ****     tmpReg |= coherency & ADC_DELSIG_DEC_SAMP_KEY_MASK;
 935              		.loc 1 474 0
 936 0000 044A     		ldr	r2, .L52
 937 0002 1378     		ldrb	r3, [r2]	@ zero_extendqisi2
 938 0004 03F0FC03 		and	r3, r3, #252
 939              	.LVL72:
 475:Generated_Source\PSoC5/ADC_DELSIG.c ****     ADC_DELSIG_DEC_COHER_REG = tmpReg;
 940              		.loc 1 475 0
 941 0008 00F00300 		and	r0, r0, #3
 942              	.LVL73:
 943 000c 1843     		orrs	r0, r0, r3
 944              	.LVL74:
 476:Generated_Source\PSoC5/ADC_DELSIG.c **** }
 945              		.loc 1 476 0
 946 000e 1070     		strb	r0, [r2]
 947 0010 7047     		bx	lr
 948              	.L53:
 949 0012 00BF     		.align	2
 950              	.L52:
 951 0014 144E0040 		.word	1073761812
 952              		.cfi_endproc
 953              	.LFE5:
 954              		.size	ADC_DELSIG_SetCoherency, .-ADC_DELSIG_SetCoherency
 955              		.global	__aeabi_ui2f
 956              		.global	__aeabi_fmul
 957              		.global	__aeabi_f2d
 958              		.global	__aeabi_dcmpgt
 959              		.global	__aeabi_f2uiz
 960              		.section	.text.ADC_DELSIG_SetGCOR,"ax",%progbits
 961              		.align	2
 962              		.global	ADC_DELSIG_SetGCOR
 963              		.thumb
 964              		.thumb_func
 965              		.type	ADC_DELSIG_SetGCOR, %function
 966              	ADC_DELSIG_SetGCOR:
 967              	.LFB6:
 511:Generated_Source\PSoC5/ADC_DELSIG.c ****     uint16 tmpReg;
 968              		.loc 1 511 0
 969              		.cfi_startproc
 970              		@ args = 0, pretend = 0, frame = 0
 971              		@ frame_needed = 0, uses_anonymous_args = 0
 972              	.LVL75:
 973 0000 10B5     		push	{r4, lr}
 974              		.cfi_def_cfa_offset 8
 975              		.cfi_offset 4, -8
 976              		.cfi_offset 14, -4
 977 0002 0446     		mov	r4, r0
 516:Generated_Source\PSoC5/ADC_DELSIG.c ****     tmpValue = ((float32)tmpReg / (float32)ADC_DELSIG_IDEAL_GAIN_CONST);
 978              		.loc 1 516 0
 979 0004 184B     		ldr	r3, .L58+8
 980 0006 1B78     		ldrb	r3, [r3]	@ zero_extendqisi2
ARM GAS  C:\Users\Lory\AppData\Local\Temp\ccNUpijZ.s 			page 51


 981 0008 013B     		subs	r3, r3, #1
 982              	.LVL76:
 517:Generated_Source\PSoC5/ADC_DELSIG.c ****     tmpValue = tmpValue * gainAdjust;
 983              		.loc 1 517 0
 984 000a 184A     		ldr	r2, .L58+12
 985 000c 32F82300 		ldrh	r0, [r2, r3, lsl #2]
 986              	.LVL77:
 987 0010 FFF7FEFF 		bl	__aeabi_ui2f
 988              	.LVL78:
 989 0014 4FF06051 		mov	r1, #939524096
 990 0018 FFF7FEFF 		bl	__aeabi_fmul
 991              	.LVL79:
 518:Generated_Source\PSoC5/ADC_DELSIG.c **** 
 992              		.loc 1 518 0
 993 001c 2146     		mov	r1, r4
 994 001e FFF7FEFF 		bl	__aeabi_fmul
 995              	.LVL80:
 996 0022 0446     		mov	r4, r0
 997              	.LVL81:
 520:Generated_Source\PSoC5/ADC_DELSIG.c ****     {
 998              		.loc 1 520 0
 999 0024 FFF7FEFF 		bl	__aeabi_f2d
 1000              	.LVL82:
 1001 0028 0DA3     		adr	r3, .L58
 1002 002a D3E90023 		ldrd	r2, [r3]
 1003 002e FFF7FEFF 		bl	__aeabi_dcmpgt
 1004              	.LVL83:
 1005 0032 88B9     		cbnz	r0, .L56
 526:Generated_Source\PSoC5/ADC_DELSIG.c **** 		tmpReg = (uint16)tmpValue;
 1006              		.loc 1 526 0
 1007 0034 4FF08E41 		mov	r1, #1191182336
 1008 0038 2046     		mov	r0, r4
 1009 003a FFF7FEFF 		bl	__aeabi_fmul
 1010              	.LVL84:
 527:Generated_Source\PSoC5/ADC_DELSIG.c ****         CY_SET_REG16(ADC_DELSIG_DEC_GCOR_16B_PTR, tmpReg);
 1011              		.loc 1 527 0
 1012 003e FFF7FEFF 		bl	__aeabi_f2uiz
 1013              	.LVL85:
 1014 0042 80B2     		uxth	r0, r0
 1015              	.LVL86:
 528:Generated_Source\PSoC5/ADC_DELSIG.c ****         /* Update gain array to be used by SelectConfiguration() API */
 1016              		.loc 1 528 0
 1017 0044 0A4B     		ldr	r3, .L58+16
 1018 0046 1880     		strh	r0, [r3]	@ movhi
 530:Generated_Source\PSoC5/ADC_DELSIG.c **** 
 1019              		.loc 1 530 0
 1020 0048 074B     		ldr	r3, .L58+8
 1021 004a 1B78     		ldrb	r3, [r3]	@ zero_extendqisi2
 1022 004c 013B     		subs	r3, r3, #1
 1023 004e 074A     		ldr	r2, .L58+12
 1024 0050 22F82300 		strh	r0, [r2, r3, lsl #2]	@ movhi
 1025              	.LVL87:
 532:Generated_Source\PSoC5/ADC_DELSIG.c **** 
 1026              		.loc 1 532 0
 1027 0054 0020     		movs	r0, #0
 1028              	.LVL88:
 1029 0056 10BD     		pop	{r4, pc}
ARM GAS  C:\Users\Lory\AppData\Local\Temp\ccNUpijZ.s 			page 52


 1030              	.LVL89:
 1031              	.L56:
 522:Generated_Source\PSoC5/ADC_DELSIG.c ****     }
 1032              		.loc 1 522 0
 1033 0058 0120     		movs	r0, #1
 1034              	.LVL90:
 536:Generated_Source\PSoC5/ADC_DELSIG.c **** 
 1035              		.loc 1 536 0
 1036 005a 10BD     		pop	{r4, pc}
 1037              	.LVL91:
 1038              	.L59:
 1039 005c AFF30080 		.align	3
 1040              	.L58:
 1041 0060 8F537424 		.word	611603343
 1042 0064 97FFFF3F 		.word	1073741719
 1043 0068 00000000 		.word	.LANCHOR1
 1044 006c 00000000 		.word	.LANCHOR0
 1045 0070 0C4E0040 		.word	1073761804
 1046              		.cfi_endproc
 1047              	.LFE6:
 1048              		.size	ADC_DELSIG_SetGCOR, .-ADC_DELSIG_SetGCOR
 1049              		.section	.text.ADC_DELSIG_ReadGCOR,"ax",%progbits
 1050              		.align	2
 1051              		.global	ADC_DELSIG_ReadGCOR
 1052              		.thumb
 1053              		.thumb_func
 1054              		.type	ADC_DELSIG_ReadGCOR, %function
 1055              	ADC_DELSIG_ReadGCOR:
 1056              	.LFB7:
 558:Generated_Source\PSoC5/ADC_DELSIG.c ****     uint8 gValue;
 1057              		.loc 1 558 0
 1058              		.cfi_startproc
 1059              		@ args = 0, pretend = 0, frame = 0
 1060              		@ frame_needed = 0, uses_anonymous_args = 0
 1061              		@ link register save eliminated.
 562:Generated_Source\PSoC5/ADC_DELSIG.c ****     gcorValue = CY_GET_REG16(ADC_DELSIG_DEC_GCOR_16B_PTR);
 1062              		.loc 1 562 0
 1063 0000 064B     		ldr	r3, .L62
 1064 0002 1B78     		ldrb	r3, [r3]	@ zero_extendqisi2
 1065 0004 DBB2     		uxtb	r3, r3
 1066              	.LVL92:
 563:Generated_Source\PSoC5/ADC_DELSIG.c **** 
 1067              		.loc 1 563 0
 1068 0006 064A     		ldr	r2, .L62+4
 1069 0008 1088     		ldrh	r0, [r2]
 1070 000a 80B2     		uxth	r0, r0
 1071              	.LVL93:
 565:Generated_Source\PSoC5/ADC_DELSIG.c ****     {
 1072              		.loc 1 565 0
 1073 000c 0E2B     		cmp	r3, #14
 1074 000e 03D8     		bhi	.L61
 567:Generated_Source\PSoC5/ADC_DELSIG.c ****     }
 1075              		.loc 1 567 0
 1076 0010 C3F10F03 		rsb	r3, r3, #15
 1077              	.LVL94:
 1078 0014 9840     		lsls	r0, r0, r3
 1079              	.LVL95:
ARM GAS  C:\Users\Lory\AppData\Local\Temp\ccNUpijZ.s 			page 53


 1080 0016 80B2     		uxth	r0, r0
 1081              	.LVL96:
 1082              	.L61:
 571:Generated_Source\PSoC5/ADC_DELSIG.c **** 
 1083              		.loc 1 571 0
 1084 0018 7047     		bx	lr
 1085              	.L63:
 1086 001a 00BF     		.align	2
 1087              	.L62:
 1088 001c 0E4E0040 		.word	1073761806
 1089 0020 0C4E0040 		.word	1073761804
 1090              		.cfi_endproc
 1091              	.LFE7:
 1092              		.size	ADC_DELSIG_ReadGCOR, .-ADC_DELSIG_ReadGCOR
 1093              		.section	.text.ADC_DELSIG_StartConvert,"ax",%progbits
 1094              		.align	2
 1095              		.global	ADC_DELSIG_StartConvert
 1096              		.thumb
 1097              		.thumb_func
 1098              		.type	ADC_DELSIG_StartConvert, %function
 1099              	ADC_DELSIG_StartConvert:
 1100              	.LFB8:
 592:Generated_Source\PSoC5/ADC_DELSIG.c ****     /* Start the conversion */
 1101              		.loc 1 592 0
 1102              		.cfi_startproc
 1103              		@ args = 0, pretend = 0, frame = 0
 1104              		@ frame_needed = 0, uses_anonymous_args = 0
 1105              		@ link register save eliminated.
 594:Generated_Source\PSoC5/ADC_DELSIG.c **** }
 1106              		.loc 1 594 0
 1107 0000 024A     		ldr	r2, .L65
 1108 0002 1378     		ldrb	r3, [r2]	@ zero_extendqisi2
 1109 0004 43F00103 		orr	r3, r3, #1
 1110 0008 1370     		strb	r3, [r2]
 1111 000a 7047     		bx	lr
 1112              	.L66:
 1113              		.align	2
 1114              	.L65:
 1115 000c 004E0040 		.word	1073761792
 1116              		.cfi_endproc
 1117              	.LFE8:
 1118              		.size	ADC_DELSIG_StartConvert, .-ADC_DELSIG_StartConvert
 1119              		.section	.text.ADC_DELSIG_StopConvert,"ax",%progbits
 1120              		.align	2
 1121              		.global	ADC_DELSIG_StopConvert
 1122              		.thumb
 1123              		.thumb_func
 1124              		.type	ADC_DELSIG_StopConvert, %function
 1125              	ADC_DELSIG_StopConvert:
 1126              	.LFB9:
 615:Generated_Source\PSoC5/ADC_DELSIG.c ****     /* Stop all conversions */
 1127              		.loc 1 615 0
 1128              		.cfi_startproc
 1129              		@ args = 0, pretend = 0, frame = 0
 1130              		@ frame_needed = 0, uses_anonymous_args = 0
 1131              		@ link register save eliminated.
 617:Generated_Source\PSoC5/ADC_DELSIG.c **** }
ARM GAS  C:\Users\Lory\AppData\Local\Temp\ccNUpijZ.s 			page 54


 1132              		.loc 1 617 0
 1133 0000 024A     		ldr	r2, .L68
 1134 0002 1378     		ldrb	r3, [r2]	@ zero_extendqisi2
 1135 0004 03F0FE03 		and	r3, r3, #254
 1136 0008 1370     		strb	r3, [r2]
 1137 000a 7047     		bx	lr
 1138              	.L69:
 1139              		.align	2
 1140              	.L68:
 1141 000c 004E0040 		.word	1073761792
 1142              		.cfi_endproc
 1143              	.LFE9:
 1144              		.size	ADC_DELSIG_StopConvert, .-ADC_DELSIG_StopConvert
 1145              		.section	.text.ADC_DELSIG_IsEndConversion,"ax",%progbits
 1146              		.align	2
 1147              		.global	ADC_DELSIG_IsEndConversion
 1148              		.thumb
 1149              		.thumb_func
 1150              		.type	ADC_DELSIG_IsEndConversion, %function
 1151              	ADC_DELSIG_IsEndConversion:
 1152              	.LFB10:
 650:Generated_Source\PSoC5/ADC_DELSIG.c ****     uint8 status;
 1153              		.loc 1 650 0
 1154              		.cfi_startproc
 1155              		@ args = 0, pretend = 0, frame = 0
 1156              		@ frame_needed = 0, uses_anonymous_args = 0
 1157              		@ link register save eliminated.
 1158              	.LVL97:
 1159              	.L74:
 658:Generated_Source\PSoC5/ADC_DELSIG.c ****         {
 1160              		.loc 1 658 0
 1161 0000 094B     		ldr	r3, .L75
 1162 0002 1B79     		ldrb	r3, [r3, #4]	@ zero_extendqisi2
 1163 0004 13F0FF0F 		tst	r3, #255
 1164 0008 03D0     		beq	.L71
 660:Generated_Source\PSoC5/ADC_DELSIG.c ****         }
 1165              		.loc 1 660 0
 1166 000a 074B     		ldr	r3, .L75
 1167 000c 5B79     		ldrb	r3, [r3, #5]	@ zero_extendqisi2
 1168 000e DBB2     		uxtb	r3, r3
 1169              	.LVL98:
 1170 0010 03E0     		b	.L72
 1171              	.LVL99:
 1172              	.L71:
 664:Generated_Source\PSoC5/ADC_DELSIG.c ****         }
 1173              		.loc 1 664 0
 1174 0012 064B     		ldr	r3, .L75+4
 1175 0014 1B78     		ldrb	r3, [r3]	@ zero_extendqisi2
 1176 0016 03F00103 		and	r3, r3, #1
 1177              	.LVL100:
 1178              	.L72:
 666:Generated_Source\PSoC5/ADC_DELSIG.c **** 
 1179              		.loc 1 666 0
 1180 001a 012B     		cmp	r3, #1
 1181 001c 01D0     		beq	.L73
 666:Generated_Source\PSoC5/ADC_DELSIG.c **** 
 1182              		.loc 1 666 0 is_stmt 0 discriminator 1
ARM GAS  C:\Users\Lory\AppData\Local\Temp\ccNUpijZ.s 			page 55


 1183 001e 0028     		cmp	r0, #0
 1184 0020 EED0     		beq	.L74
 1185              	.L73:
 669:Generated_Source\PSoC5/ADC_DELSIG.c **** 
 1186              		.loc 1 669 0 is_stmt 1
 1187 0022 1846     		mov	r0, r3
 1188              	.LVL101:
 1189 0024 7047     		bx	lr
 1190              	.L76:
 1191 0026 00BF     		.align	2
 1192              	.L75:
 1193 0028 00000000 		.word	.LANCHOR0
 1194 002c 014E0040 		.word	1073761793
 1195              		.cfi_endproc
 1196              	.LFE10:
 1197              		.size	ADC_DELSIG_IsEndConversion, .-ADC_DELSIG_IsEndConversion
 1198              		.section	.text.ADC_DELSIG_GetResult8,"ax",%progbits
 1199              		.align	2
 1200              		.global	ADC_DELSIG_GetResult8
 1201              		.thumb
 1202              		.thumb_func
 1203              		.type	ADC_DELSIG_GetResult8, %function
 1204              	ADC_DELSIG_GetResult8:
 1205              	.LFB11:
 697:Generated_Source\PSoC5/ADC_DELSIG.c ****     int8 result;
 1206              		.loc 1 697 0
 1207              		.cfi_startproc
 1208              		@ args = 0, pretend = 0, frame = 0
 1209              		@ frame_needed = 0, uses_anonymous_args = 0
 1210              		@ link register save eliminated.
 702:Generated_Source\PSoC5/ADC_DELSIG.c **** 
 1211              		.loc 1 702 0
 1212 0000 0C4B     		ldr	r3, .L81
 1213 0002 1B78     		ldrb	r3, [r3]	@ zero_extendqisi2
 1214 0004 03F00303 		and	r3, r3, #3
 1215              	.LVL102:
 704:Generated_Source\PSoC5/ADC_DELSIG.c **** 
 1216              		.loc 1 704 0
 1217 0008 0B4A     		ldr	r2, .L81+4
 1218 000a 1078     		ldrb	r0, [r2]	@ zero_extendqisi2
 1219 000c 40B2     		sxtb	r0, r0
 1220              	.LVL103:
 706:Generated_Source\PSoC5/ADC_DELSIG.c ****     {   /* Dummy read of the middle byte to unlock the coherency */
 1221              		.loc 1 706 0
 1222 000e 022B     		cmp	r3, #2
 1223 0010 02D1     		bne	.L78
 708:Generated_Source\PSoC5/ADC_DELSIG.c ****     }
 1224              		.loc 1 708 0
 1225 0012 0A4B     		ldr	r3, .L81+8
 1226              	.LVL104:
 1227 0014 1B78     		ldrb	r3, [r3]	@ zero_extendqisi2
 1228 0016 03E0     		b	.L79
 1229              	.LVL105:
 1230              	.L78:
 710:Generated_Source\PSoC5/ADC_DELSIG.c ****     {   /* Dummy read of the MSB byte to unlock the coherency */
 1231              		.loc 1 710 0
 1232 0018 032B     		cmp	r3, #3
ARM GAS  C:\Users\Lory\AppData\Local\Temp\ccNUpijZ.s 			page 56


 1233 001a 01D1     		bne	.L79
 712:Generated_Source\PSoC5/ADC_DELSIG.c ****     }
 1234              		.loc 1 712 0
 1235 001c 084B     		ldr	r3, .L81+12
 1236              	.LVL106:
 1237 001e 1B78     		ldrb	r3, [r3]	@ zero_extendqisi2
 1238              	.L79:
 718:Generated_Source\PSoC5/ADC_DELSIG.c ****     {
 1239              		.loc 1 718 0
 1240 0020 084B     		ldr	r3, .L81+16
 1241 0022 1B79     		ldrb	r3, [r3, #4]	@ zero_extendqisi2
 1242 0024 13F0FF0F 		tst	r3, #255
 1243 0028 02D0     		beq	.L80
 720:Generated_Source\PSoC5/ADC_DELSIG.c ****     }
 1244              		.loc 1 720 0
 1245 002a 0022     		movs	r2, #0
 1246 002c 054B     		ldr	r3, .L81+16
 1247 002e 5A71     		strb	r2, [r3, #5]
 1248              	.L80:
 723:Generated_Source\PSoC5/ADC_DELSIG.c **** 
 1249              		.loc 1 723 0
 1250 0030 7047     		bx	lr
 1251              	.L82:
 1252 0032 00BF     		.align	2
 1253              	.L81:
 1254 0034 144E0040 		.word	1073761812
 1255 0038 104E0040 		.word	1073761808
 1256 003c 114E0040 		.word	1073761809
 1257 0040 124E0040 		.word	1073761810
 1258 0044 00000000 		.word	.LANCHOR0
 1259              		.cfi_endproc
 1260              	.LFE11:
 1261              		.size	ADC_DELSIG_GetResult8, .-ADC_DELSIG_GetResult8
 1262              		.section	.text.ADC_DELSIG_GetResult16,"ax",%progbits
 1263              		.align	2
 1264              		.global	ADC_DELSIG_GetResult16
 1265              		.thumb
 1266              		.thumb_func
 1267              		.type	ADC_DELSIG_GetResult16, %function
 1268              	ADC_DELSIG_GetResult16:
 1269              	.LFB12:
 751:Generated_Source\PSoC5/ADC_DELSIG.c ****     uint16 result;
 1270              		.loc 1 751 0
 1271              		.cfi_startproc
 1272              		@ args = 0, pretend = 0, frame = 0
 1273              		@ frame_needed = 0, uses_anonymous_args = 0
 1274              		@ link register save eliminated.
 756:Generated_Source\PSoC5/ADC_DELSIG.c **** 
 1275              		.loc 1 756 0
 1276 0000 0E4B     		ldr	r3, .L87
 1277 0002 1B78     		ldrb	r3, [r3]	@ zero_extendqisi2
 1278 0004 03F00303 		and	r3, r3, #3
 1279              	.LVL107:
 758:Generated_Source\PSoC5/ADC_DELSIG.c ****     {   /*  Use default method to read result registers i.e. LSB byte read at the end*/
 1280              		.loc 1 758 0
 1281 0008 012B     		cmp	r3, #1
 1282 000a 03D8     		bhi	.L84
ARM GAS  C:\Users\Lory\AppData\Local\Temp\ccNUpijZ.s 			page 57


 764:Generated_Source\PSoC5/ADC_DELSIG.c ****         #endif /* CY_PSOC3 */
 1283              		.loc 1 764 0
 1284 000c 0C4B     		ldr	r3, .L87+4
 1285              	.LVL108:
 1286 000e 1888     		ldrh	r0, [r3]
 1287 0010 80B2     		uxth	r0, r0
 1288              	.LVL109:
 1289 0012 09E0     		b	.L85
 1290              	.LVL110:
 1291              	.L84:
 772:Generated_Source\PSoC5/ADC_DELSIG.c ****             result |=  (uint16)((uint16)ADC_DELSIG_DEC_SAMPM_REG << 8u);
 1292              		.loc 1 772 0
 1293 0014 0A4A     		ldr	r2, .L87+4
 1294 0016 1278     		ldrb	r2, [r2]	@ zero_extendqisi2
 1295              	.LVL111:
 773:Generated_Source\PSoC5/ADC_DELSIG.c ****         #endif /* CY_PSOC3 */
 1296              		.loc 1 773 0
 1297 0018 0A49     		ldr	r1, .L87+8
 1298 001a 0878     		ldrb	r0, [r1]	@ zero_extendqisi2
 1299 001c 42EA0020 		orr	r0, r2, r0, lsl #8
 1300              	.LVL112:
 775:Generated_Source\PSoC5/ADC_DELSIG.c ****         {   /* Dummy read of the MSB byte to unlock the coherency */
 1301              		.loc 1 775 0
 1302 0020 032B     		cmp	r3, #3
 1303 0022 01D1     		bne	.L85
 777:Generated_Source\PSoC5/ADC_DELSIG.c ****         }
 1304              		.loc 1 777 0
 1305 0024 084B     		ldr	r3, .L87+12
 1306              	.LVL113:
 1307 0026 1B78     		ldrb	r3, [r3]	@ zero_extendqisi2
 1308              	.L85:
 781:Generated_Source\PSoC5/ADC_DELSIG.c ****     {
 1309              		.loc 1 781 0
 1310 0028 084B     		ldr	r3, .L87+16
 1311 002a 1B79     		ldrb	r3, [r3, #4]	@ zero_extendqisi2
 1312 002c 13F0FF0F 		tst	r3, #255
 1313 0030 02D0     		beq	.L86
 783:Generated_Source\PSoC5/ADC_DELSIG.c ****     }
 1314              		.loc 1 783 0
 1315 0032 0022     		movs	r2, #0
 1316 0034 054B     		ldr	r3, .L87+16
 1317 0036 5A71     		strb	r2, [r3, #5]
 1318              	.L86:
 787:Generated_Source\PSoC5/ADC_DELSIG.c **** 
 1319              		.loc 1 787 0
 1320 0038 00B2     		sxth	r0, r0
 1321 003a 7047     		bx	lr
 1322              	.L88:
 1323              		.align	2
 1324              	.L87:
 1325 003c 144E0040 		.word	1073761812
 1326 0040 104E0040 		.word	1073761808
 1327 0044 114E0040 		.word	1073761809
 1328 0048 124E0040 		.word	1073761810
 1329 004c 00000000 		.word	.LANCHOR0
 1330              		.cfi_endproc
 1331              	.LFE12:
ARM GAS  C:\Users\Lory\AppData\Local\Temp\ccNUpijZ.s 			page 58


 1332              		.size	ADC_DELSIG_GetResult16, .-ADC_DELSIG_GetResult16
 1333              		.section	.text.ADC_DELSIG_GetResult32,"ax",%progbits
 1334              		.align	2
 1335              		.global	ADC_DELSIG_GetResult32
 1336              		.thumb
 1337              		.thumb_func
 1338              		.type	ADC_DELSIG_GetResult32, %function
 1339              	ADC_DELSIG_GetResult32:
 1340              	.LFB13:
 811:Generated_Source\PSoC5/ADC_DELSIG.c ****     uint32 result;
 1341              		.loc 1 811 0
 1342              		.cfi_startproc
 1343              		@ args = 0, pretend = 0, frame = 0
 1344              		@ frame_needed = 0, uses_anonymous_args = 0
 1345              		@ link register save eliminated.
 819:Generated_Source\PSoC5/ADC_DELSIG.c **** 
 1346              		.loc 1 819 0
 1347 0000 154B     		ldr	r3, .L94
 1348 0002 1B78     		ldrb	r3, [r3]	@ zero_extendqisi2
 1349 0004 03F00303 		and	r3, r3, #3
 1350              	.LVL114:
 821:Generated_Source\PSoC5/ADC_DELSIG.c ****     {   /*  Use default method to read result registers i.e. LSB byte read at the end*/
 1351              		.loc 1 821 0
 1352 0008 012B     		cmp	r3, #1
 1353 000a 07D8     		bhi	.L90
 832:Generated_Source\PSoC5/ADC_DELSIG.c ****             result = (result << 16u) | (CY_GET_REG16(ADC_DELSIG_DEC_SAMP_16B_PTR));
 1354              		.loc 1 832 0
 1355 000c 134B     		ldr	r3, .L94+4
 1356              	.LVL115:
 1357 000e 1888     		ldrh	r0, [r3]
 1358              	.LVL116:
 833:Generated_Source\PSoC5/ADC_DELSIG.c ****         #endif /* CY_PSOC3 */
 1359              		.loc 1 833 0
 1360 0010 023B     		subs	r3, r3, #2
 1361 0012 1B88     		ldrh	r3, [r3]
 1362 0014 9BB2     		uxth	r3, r3
 1363 0016 43EA0040 		orr	r0, r3, r0, lsl #16
 1364              	.LVL117:
 1365 001a 13E0     		b	.L91
 1366              	.LVL118:
 1367              	.L90:
 836:Generated_Source\PSoC5/ADC_DELSIG.c ****     {   /* Read middle byte at the end */
 1368              		.loc 1 836 0
 1369 001c 022B     		cmp	r3, #2
 1370 001e 0AD1     		bne	.L92
 846:Generated_Source\PSoC5/ADC_DELSIG.c ****             result = (result << 16u) | ADC_DELSIG_DEC_SAMP_REG;
 1371              		.loc 1 846 0
 1372 0020 0E4B     		ldr	r3, .L94+4
 1373              	.LVL119:
 1374 0022 1888     		ldrh	r0, [r3]
 1375              	.LVL120:
 847:Generated_Source\PSoC5/ADC_DELSIG.c ****             result |=  (uint32)((uint32)ADC_DELSIG_DEC_SAMPM_REG << 8u);
 1376              		.loc 1 847 0
 1377 0024 023B     		subs	r3, r3, #2
 1378 0026 1B78     		ldrb	r3, [r3]	@ zero_extendqisi2
 1379 0028 43EA0043 		orr	r3, r3, r0, lsl #16
 1380              	.LVL121:
ARM GAS  C:\Users\Lory\AppData\Local\Temp\ccNUpijZ.s 			page 59


 848:Generated_Source\PSoC5/ADC_DELSIG.c ****         #endif /* CY_PSOC3 */
 1381              		.loc 1 848 0
 1382 002c 0C4A     		ldr	r2, .L94+8
 1383 002e 1078     		ldrb	r0, [r2]	@ zero_extendqisi2
 1384 0030 43EA0020 		orr	r0, r3, r0, lsl #8
 1385              	.LVL122:
 1386 0034 06E0     		b	.L91
 1387              	.LVL123:
 1388              	.L92:
 863:Generated_Source\PSoC5/ADC_DELSIG.c ****             result |= (uint32)((uint32)CY_GET_REG16(ADC_DELSIG_DEC_SAMPH_16B_PTR) << 16u);
 1389              		.loc 1 863 0
 1390 0036 0B4B     		ldr	r3, .L94+12
 1391              	.LVL124:
 1392 0038 1888     		ldrh	r0, [r3]
 1393 003a 83B2     		uxth	r3, r0
 1394              	.LVL125:
 864:Generated_Source\PSoC5/ADC_DELSIG.c ****         #endif /* CY_PSOC3 */
 1395              		.loc 1 864 0
 1396 003c 074A     		ldr	r2, .L94+4
 1397 003e 1088     		ldrh	r0, [r2]
 1398 0040 43EA0040 		orr	r0, r3, r0, lsl #16
 1399              	.LVL126:
 1400              	.L91:
 868:Generated_Source\PSoC5/ADC_DELSIG.c ****     {
 1401              		.loc 1 868 0
 1402 0044 084B     		ldr	r3, .L94+16
 1403 0046 1B79     		ldrb	r3, [r3, #4]	@ zero_extendqisi2
 1404 0048 13F0FF0F 		tst	r3, #255
 1405 004c 02D0     		beq	.L93
 870:Generated_Source\PSoC5/ADC_DELSIG.c ****     }
 1406              		.loc 1 870 0
 1407 004e 0022     		movs	r2, #0
 1408 0050 054B     		ldr	r3, .L94+16
 1409 0052 5A71     		strb	r2, [r3, #5]
 1410              	.L93:
 874:Generated_Source\PSoC5/ADC_DELSIG.c **** 
 1411              		.loc 1 874 0
 1412 0054 7047     		bx	lr
 1413              	.L95:
 1414 0056 00BF     		.align	2
 1415              	.L94:
 1416 0058 144E0040 		.word	1073761812
 1417 005c 124E0040 		.word	1073761810
 1418 0060 114E0040 		.word	1073761809
 1419 0064 104E0040 		.word	1073761808
 1420 0068 00000000 		.word	.LANCHOR0
 1421              		.cfi_endproc
 1422              	.LFE13:
 1423              		.size	ADC_DELSIG_GetResult32, .-ADC_DELSIG_GetResult32
 1424              		.section	.text.ADC_DELSIG_SetOffset,"ax",%progbits
 1425              		.align	2
 1426              		.global	ADC_DELSIG_SetOffset
 1427              		.thumb
 1428              		.thumb_func
 1429              		.type	ADC_DELSIG_SetOffset, %function
 1430              	ADC_DELSIG_SetOffset:
 1431              	.LFB14:
ARM GAS  C:\Users\Lory\AppData\Local\Temp\ccNUpijZ.s 			page 60


 904:Generated_Source\PSoC5/ADC_DELSIG.c **** 
 1432              		.loc 1 904 0
 1433              		.cfi_startproc
 1434              		@ args = 0, pretend = 0, frame = 0
 1435              		@ frame_needed = 0, uses_anonymous_args = 0
 1436              		@ link register save eliminated.
 1437              	.LVL127:
 906:Generated_Source\PSoC5/ADC_DELSIG.c **** }
 1438              		.loc 1 906 0
 1439 0000 014B     		ldr	r3, .L97
 1440 0002 9860     		str	r0, [r3, #8]
 1441 0004 7047     		bx	lr
 1442              	.L98:
 1443 0006 00BF     		.align	2
 1444              	.L97:
 1445 0008 00000000 		.word	.LANCHOR0
 1446              		.cfi_endproc
 1447              	.LFE14:
 1448              		.size	ADC_DELSIG_SetOffset, .-ADC_DELSIG_SetOffset
 1449              		.section	.text.ADC_DELSIG_SetGain,"ax",%progbits
 1450              		.align	2
 1451              		.global	ADC_DELSIG_SetGain
 1452              		.thumb
 1453              		.thumb_func
 1454              		.type	ADC_DELSIG_SetGain, %function
 1455              	ADC_DELSIG_SetGain:
 1456              	.LFB15:
 939:Generated_Source\PSoC5/ADC_DELSIG.c ****     ADC_DELSIG_CountsPerVolt = adcGain;
 1457              		.loc 1 939 0
 1458              		.cfi_startproc
 1459              		@ args = 0, pretend = 0, frame = 0
 1460              		@ frame_needed = 0, uses_anonymous_args = 0
 1461              		@ link register save eliminated.
 1462              	.LVL128:
 940:Generated_Source\PSoC5/ADC_DELSIG.c **** }
 1463              		.loc 1 940 0
 1464 0000 014B     		ldr	r3, .L100
 1465 0002 1860     		str	r0, [r3]
 1466 0004 7047     		bx	lr
 1467              	.L101:
 1468 0006 00BF     		.align	2
 1469              	.L100:
 1470 0008 00000000 		.word	ADC_DELSIG_CountsPerVolt
 1471              		.cfi_endproc
 1472              	.LFE15:
 1473              		.size	ADC_DELSIG_SetGain, .-ADC_DELSIG_SetGain
 1474              		.section	.text.ADC_DELSIG_CountsTo_mVolts,"ax",%progbits
 1475              		.align	2
 1476              		.global	ADC_DELSIG_CountsTo_mVolts
 1477              		.thumb
 1478              		.thumb_func
 1479              		.type	ADC_DELSIG_CountsTo_mVolts, %function
 1480              	ADC_DELSIG_CountsTo_mVolts:
 1481              	.LFB16:
 966:Generated_Source\PSoC5/ADC_DELSIG.c **** 
 1482              		.loc 1 966 0
 1483              		.cfi_startproc
ARM GAS  C:\Users\Lory\AppData\Local\Temp\ccNUpijZ.s 			page 61


 1484              		@ args = 0, pretend = 0, frame = 0
 1485              		@ frame_needed = 0, uses_anonymous_args = 0
 1486              		@ link register save eliminated.
 1487              	.LVL129:
 997:Generated_Source\PSoC5/ADC_DELSIG.c **** 
 1488              		.loc 1 997 0
 1489 0000 064B     		ldr	r3, .L103
 1490 0002 9B68     		ldr	r3, [r3, #8]
 1491 0004 C01A     		subs	r0, r0, r3
 1492              	.LVL130:
 999:Generated_Source\PSoC5/ADC_DELSIG.c **** 
 1493              		.loc 1 999 0
 1494 0006 4FF47A73 		mov	r3, #1000
 1495 000a 03FB00F0 		mul	r0, r3, r0
 1496              	.LVL131:
 1497 000e 044B     		ldr	r3, .L103+4
 1498 0010 1B68     		ldr	r3, [r3]
 1499 0012 90FBF3F0 		sdiv	r0, r0, r3
 1500              	.LVL132:
1002:Generated_Source\PSoC5/ADC_DELSIG.c **** 
 1501              		.loc 1 1002 0
 1502 0016 00B2     		sxth	r0, r0
 1503 0018 7047     		bx	lr
 1504              	.L104:
 1505 001a 00BF     		.align	2
 1506              	.L103:
 1507 001c 00000000 		.word	.LANCHOR0
 1508 0020 00000000 		.word	ADC_DELSIG_CountsPerVolt
 1509              		.cfi_endproc
 1510              	.LFE16:
 1511              		.size	ADC_DELSIG_CountsTo_mVolts, .-ADC_DELSIG_CountsTo_mVolts
 1512              		.global	__aeabi_i2f
 1513              		.global	__aeabi_fdiv
 1514              		.section	.text.ADC_DELSIG_CountsTo_Volts,"ax",%progbits
 1515              		.align	2
 1516              		.global	ADC_DELSIG_CountsTo_Volts
 1517              		.thumb
 1518              		.thumb_func
 1519              		.type	ADC_DELSIG_CountsTo_Volts, %function
 1520              	ADC_DELSIG_CountsTo_Volts:
 1521              	.LFB17:
1027:Generated_Source\PSoC5/ADC_DELSIG.c **** 
 1522              		.loc 1 1027 0
 1523              		.cfi_startproc
 1524              		@ args = 0, pretend = 0, frame = 0
 1525              		@ frame_needed = 0, uses_anonymous_args = 0
 1526              	.LVL133:
 1527 0000 10B5     		push	{r4, lr}
 1528              		.cfi_def_cfa_offset 8
 1529              		.cfi_offset 4, -8
 1530              		.cfi_offset 14, -4
1058:Generated_Source\PSoC5/ADC_DELSIG.c **** 
 1531              		.loc 1 1058 0
 1532 0002 074B     		ldr	r3, .L107
 1533 0004 9B68     		ldr	r3, [r3, #8]
 1534              	.LVL134:
1060:Generated_Source\PSoC5/ADC_DELSIG.c **** 
ARM GAS  C:\Users\Lory\AppData\Local\Temp\ccNUpijZ.s 			page 62


 1535              		.loc 1 1060 0
 1536 0006 C01A     		subs	r0, r0, r3
 1537              	.LVL135:
 1538 0008 FFF7FEFF 		bl	__aeabi_i2f
 1539              	.LVL136:
 1540 000c 0446     		mov	r4, r0
 1541 000e 054B     		ldr	r3, .L107+4
 1542 0010 1868     		ldr	r0, [r3]
 1543 0012 FFF7FEFF 		bl	__aeabi_i2f
 1544              	.LVL137:
 1545 0016 0146     		mov	r1, r0
 1546 0018 2046     		mov	r0, r4
 1547 001a FFF7FEFF 		bl	__aeabi_fdiv
 1548              	.LVL138:
1063:Generated_Source\PSoC5/ADC_DELSIG.c **** 
 1549              		.loc 1 1063 0
 1550 001e 10BD     		pop	{r4, pc}
 1551              	.L108:
 1552              		.align	2
 1553              	.L107:
 1554 0020 00000000 		.word	.LANCHOR0
 1555 0024 00000000 		.word	ADC_DELSIG_CountsPerVolt
 1556              		.cfi_endproc
 1557              	.LFE17:
 1558              		.size	ADC_DELSIG_CountsTo_Volts, .-ADC_DELSIG_CountsTo_Volts
 1559              		.section	.text.ADC_DELSIG_CountsTo_uVolts,"ax",%progbits
 1560              		.align	2
 1561              		.global	ADC_DELSIG_CountsTo_uVolts
 1562              		.thumb
 1563              		.thumb_func
 1564              		.type	ADC_DELSIG_CountsTo_uVolts, %function
 1565              	ADC_DELSIG_CountsTo_uVolts:
 1566              	.LFB18:
1093:Generated_Source\PSoC5/ADC_DELSIG.c **** 
 1567              		.loc 1 1093 0
 1568              		.cfi_startproc
 1569              		@ args = 0, pretend = 0, frame = 0
 1570              		@ frame_needed = 0, uses_anonymous_args = 0
 1571              		@ link register save eliminated.
 1572              	.LVL139:
1102:Generated_Source\PSoC5/ADC_DELSIG.c ****     {
 1573              		.loc 1 1102 0
 1574 0000 144B     		ldr	r3, .L117
 1575 0002 1B78     		ldrb	r3, [r3]	@ zero_extendqisi2
 1576 0004 DBB2     		uxtb	r3, r3
 1577 0006 012B     		cmp	r3, #1
 1578 0008 08D0     		beq	.L113
1109:Generated_Source\PSoC5/ADC_DELSIG.c ****     {
 1579              		.loc 1 1109 0
 1580 000a 124B     		ldr	r3, .L117
 1581 000c 1B78     		ldrb	r3, [r3]	@ zero_extendqisi2
 1582 000e DBB2     		uxtb	r3, r3
 1583 0010 022B     		cmp	r3, #2
 1584 0012 05D0     		beq	.L114
1116:Generated_Source\PSoC5/ADC_DELSIG.c ****     {
 1585              		.loc 1 1116 0
 1586 0014 0F4B     		ldr	r3, .L117
ARM GAS  C:\Users\Lory\AppData\Local\Temp\ccNUpijZ.s 			page 63


 1587 0016 1B78     		ldrb	r3, [r3]	@ zero_extendqisi2
1118:Generated_Source\PSoC5/ADC_DELSIG.c ****         #if(ADC_DELSIG_CFG3_DEC_DIV != 0)
 1588              		.loc 1 1118 0
 1589 0018 1023     		movs	r3, #16
 1590 001a 02E0     		b	.L110
 1591              	.L113:
1104:Generated_Source\PSoC5/ADC_DELSIG.c ****         #if(ADC_DELSIG_CFG1_DEC_DIV != 0)
 1592              		.loc 1 1104 0
 1593 001c 0823     		movs	r3, #8
 1594 001e 00E0     		b	.L110
 1595              	.L114:
1111:Generated_Source\PSoC5/ADC_DELSIG.c ****         #if(ADC_DELSIG_CFG2_DEC_DIV != 0)
 1596              		.loc 1 1111 0
 1597 0020 1023     		movs	r3, #16
 1598              	.L110:
 1599              	.LVL140:
1131:Generated_Source\PSoC5/ADC_DELSIG.c ****     {
 1600              		.loc 1 1131 0
 1601 0022 102B     		cmp	r3, #16
 1602 0024 03D1     		bne	.L116
1175:Generated_Source\PSoC5/ADC_DELSIG.c ****                 break;
 1603              		.loc 1 1175 0
 1604 0026 2021     		movs	r1, #32
1174:Generated_Source\PSoC5/ADC_DELSIG.c ****                 coefB = ADC_DELSIG_DIVISOR_32;
 1605              		.loc 1 1174 0
 1606 0028 47F61223 		movw	r3, #31250
 1607              	.LVL141:
 1608 002c 01E0     		b	.L111
 1609              	.LVL142:
 1610              	.L116:
1217:Generated_Source\PSoC5/ADC_DELSIG.c ****             break;
 1611              		.loc 1 1217 0
 1612 002e 0121     		movs	r1, #1
1216:Generated_Source\PSoC5/ADC_DELSIG.c ****             coefB = ADC_DELSIG_DIVISOR_1;
 1613              		.loc 1 1216 0
 1614 0030 094B     		ldr	r3, .L117+4
 1615              	.LVL143:
 1616              	.L111:
1220:Generated_Source\PSoC5/ADC_DELSIG.c ****     uVolts = ((coefA * adcCounts) / coefB) - ((coefA * ADC_DELSIG_Offset) / coefB);
 1617              		.loc 1 1220 0
 1618 0032 0A4A     		ldr	r2, .L117+8
 1619 0034 1268     		ldr	r2, [r2]
 1620 0036 92FBF1F1 		sdiv	r1, r2, r1
 1621              	.LVL144:
1221:Generated_Source\PSoC5/ADC_DELSIG.c **** 
 1622              		.loc 1 1221 0
 1623 003a 00FB03F0 		mul	r0, r0, r3
 1624              	.LVL145:
 1625 003e 90FBF1F0 		sdiv	r0, r0, r1
 1626 0042 074A     		ldr	r2, .L117+12
 1627 0044 9268     		ldr	r2, [r2, #8]
 1628 0046 02FB03F3 		mul	r3, r2, r3
 1629              	.LVL146:
 1630 004a 93FBF1F3 		sdiv	r3, r3, r1
 1631              	.LVL147:
1224:Generated_Source\PSoC5/ADC_DELSIG.c **** 
 1632              		.loc 1 1224 0
ARM GAS  C:\Users\Lory\AppData\Local\Temp\ccNUpijZ.s 			page 64


 1633 004e C01A     		subs	r0, r0, r3
 1634              	.LVL148:
 1635 0050 7047     		bx	lr
 1636              	.L118:
 1637 0052 00BF     		.align	2
 1638              	.L117:
 1639 0054 00000000 		.word	.LANCHOR1
 1640 0058 40420F00 		.word	1000000
 1641 005c 00000000 		.word	ADC_DELSIG_CountsPerVolt
 1642 0060 00000000 		.word	.LANCHOR0
 1643              		.cfi_endproc
 1644              	.LFE18:
 1645              		.size	ADC_DELSIG_CountsTo_uVolts, .-ADC_DELSIG_CountsTo_uVolts
 1646              		.section	.text.ADC_DELSIG_SelectConfiguration,"ax",%progbits
 1647              		.align	2
 1648              		.global	ADC_DELSIG_SelectConfiguration
 1649              		.thumb
 1650              		.thumb_func
 1651              		.type	ADC_DELSIG_SelectConfiguration, %function
 1652              	ADC_DELSIG_SelectConfiguration:
 1653              	.LFB20:
1562:Generated_Source\PSoC5/ADC_DELSIG.c ****     /* Check whether the configuration number is valid or not */
 1654              		.loc 1 1562 0
 1655              		.cfi_startproc
 1656              		@ args = 0, pretend = 0, frame = 0
 1657              		@ frame_needed = 0, uses_anonymous_args = 0
 1658              	.LVL149:
 1659 0000 38B5     		push	{r3, r4, r5, lr}
 1660              		.cfi_def_cfa_offset 16
 1661              		.cfi_offset 3, -16
 1662              		.cfi_offset 4, -12
 1663              		.cfi_offset 5, -8
 1664              		.cfi_offset 14, -4
1564:Generated_Source\PSoC5/ADC_DELSIG.c ****     {
 1665              		.loc 1 1564 0
 1666 0002 0128     		cmp	r0, #1
 1667 0004 20D1     		bne	.L120
 1668 0006 0446     		mov	r4, r0
 1669 0008 0D46     		mov	r5, r1
1569:Generated_Source\PSoC5/ADC_DELSIG.c ****         {
 1670              		.loc 1 1569 0
 1671 000a 114B     		ldr	r3, .L124
 1672 000c 9B79     		ldrb	r3, [r3, #6]	@ zero_extendqisi2
 1673 000e 13B9     		cbnz	r3, .L121
1571:Generated_Source\PSoC5/ADC_DELSIG.c ****         }
 1674              		.loc 1 1571 0
 1675 0010 0122     		movs	r2, #1
 1676 0012 0F4B     		ldr	r3, .L124
 1677 0014 DA71     		strb	r2, [r3, #7]
 1678              	.L121:
1575:Generated_Source\PSoC5/ADC_DELSIG.c **** 
 1679              		.loc 1 1575 0
 1680 0016 0F4B     		ldr	r3, .L124+4
 1681 0018 1C70     		strb	r4, [r3]
1578:Generated_Source\PSoC5/ADC_DELSIG.c **** 
 1682              		.loc 1 1578 0
 1683 001a FFF7FEFF 		bl	ADC_DELSIG_Stop
ARM GAS  C:\Users\Lory\AppData\Local\Temp\ccNUpijZ.s 			page 65


 1684              	.LVL150:
1581:Generated_Source\PSoC5/ADC_DELSIG.c **** 
 1685              		.loc 1 1581 0
 1686 001e 2046     		mov	r0, r4
 1687 0020 FFF7FEFF 		bl	ADC_DELSIG_InitConfig
 1688              	.LVL151:
1584:Generated_Source\PSoC5/ADC_DELSIG.c ****         CY_SET_REG16(ADC_DELSIG_DEC_GCOR_16B_PTR, ADC_DELSIG_gcor[config - 1u].gcor);
 1689              		.loc 1 1584 0
 1690 0024 013C     		subs	r4, r4, #1
 1691 0026 0A4B     		ldr	r3, .L124
 1692 0028 03EB8402 		add	r2, r3, r4, lsl #2
 1693 002c 9178     		ldrb	r1, [r2, #2]	@ zero_extendqisi2
 1694 002e 0A4A     		ldr	r2, .L124+8
 1695 0030 1170     		strb	r1, [r2]
1585:Generated_Source\PSoC5/ADC_DELSIG.c **** 
 1696              		.loc 1 1585 0
 1697 0032 33F82420 		ldrh	r2, [r3, r4, lsl #2]
 1698 0036 094B     		ldr	r3, .L124+12
 1699 0038 1A80     		strh	r2, [r3]	@ movhi
1587:Generated_Source\PSoC5/ADC_DELSIG.c ****         {
 1700              		.loc 1 1587 0
 1701 003a 012D     		cmp	r5, #1
 1702 003c 07D1     		bne	.L119
1590:Generated_Source\PSoC5/ADC_DELSIG.c **** 
 1703              		.loc 1 1590 0
 1704 003e FFF7FEFF 		bl	ADC_DELSIG_Start
 1705              	.LVL152:
1593:Generated_Source\PSoC5/ADC_DELSIG.c ****         }
 1706              		.loc 1 1593 0
 1707 0042 FFF7FEFF 		bl	ADC_DELSIG_StartConvert
 1708              	.LVL153:
 1709 0046 38BD     		pop	{r3, r4, r5, pc}
 1710              	.LVL154:
 1711              	.L120:
1599:Generated_Source\PSoC5/ADC_DELSIG.c ****     }
 1712              		.loc 1 1599 0 discriminator 1
 1713 0048 0020     		movs	r0, #0
 1714              	.LVL155:
 1715 004a FFF7FEFF 		bl	CyHalt
 1716              	.LVL156:
 1717              	.L119:
 1718 004e 38BD     		pop	{r3, r4, r5, pc}
 1719              	.L125:
 1720              		.align	2
 1721              	.L124:
 1722 0050 00000000 		.word	.LANCHOR0
 1723 0054 00000000 		.word	.LANCHOR1
 1724 0058 0E4E0040 		.word	1073761806
 1725 005c 0C4E0040 		.word	1073761804
 1726              		.cfi_endproc
 1727              	.LFE20:
 1728              		.size	ADC_DELSIG_SelectConfiguration, .-ADC_DELSIG_SelectConfiguration
 1729              		.section	.text.ADC_DELSIG_Read8,"ax",%progbits
 1730              		.align	2
 1731              		.global	ADC_DELSIG_Read8
 1732              		.thumb
 1733              		.thumb_func
ARM GAS  C:\Users\Lory\AppData\Local\Temp\ccNUpijZ.s 			page 66


 1734              		.type	ADC_DELSIG_Read8, %function
 1735              	ADC_DELSIG_Read8:
 1736              	.LFB23:
1749:Generated_Source\PSoC5/ADC_DELSIG.c **** }
1750:Generated_Source\PSoC5/ADC_DELSIG.c **** 
1751:Generated_Source\PSoC5/ADC_DELSIG.c **** 
1752:Generated_Source\PSoC5/ADC_DELSIG.c **** /*******************************************************************************
1753:Generated_Source\PSoC5/ADC_DELSIG.c **** * Function Name: ADC_DELSIG_Read8
1754:Generated_Source\PSoC5/ADC_DELSIG.c **** ********************************************************************************
1755:Generated_Source\PSoC5/ADC_DELSIG.c **** *
1756:Generated_Source\PSoC5/ADC_DELSIG.c **** * Summary:
1757:Generated_Source\PSoC5/ADC_DELSIG.c **** *  This function simplifies getting results from the ADC when only a
1758:Generated_Source\PSoC5/ADC_DELSIG.c **** *  single reading is required. When called, it will start ADC
1759:Generated_Source\PSoC5/ADC_DELSIG.c **** *  conversions, wait for the conversion to be complete, stop ADC
1760:Generated_Source\PSoC5/ADC_DELSIG.c **** *  conversion and return the result. This is a blocking function and will
1761:Generated_Source\PSoC5/ADC_DELSIG.c **** *  not return until the result is ready.
1762:Generated_Source\PSoC5/ADC_DELSIG.c **** *
1763:Generated_Source\PSoC5/ADC_DELSIG.c **** * Parameters:
1764:Generated_Source\PSoC5/ADC_DELSIG.c **** *  None
1765:Generated_Source\PSoC5/ADC_DELSIG.c **** *
1766:Generated_Source\PSoC5/ADC_DELSIG.c **** * Return:
1767:Generated_Source\PSoC5/ADC_DELSIG.c **** *  int8:  ADC result.
1768:Generated_Source\PSoC5/ADC_DELSIG.c **** *
1769:Generated_Source\PSoC5/ADC_DELSIG.c **** *******************************************************************************/
1770:Generated_Source\PSoC5/ADC_DELSIG.c **** int8 ADC_DELSIG_Read8(void) 
1771:Generated_Source\PSoC5/ADC_DELSIG.c **** {
 1737              		.loc 1 1771 0
 1738              		.cfi_startproc
 1739              		@ args = 0, pretend = 0, frame = 0
 1740              		@ frame_needed = 0, uses_anonymous_args = 0
 1741 0000 10B5     		push	{r4, lr}
 1742              		.cfi_def_cfa_offset 8
 1743              		.cfi_offset 4, -8
 1744              		.cfi_offset 14, -4
1772:Generated_Source\PSoC5/ADC_DELSIG.c ****     int8 result;
1773:Generated_Source\PSoC5/ADC_DELSIG.c **** 
1774:Generated_Source\PSoC5/ADC_DELSIG.c ****     /* Clear pending conversion done status */
1775:Generated_Source\PSoC5/ADC_DELSIG.c ****     ADC_DELSIG_DEC_SR_REG |= ADC_DELSIG_DEC_INTR_CLEAR;
 1745              		.loc 1 1775 0
 1746 0002 084A     		ldr	r2, .L128
 1747 0004 1378     		ldrb	r3, [r2]	@ zero_extendqisi2
 1748 0006 43F00403 		orr	r3, r3, #4
 1749 000a 1370     		strb	r3, [r2]
1776:Generated_Source\PSoC5/ADC_DELSIG.c ****     ADC_DELSIG_StartConvert();
 1750              		.loc 1 1776 0
 1751 000c FFF7FEFF 		bl	ADC_DELSIG_StartConvert
 1752              	.LVL157:
1777:Generated_Source\PSoC5/ADC_DELSIG.c ****     (void)ADC_DELSIG_IsEndConversion(ADC_DELSIG_WAIT_FOR_RESULT);
 1753              		.loc 1 1777 0
 1754 0010 0020     		movs	r0, #0
 1755 0012 FFF7FEFF 		bl	ADC_DELSIG_IsEndConversion
 1756              	.LVL158:
1778:Generated_Source\PSoC5/ADC_DELSIG.c ****      result = ADC_DELSIG_GetResult8();
 1757              		.loc 1 1778 0
 1758 0016 FFF7FEFF 		bl	ADC_DELSIG_GetResult8
 1759              	.LVL159:
 1760 001a 0446     		mov	r4, r0
ARM GAS  C:\Users\Lory\AppData\Local\Temp\ccNUpijZ.s 			page 67


 1761              	.LVL160:
1779:Generated_Source\PSoC5/ADC_DELSIG.c ****     ADC_DELSIG_StopConvert();
 1762              		.loc 1 1779 0
 1763 001c FFF7FEFF 		bl	ADC_DELSIG_StopConvert
 1764              	.LVL161:
1780:Generated_Source\PSoC5/ADC_DELSIG.c ****     
1781:Generated_Source\PSoC5/ADC_DELSIG.c ****      return(result);
1782:Generated_Source\PSoC5/ADC_DELSIG.c **** }
 1765              		.loc 1 1782 0
 1766 0020 2046     		mov	r0, r4
 1767 0022 10BD     		pop	{r4, pc}
 1768              	.LVL162:
 1769              	.L129:
 1770              		.align	2
 1771              	.L128:
 1772 0024 014E0040 		.word	1073761793
 1773              		.cfi_endproc
 1774              	.LFE23:
 1775              		.size	ADC_DELSIG_Read8, .-ADC_DELSIG_Read8
 1776              		.section	.text.ADC_DELSIG_Read16,"ax",%progbits
 1777              		.align	2
 1778              		.global	ADC_DELSIG_Read16
 1779              		.thumb
 1780              		.thumb_func
 1781              		.type	ADC_DELSIG_Read16, %function
 1782              	ADC_DELSIG_Read16:
 1783              	.LFB24:
1783:Generated_Source\PSoC5/ADC_DELSIG.c **** 
1784:Generated_Source\PSoC5/ADC_DELSIG.c **** 
1785:Generated_Source\PSoC5/ADC_DELSIG.c **** /*******************************************************************************
1786:Generated_Source\PSoC5/ADC_DELSIG.c **** * Function Name: ADC_DELSIG_Read16
1787:Generated_Source\PSoC5/ADC_DELSIG.c **** ********************************************************************************
1788:Generated_Source\PSoC5/ADC_DELSIG.c **** *
1789:Generated_Source\PSoC5/ADC_DELSIG.c **** * Summary:
1790:Generated_Source\PSoC5/ADC_DELSIG.c **** *  This function simplifies getting results from the ADC when only a
1791:Generated_Source\PSoC5/ADC_DELSIG.c **** *  single reading is required. When called, it will start ADC
1792:Generated_Source\PSoC5/ADC_DELSIG.c **** *  conversions, wait for the conversion to be complete, stop ADC
1793:Generated_Source\PSoC5/ADC_DELSIG.c **** *  conversion and return the result. This is a blocking function and will
1794:Generated_Source\PSoC5/ADC_DELSIG.c **** *  not return until the result is ready.
1795:Generated_Source\PSoC5/ADC_DELSIG.c **** *
1796:Generated_Source\PSoC5/ADC_DELSIG.c **** * Parameters:
1797:Generated_Source\PSoC5/ADC_DELSIG.c **** *   void
1798:Generated_Source\PSoC5/ADC_DELSIG.c **** *
1799:Generated_Source\PSoC5/ADC_DELSIG.c **** * Return:
1800:Generated_Source\PSoC5/ADC_DELSIG.c **** *  int16:  ADC result.
1801:Generated_Source\PSoC5/ADC_DELSIG.c **** *
1802:Generated_Source\PSoC5/ADC_DELSIG.c **** *******************************************************************************/
1803:Generated_Source\PSoC5/ADC_DELSIG.c **** int16 ADC_DELSIG_Read16(void) 
1804:Generated_Source\PSoC5/ADC_DELSIG.c **** {
 1784              		.loc 1 1804 0
 1785              		.cfi_startproc
 1786              		@ args = 0, pretend = 0, frame = 0
 1787              		@ frame_needed = 0, uses_anonymous_args = 0
 1788 0000 10B5     		push	{r4, lr}
 1789              		.cfi_def_cfa_offset 8
 1790              		.cfi_offset 4, -8
 1791              		.cfi_offset 14, -4
ARM GAS  C:\Users\Lory\AppData\Local\Temp\ccNUpijZ.s 			page 68


1805:Generated_Source\PSoC5/ADC_DELSIG.c ****     int16 result;
1806:Generated_Source\PSoC5/ADC_DELSIG.c **** 
1807:Generated_Source\PSoC5/ADC_DELSIG.c ****     /* Clear pending conversion done status */
1808:Generated_Source\PSoC5/ADC_DELSIG.c ****     ADC_DELSIG_DEC_SR_REG |= ADC_DELSIG_DEC_INTR_CLEAR;
 1792              		.loc 1 1808 0
 1793 0002 084A     		ldr	r2, .L132
 1794 0004 1378     		ldrb	r3, [r2]	@ zero_extendqisi2
 1795 0006 43F00403 		orr	r3, r3, #4
 1796 000a 1370     		strb	r3, [r2]
1809:Generated_Source\PSoC5/ADC_DELSIG.c ****     ADC_DELSIG_StartConvert();
 1797              		.loc 1 1809 0
 1798 000c FFF7FEFF 		bl	ADC_DELSIG_StartConvert
 1799              	.LVL163:
1810:Generated_Source\PSoC5/ADC_DELSIG.c ****     (void)ADC_DELSIG_IsEndConversion(ADC_DELSIG_WAIT_FOR_RESULT);
 1800              		.loc 1 1810 0
 1801 0010 0020     		movs	r0, #0
 1802 0012 FFF7FEFF 		bl	ADC_DELSIG_IsEndConversion
 1803              	.LVL164:
1811:Generated_Source\PSoC5/ADC_DELSIG.c ****      result = ADC_DELSIG_GetResult16();
 1804              		.loc 1 1811 0
 1805 0016 FFF7FEFF 		bl	ADC_DELSIG_GetResult16
 1806              	.LVL165:
 1807 001a 0446     		mov	r4, r0
 1808              	.LVL166:
1812:Generated_Source\PSoC5/ADC_DELSIG.c ****     ADC_DELSIG_StopConvert();
 1809              		.loc 1 1812 0
 1810 001c FFF7FEFF 		bl	ADC_DELSIG_StopConvert
 1811              	.LVL167:
1813:Generated_Source\PSoC5/ADC_DELSIG.c ****     
1814:Generated_Source\PSoC5/ADC_DELSIG.c ****      return(result);
1815:Generated_Source\PSoC5/ADC_DELSIG.c **** }
 1812              		.loc 1 1815 0
 1813 0020 2046     		mov	r0, r4
 1814 0022 10BD     		pop	{r4, pc}
 1815              	.LVL168:
 1816              	.L133:
 1817              		.align	2
 1818              	.L132:
 1819 0024 014E0040 		.word	1073761793
 1820              		.cfi_endproc
 1821              	.LFE24:
 1822              		.size	ADC_DELSIG_Read16, .-ADC_DELSIG_Read16
 1823              		.section	.text.ADC_DELSIG_Read32,"ax",%progbits
 1824              		.align	2
 1825              		.global	ADC_DELSIG_Read32
 1826              		.thumb
 1827              		.thumb_func
 1828              		.type	ADC_DELSIG_Read32, %function
 1829              	ADC_DELSIG_Read32:
 1830              	.LFB25:
1816:Generated_Source\PSoC5/ADC_DELSIG.c **** 
1817:Generated_Source\PSoC5/ADC_DELSIG.c **** 
1818:Generated_Source\PSoC5/ADC_DELSIG.c **** /*******************************************************************************
1819:Generated_Source\PSoC5/ADC_DELSIG.c **** * Function Name: ADC_DELSIG_Read32
1820:Generated_Source\PSoC5/ADC_DELSIG.c **** ********************************************************************************
1821:Generated_Source\PSoC5/ADC_DELSIG.c **** *
1822:Generated_Source\PSoC5/ADC_DELSIG.c **** * Summary:
ARM GAS  C:\Users\Lory\AppData\Local\Temp\ccNUpijZ.s 			page 69


1823:Generated_Source\PSoC5/ADC_DELSIG.c **** *  This function simplifies getting results from the ADC when only a
1824:Generated_Source\PSoC5/ADC_DELSIG.c **** *  single reading is required. When called, it will start ADC
1825:Generated_Source\PSoC5/ADC_DELSIG.c **** *  conversions, wait for the conversion to be complete, stop ADC
1826:Generated_Source\PSoC5/ADC_DELSIG.c **** *  conversion and return the result. This is a blocking function and will
1827:Generated_Source\PSoC5/ADC_DELSIG.c **** *  not return until the result is ready.
1828:Generated_Source\PSoC5/ADC_DELSIG.c **** *
1829:Generated_Source\PSoC5/ADC_DELSIG.c **** * Parameters:
1830:Generated_Source\PSoC5/ADC_DELSIG.c **** *  None
1831:Generated_Source\PSoC5/ADC_DELSIG.c **** *
1832:Generated_Source\PSoC5/ADC_DELSIG.c **** * Return:
1833:Generated_Source\PSoC5/ADC_DELSIG.c **** *  int32: ADC result.
1834:Generated_Source\PSoC5/ADC_DELSIG.c **** *
1835:Generated_Source\PSoC5/ADC_DELSIG.c **** *******************************************************************************/
1836:Generated_Source\PSoC5/ADC_DELSIG.c **** int32 ADC_DELSIG_Read32(void) 
1837:Generated_Source\PSoC5/ADC_DELSIG.c **** {
 1831              		.loc 1 1837 0
 1832              		.cfi_startproc
 1833              		@ args = 0, pretend = 0, frame = 0
 1834              		@ frame_needed = 0, uses_anonymous_args = 0
 1835 0000 10B5     		push	{r4, lr}
 1836              		.cfi_def_cfa_offset 8
 1837              		.cfi_offset 4, -8
 1838              		.cfi_offset 14, -4
1838:Generated_Source\PSoC5/ADC_DELSIG.c ****     int32 result;
1839:Generated_Source\PSoC5/ADC_DELSIG.c ****     
1840:Generated_Source\PSoC5/ADC_DELSIG.c ****     /* Clear pending conversion done status */
1841:Generated_Source\PSoC5/ADC_DELSIG.c ****     ADC_DELSIG_DEC_SR_REG |= ADC_DELSIG_DEC_INTR_CLEAR;
 1839              		.loc 1 1841 0
 1840 0002 084A     		ldr	r2, .L136
 1841 0004 1378     		ldrb	r3, [r2]	@ zero_extendqisi2
 1842 0006 43F00403 		orr	r3, r3, #4
 1843 000a 1370     		strb	r3, [r2]
1842:Generated_Source\PSoC5/ADC_DELSIG.c ****     ADC_DELSIG_StartConvert();
 1844              		.loc 1 1842 0
 1845 000c FFF7FEFF 		bl	ADC_DELSIG_StartConvert
 1846              	.LVL169:
1843:Generated_Source\PSoC5/ADC_DELSIG.c ****     (void)ADC_DELSIG_IsEndConversion(ADC_DELSIG_WAIT_FOR_RESULT);
 1847              		.loc 1 1843 0
 1848 0010 0020     		movs	r0, #0
 1849 0012 FFF7FEFF 		bl	ADC_DELSIG_IsEndConversion
 1850              	.LVL170:
1844:Generated_Source\PSoC5/ADC_DELSIG.c ****      result = ADC_DELSIG_GetResult32();
 1851              		.loc 1 1844 0
 1852 0016 FFF7FEFF 		bl	ADC_DELSIG_GetResult32
 1853              	.LVL171:
 1854 001a 0446     		mov	r4, r0
 1855              	.LVL172:
1845:Generated_Source\PSoC5/ADC_DELSIG.c ****     ADC_DELSIG_StopConvert();
 1856              		.loc 1 1845 0
 1857 001c FFF7FEFF 		bl	ADC_DELSIG_StopConvert
 1858              	.LVL173:
1846:Generated_Source\PSoC5/ADC_DELSIG.c ****     
1847:Generated_Source\PSoC5/ADC_DELSIG.c ****      return(result);
1848:Generated_Source\PSoC5/ADC_DELSIG.c **** }
 1859              		.loc 1 1848 0
 1860 0020 2046     		mov	r0, r4
 1861 0022 10BD     		pop	{r4, pc}
ARM GAS  C:\Users\Lory\AppData\Local\Temp\ccNUpijZ.s 			page 70


 1862              	.LVL174:
 1863              	.L137:
 1864              		.align	2
 1865              	.L136:
 1866 0024 014E0040 		.word	1073761793
 1867              		.cfi_endproc
 1868              	.LFE25:
 1869              		.size	ADC_DELSIG_Read32, .-ADC_DELSIG_Read32
 1870              		.comm	ADC_DELSIG_CountsPerVolt,4,4
 1871              		.global	ADC_DELSIG_Offset
 1872              		.global	ADC_DELSIG_Config
 1873              		.global	ADC_DELSIG_started
 1874              		.global	ADC_DELSIG_initVar
 1875              		.global	ADC_DELSIG_stopConversion
 1876              		.global	ADC_DELSIG_convDone
 1877              		.data
 1878              		.set	.LANCHOR1,. + 0
 1879              		.type	ADC_DELSIG_Config, %object
 1880              		.size	ADC_DELSIG_Config, 1
 1881              	ADC_DELSIG_Config:
 1882 0000 01       		.byte	1
 1883              		.bss
 1884              		.align	2
 1885              		.set	.LANCHOR0,. + 0
 1886              		.type	ADC_DELSIG_gcor, %object
 1887              		.size	ADC_DELSIG_gcor, 4
 1888              	ADC_DELSIG_gcor:
 1889 0000 00000000 		.space	4
 1890              		.type	ADC_DELSIG_stopConversion, %object
 1891              		.size	ADC_DELSIG_stopConversion, 1
 1892              	ADC_DELSIG_stopConversion:
 1893 0004 00       		.space	1
 1894              		.type	ADC_DELSIG_convDone, %object
 1895              		.size	ADC_DELSIG_convDone, 1
 1896              	ADC_DELSIG_convDone:
 1897 0005 00       		.space	1
 1898              		.type	ADC_DELSIG_initVar, %object
 1899              		.size	ADC_DELSIG_initVar, 1
 1900              	ADC_DELSIG_initVar:
 1901 0006 00       		.space	1
 1902              		.type	ADC_DELSIG_started, %object
 1903              		.size	ADC_DELSIG_started, 1
 1904              	ADC_DELSIG_started:
 1905 0007 00       		.space	1
 1906              		.type	ADC_DELSIG_Offset, %object
 1907              		.size	ADC_DELSIG_Offset, 4
 1908              	ADC_DELSIG_Offset:
 1909 0008 00000000 		.space	4
 1910              		.text
 1911              	.Letext0:
 1912              		.file 2 "Generated_Source\\PSoC5\\cytypes.h"
 1913              		.file 3 "Generated_Source\\PSoC5\\ADC_DELSIG.h"
 1914              		.file 4 "Generated_Source\\PSoC5\\CyLib.h"
 1915              		.file 5 "Generated_Source\\PSoC5\\ADC_DELSIG_AMux.h"
 1916              		.file 6 "Generated_Source\\PSoC5\\ADC_DELSIG_Ext_CP_Clk.h"
 1917              		.file 7 "Generated_Source\\PSoC5\\ADC_DELSIG_theACLK.h"
 1918              		.section	.debug_info,"",%progbits
ARM GAS  C:\Users\Lory\AppData\Local\Temp\ccNUpijZ.s 			page 71


 1919              	.Ldebug_info0:
 1920 0000 180A0000 		.4byte	0xa18
 1921 0004 0400     		.2byte	0x4
 1922 0006 00000000 		.4byte	.Ldebug_abbrev0
 1923 000a 04       		.byte	0x4
 1924 000b 01       		.uleb128 0x1
 1925 000c D2040000 		.4byte	.LASF101
 1926 0010 0C       		.byte	0xc
 1927 0011 1C030000 		.4byte	.LASF102
 1928 0015 36040000 		.4byte	.LASF103
 1929 0019 00000000 		.4byte	.Ldebug_ranges0+0
 1930 001d 00000000 		.4byte	0
 1931 0021 00000000 		.4byte	.Ldebug_line0
 1932 0025 02       		.uleb128 0x2
 1933 0026 04       		.byte	0x4
 1934 0027 04       		.byte	0x4
 1935 0028 83030000 		.4byte	.LASF0
 1936 002c 02       		.uleb128 0x2
 1937 002d 01       		.byte	0x1
 1938 002e 06       		.byte	0x6
 1939 002f A5000000 		.4byte	.LASF1
 1940 0033 02       		.uleb128 0x2
 1941 0034 01       		.byte	0x1
 1942 0035 08       		.byte	0x8
 1943 0036 EF030000 		.4byte	.LASF2
 1944 003a 02       		.uleb128 0x2
 1945 003b 02       		.byte	0x2
 1946 003c 05       		.byte	0x5
 1947 003d FD030000 		.4byte	.LASF3
 1948 0041 02       		.uleb128 0x2
 1949 0042 02       		.byte	0x2
 1950 0043 07       		.byte	0x7
 1951 0044 35020000 		.4byte	.LASF4
 1952 0048 02       		.uleb128 0x2
 1953 0049 04       		.byte	0x4
 1954 004a 05       		.byte	0x5
 1955 004b 14010000 		.4byte	.LASF5
 1956 004f 02       		.uleb128 0x2
 1957 0050 04       		.byte	0x4
 1958 0051 07       		.byte	0x7
 1959 0052 DF010000 		.4byte	.LASF6
 1960 0056 02       		.uleb128 0x2
 1961 0057 08       		.byte	0x8
 1962 0058 05       		.byte	0x5
 1963 0059 97000000 		.4byte	.LASF7
 1964 005d 02       		.uleb128 0x2
 1965 005e 08       		.byte	0x8
 1966 005f 07       		.byte	0x7
 1967 0060 47000000 		.4byte	.LASF8
 1968 0064 03       		.uleb128 0x3
 1969 0065 04       		.byte	0x4
 1970 0066 05       		.byte	0x5
 1971 0067 696E7400 		.ascii	"int\000"
 1972 006b 02       		.uleb128 0x2
 1973 006c 04       		.byte	0x4
 1974 006d 07       		.byte	0x7
 1975 006e CB010000 		.4byte	.LASF9
ARM GAS  C:\Users\Lory\AppData\Local\Temp\ccNUpijZ.s 			page 72


 1976 0072 04       		.uleb128 0x4
 1977 0073 48010000 		.4byte	.LASF10
 1978 0077 02       		.byte	0x2
 1979 0078 E401     		.2byte	0x1e4
 1980 007a 33000000 		.4byte	0x33
 1981 007e 04       		.uleb128 0x4
 1982 007f 00000000 		.4byte	.LASF11
 1983 0083 02       		.byte	0x2
 1984 0084 E501     		.2byte	0x1e5
 1985 0086 41000000 		.4byte	0x41
 1986 008a 04       		.uleb128 0x4
 1987 008b 7A010000 		.4byte	.LASF12
 1988 008f 02       		.byte	0x2
 1989 0090 E601     		.2byte	0x1e6
 1990 0092 4F000000 		.4byte	0x4f
 1991 0096 04       		.uleb128 0x4
 1992 0097 5A020000 		.4byte	.LASF13
 1993 009b 02       		.byte	0x2
 1994 009c E701     		.2byte	0x1e7
 1995 009e 2C000000 		.4byte	0x2c
 1996 00a2 04       		.uleb128 0x4
 1997 00a3 69060000 		.4byte	.LASF14
 1998 00a7 02       		.byte	0x2
 1999 00a8 E801     		.2byte	0x1e8
 2000 00aa 3A000000 		.4byte	0x3a
 2001 00ae 04       		.uleb128 0x4
 2002 00af E4000000 		.4byte	.LASF15
 2003 00b3 02       		.byte	0x2
 2004 00b4 E901     		.2byte	0x1e9
 2005 00b6 48000000 		.4byte	0x48
 2006 00ba 04       		.uleb128 0x4
 2007 00bb E4020000 		.4byte	.LASF16
 2008 00bf 02       		.byte	0x2
 2009 00c0 EA01     		.2byte	0x1ea
 2010 00c2 25000000 		.4byte	0x25
 2011 00c6 02       		.uleb128 0x2
 2012 00c7 08       		.byte	0x8
 2013 00c8 04       		.byte	0x4
 2014 00c9 58010000 		.4byte	.LASF17
 2015 00cd 02       		.uleb128 0x2
 2016 00ce 01       		.byte	0x1
 2017 00cf 08       		.byte	0x8
 2018 00d0 9E050000 		.4byte	.LASF18
 2019 00d4 04       		.uleb128 0x4
 2020 00d5 B0030000 		.4byte	.LASF19
 2021 00d9 02       		.byte	0x2
 2022 00da 8E02     		.2byte	0x28e
 2023 00dc E0000000 		.4byte	0xe0
 2024 00e0 05       		.uleb128 0x5
 2025 00e1 72000000 		.4byte	0x72
 2026 00e5 04       		.uleb128 0x4
 2027 00e6 42010000 		.4byte	.LASF20
 2028 00ea 02       		.byte	0x2
 2029 00eb 8F02     		.2byte	0x28f
 2030 00ed F1000000 		.4byte	0xf1
 2031 00f1 05       		.uleb128 0x5
 2032 00f2 7E000000 		.4byte	0x7e
ARM GAS  C:\Users\Lory\AppData\Local\Temp\ccNUpijZ.s 			page 73


 2033 00f6 04       		.uleb128 0x4
 2034 00f7 B2020000 		.4byte	.LASF21
 2035 00fb 02       		.byte	0x2
 2036 00fc 9002     		.2byte	0x290
 2037 00fe 02010000 		.4byte	0x102
 2038 0102 05       		.uleb128 0x5
 2039 0103 8A000000 		.4byte	0x8a
 2040 0107 02       		.uleb128 0x2
 2041 0108 08       		.byte	0x8
 2042 0109 04       		.byte	0x4
 2043 010a F5020000 		.4byte	.LASF22
 2044 010e 02       		.uleb128 0x2
 2045 010f 04       		.byte	0x4
 2046 0110 07       		.byte	0x7
 2047 0111 EC020000 		.4byte	.LASF23
 2048 0115 06       		.uleb128 0x6
 2049 0116 04       		.byte	0x4
 2050 0117 03       		.byte	0x3
 2051 0118 2F       		.byte	0x2f
 2052 0119 36010000 		.4byte	0x136
 2053 011d 07       		.uleb128 0x7
 2054 011e 42000000 		.4byte	.LASF24
 2055 0122 03       		.byte	0x3
 2056 0123 31       		.byte	0x31
 2057 0124 7E000000 		.4byte	0x7e
 2058 0128 00       		.byte	0
 2059 0129 07       		.uleb128 0x7
 2060 012a C3050000 		.4byte	.LASF25
 2061 012e 03       		.byte	0x3
 2062 012f 32       		.byte	0x32
 2063 0130 72000000 		.4byte	0x72
 2064 0134 02       		.byte	0x2
 2065 0135 00       		.byte	0
 2066 0136 08       		.uleb128 0x8
 2067 0137 E0050000 		.4byte	.LASF26
 2068 013b 03       		.byte	0x3
 2069 013c 33       		.byte	0x33
 2070 013d 15010000 		.4byte	0x115
 2071 0141 09       		.uleb128 0x9
 2072 0142 AF010000 		.4byte	.LASF36
 2073 0146 01       		.byte	0x1
 2074 0147 5906     		.2byte	0x659
 2075 0149 00000000 		.4byte	.LFB21
 2076 014d DC000000 		.4byte	.LFE21-.LFB21
 2077 0151 01       		.uleb128 0x1
 2078 0152 9C       		.byte	0x9c
 2079 0153 F7010000 		.4byte	0x1f7
 2080 0157 0A       		.uleb128 0xa
 2081 0158 25000000 		.4byte	.LASF27
 2082 015c 01       		.byte	0x1
 2083 015d 5906     		.2byte	0x659
 2084 015f 72000000 		.4byte	0x72
 2085 0163 00000000 		.4byte	.LLST0
 2086 0167 0A       		.uleb128 0xa
 2087 0168 B5030000 		.4byte	.LASF28
 2088 016c 01       		.byte	0x1
 2089 016d 5906     		.2byte	0x659
ARM GAS  C:\Users\Lory\AppData\Local\Temp\ccNUpijZ.s 			page 74


 2090 016f 7E000000 		.4byte	0x7e
 2091 0173 3A000000 		.4byte	.LLST1
 2092 0177 0A       		.uleb128 0xa
 2093 0178 77000000 		.4byte	.LASF29
 2094 017c 01       		.byte	0x1
 2095 017d 5906     		.2byte	0x659
 2096 017f 7E000000 		.4byte	0x7e
 2097 0183 74000000 		.4byte	.LLST2
 2098 0187 0A       		.uleb128 0xa
 2099 0188 77050000 		.4byte	.LASF30
 2100 018c 01       		.byte	0x1
 2101 018d 5A06     		.2byte	0x65a
 2102 018f 72000000 		.4byte	0x72
 2103 0193 AE000000 		.4byte	.LLST3
 2104 0197 0A       		.uleb128 0xa
 2105 0198 AA050000 		.4byte	.LASF31
 2106 019c 01       		.byte	0x1
 2107 019d 5A06     		.2byte	0x65a
 2108 019f 72000000 		.4byte	0x72
 2109 01a3 01010000 		.4byte	.LLST4
 2110 01a7 0B       		.uleb128 0xb
 2111 01a8 AC020000 		.4byte	.LASF32
 2112 01ac 01       		.byte	0x1
 2113 01ad 5C06     		.2byte	0x65c
 2114 01af 96000000 		.4byte	0x96
 2115 01b3 2D010000 		.4byte	.LLST5
 2116 01b7 0B       		.uleb128 0xb
 2117 01b8 C2030000 		.4byte	.LASF33
 2118 01bc 01       		.byte	0x1
 2119 01bd 5D06     		.2byte	0x65d
 2120 01bf AE000000 		.4byte	0xae
 2121 01c3 A3010000 		.4byte	.LLST6
 2122 01c7 0B       		.uleb128 0xb
 2123 01c8 5F020000 		.4byte	.LASF34
 2124 01cc 01       		.byte	0x1
 2125 01cd 5E06     		.2byte	0x65e
 2126 01cf 7E000000 		.4byte	0x7e
 2127 01d3 B6010000 		.4byte	.LLST7
 2128 01d7 0B       		.uleb128 0xb
 2129 01d8 1A040000 		.4byte	.LASF35
 2130 01dc 01       		.byte	0x1
 2131 01dd 5F06     		.2byte	0x65f
 2132 01df 8A000000 		.4byte	0x8a
 2133 01e3 DF010000 		.4byte	.LLST8
 2134 01e7 0C       		.uleb128 0xc
 2135 01e8 B4000000 		.4byte	.LVL33
 2136 01ec A2090000 		.4byte	0x9a2
 2137 01f0 0D       		.uleb128 0xd
 2138 01f1 01       		.uleb128 0x1
 2139 01f2 50       		.byte	0x50
 2140 01f3 01       		.uleb128 0x1
 2141 01f4 30       		.byte	0x30
 2142 01f5 00       		.byte	0
 2143 01f6 00       		.byte	0
 2144 01f7 09       		.uleb128 0x9
 2145 01f8 5E000000 		.4byte	.LASF37
 2146 01fc 01       		.byte	0x1
ARM GAS  C:\Users\Lory\AppData\Local\Temp\ccNUpijZ.s 			page 75


 2147 01fd C406     		.2byte	0x6c4
 2148 01ff 00000000 		.4byte	.LFB22
 2149 0203 4C000000 		.4byte	.LFE22-.LFB22
 2150 0207 01       		.uleb128 0x1
 2151 0208 9C       		.byte	0x9c
 2152 0209 5A020000 		.4byte	0x25a
 2153 020d 0A       		.uleb128 0xa
 2154 020e A1010000 		.4byte	.LASF38
 2155 0212 01       		.byte	0x1
 2156 0213 C406     		.2byte	0x6c4
 2157 0215 72000000 		.4byte	0x72
 2158 0219 F2010000 		.4byte	.LLST9
 2159 021d 0B       		.uleb128 0xb
 2160 021e 2E060000 		.4byte	.LASF39
 2161 0222 01       		.byte	0x1
 2162 0223 C606     		.2byte	0x6c6
 2163 0225 72000000 		.4byte	0x72
 2164 0229 13020000 		.4byte	.LLST10
 2165 022d 0E       		.uleb128 0xe
 2166 022e 08000000 		.4byte	.LVL36
 2167 0232 AD090000 		.4byte	0x9ad
 2168 0236 0F       		.uleb128 0xf
 2169 0237 28000000 		.4byte	.LVL38
 2170 023b B8090000 		.4byte	0x9b8
 2171 023f 49020000 		.4byte	0x249
 2172 0243 0D       		.uleb128 0xd
 2173 0244 01       		.uleb128 0x1
 2174 0245 50       		.byte	0x50
 2175 0246 01       		.uleb128 0x1
 2176 0247 33       		.byte	0x33
 2177 0248 00       		.byte	0
 2178 0249 0C       		.uleb128 0xc
 2179 024a 3E000000 		.4byte	.LVL39
 2180 024e C3090000 		.4byte	0x9c3
 2181 0252 0D       		.uleb128 0xd
 2182 0253 01       		.uleb128 0x1
 2183 0254 50       		.byte	0x50
 2184 0255 02       		.uleb128 0x2
 2185 0256 76       		.byte	0x76
 2186 0257 00       		.sleb128 0
 2187 0258 00       		.byte	0
 2188 0259 00       		.byte	0
 2189 025a 09       		.uleb128 0x9
 2190 025b B8020000 		.4byte	.LASF40
 2191 025f 01       		.byte	0x1
 2192 0260 DF04     		.2byte	0x4df
 2193 0262 00000000 		.4byte	.LFB19
 2194 0266 DC000000 		.4byte	.LFE19-.LFB19
 2195 026a 01       		.uleb128 0x1
 2196 026b 9C       		.byte	0x9c
 2197 026c EC020000 		.4byte	0x2ec
 2198 0270 0A       		.uleb128 0xa
 2199 0271 AA050000 		.4byte	.LASF31
 2200 0275 01       		.byte	0x1
 2201 0276 DF04     		.2byte	0x4df
 2202 0278 72000000 		.4byte	0x72
 2203 027c 26020000 		.4byte	.LLST11
ARM GAS  C:\Users\Lory\AppData\Local\Temp\ccNUpijZ.s 			page 76


 2204 0280 0F       		.uleb128 0xf
 2205 0281 82000000 		.4byte	.LVL43
 2206 0285 F7010000 		.4byte	0x1f7
 2207 0289 94020000 		.4byte	0x294
 2208 028d 0D       		.uleb128 0xd
 2209 028e 01       		.uleb128 0x1
 2210 028f 50       		.byte	0x50
 2211 0290 02       		.uleb128 0x2
 2212 0291 08       		.byte	0x8
 2213 0292 52       		.byte	0x52
 2214 0293 00       		.byte	0
 2215 0294 0F       		.uleb128 0xf
 2216 0295 A4000000 		.4byte	.LVL44
 2217 0299 CE090000 		.4byte	0x9ce
 2218 029d A8020000 		.4byte	0x2a8
 2219 02a1 0D       		.uleb128 0xd
 2220 02a2 01       		.uleb128 0x1
 2221 02a3 50       		.byte	0x50
 2222 02a4 02       		.uleb128 0x2
 2223 02a5 74       		.byte	0x74
 2224 02a6 00       		.sleb128 0
 2225 02a7 00       		.byte	0
 2226 02a8 0F       		.uleb128 0xf
 2227 02a9 B2000000 		.4byte	.LVL45
 2228 02ad D9090000 		.4byte	0x9d9
 2229 02b1 C2020000 		.4byte	0x2c2
 2230 02b5 0D       		.uleb128 0xd
 2231 02b6 01       		.uleb128 0x1
 2232 02b7 50       		.byte	0x50
 2233 02b8 02       		.uleb128 0x2
 2234 02b9 76       		.byte	0x76
 2235 02ba 00       		.sleb128 0
 2236 02bb 0D       		.uleb128 0xd
 2237 02bc 01       		.uleb128 0x1
 2238 02bd 51       		.byte	0x51
 2239 02be 02       		.uleb128 0x2
 2240 02bf 75       		.byte	0x75
 2241 02c0 00       		.sleb128 0
 2242 02c1 00       		.byte	0
 2243 02c2 0F       		.uleb128 0xf
 2244 02c3 BA000000 		.4byte	.LVL46
 2245 02c7 E4090000 		.4byte	0x9e4
 2246 02cb DC020000 		.4byte	0x2dc
 2247 02cf 0D       		.uleb128 0xd
 2248 02d0 01       		.uleb128 0x1
 2249 02d1 50       		.byte	0x50
 2250 02d2 02       		.uleb128 0x2
 2251 02d3 08       		.byte	0x8
 2252 02d4 BA       		.byte	0xba
 2253 02d5 0D       		.uleb128 0xd
 2254 02d6 01       		.uleb128 0x1
 2255 02d7 51       		.byte	0x51
 2256 02d8 02       		.uleb128 0x2
 2257 02d9 75       		.byte	0x75
 2258 02da 00       		.sleb128 0
 2259 02db 00       		.byte	0
 2260 02dc 0C       		.uleb128 0xc
ARM GAS  C:\Users\Lory\AppData\Local\Temp\ccNUpijZ.s 			page 77


 2261 02dd C2000000 		.4byte	.LVL47
 2262 02e1 EF090000 		.4byte	0x9ef
 2263 02e5 0D       		.uleb128 0xd
 2264 02e6 01       		.uleb128 0x1
 2265 02e7 50       		.byte	0x50
 2266 02e8 01       		.uleb128 0x1
 2267 02e9 4D       		.byte	0x4d
 2268 02ea 00       		.byte	0
 2269 02eb 00       		.byte	0
 2270 02ec 10       		.uleb128 0x10
 2271 02ed 87000000 		.4byte	.LASF41
 2272 02f1 01       		.byte	0x1
 2273 02f2 5B       		.byte	0x5b
 2274 02f3 00000000 		.4byte	.LFB0
 2275 02f7 C4000000 		.4byte	.LFE0-.LFB0
 2276 02fb 01       		.uleb128 0x1
 2277 02fc 9C       		.byte	0x9c
 2278 02fd 76030000 		.4byte	0x376
 2279 0301 0F       		.uleb128 0xf
 2280 0302 16000000 		.4byte	.LVL49
 2281 0306 FA090000 		.4byte	0x9fa
 2282 030a 14030000 		.4byte	0x314
 2283 030e 0D       		.uleb128 0xd
 2284 030f 01       		.uleb128 0x1
 2285 0310 50       		.byte	0x50
 2286 0311 01       		.uleb128 0x1
 2287 0312 40       		.byte	0x40
 2288 0313 00       		.byte	0
 2289 0314 0F       		.uleb128 0xf
 2290 0315 1C000000 		.4byte	.LVL50
 2291 0319 050A0000 		.4byte	0xa05
 2292 031d 27030000 		.4byte	0x327
 2293 0321 0D       		.uleb128 0xd
 2294 0322 01       		.uleb128 0x1
 2295 0323 50       		.byte	0x50
 2296 0324 01       		.uleb128 0x1
 2297 0325 40       		.byte	0x40
 2298 0326 00       		.byte	0
 2299 0327 0F       		.uleb128 0xf
 2300 0328 24000000 		.4byte	.LVL51
 2301 032c 100A0000 		.4byte	0xa10
 2302 0330 3F030000 		.4byte	0x33f
 2303 0334 0D       		.uleb128 0xd
 2304 0335 01       		.uleb128 0x1
 2305 0336 50       		.byte	0x50
 2306 0337 01       		.uleb128 0x1
 2307 0338 4D       		.byte	0x4d
 2308 0339 0D       		.uleb128 0xd
 2309 033a 01       		.uleb128 0x1
 2310 033b 51       		.byte	0x51
 2311 033c 01       		.uleb128 0x1
 2312 033d 37       		.byte	0x37
 2313 033e 00       		.byte	0
 2314 033f 0F       		.uleb128 0xf
 2315 0340 84000000 		.4byte	.LVL52
 2316 0344 41010000 		.4byte	0x141
 2317 0348 6C030000 		.4byte	0x36c
ARM GAS  C:\Users\Lory\AppData\Local\Temp\ccNUpijZ.s 			page 78


 2318 034c 0D       		.uleb128 0xd
 2319 034d 01       		.uleb128 0x1
 2320 034e 50       		.byte	0x50
 2321 034f 01       		.uleb128 0x1
 2322 0350 32       		.byte	0x32
 2323 0351 0D       		.uleb128 0xd
 2324 0352 01       		.uleb128 0x1
 2325 0353 51       		.byte	0x51
 2326 0354 03       		.uleb128 0x3
 2327 0355 0B       		.byte	0xb
 2328 0356 6B8D     		.2byte	0x8d6b
 2329 0358 0D       		.uleb128 0xd
 2330 0359 01       		.uleb128 0x1
 2331 035a 52       		.byte	0x52
 2332 035b 03       		.uleb128 0x3
 2333 035c 0B       		.byte	0xb
 2334 035d 0080     		.2byte	0x8000
 2335 035f 0D       		.uleb128 0xd
 2336 0360 01       		.uleb128 0x1
 2337 0361 53       		.byte	0x53
 2338 0362 01       		.uleb128 0x1
 2339 0363 38       		.byte	0x38
 2340 0364 0D       		.uleb128 0xd
 2341 0365 02       		.uleb128 0x2
 2342 0366 7D       		.byte	0x7d
 2343 0367 00       		.sleb128 0
 2344 0368 02       		.uleb128 0x2
 2345 0369 77       		.byte	0x77
 2346 036a 00       		.sleb128 0
 2347 036b 00       		.byte	0
 2348 036c 0E       		.uleb128 0xe
 2349 036d A4000000 		.4byte	.LVL53
 2350 0371 5A020000 		.4byte	0x25a
 2351 0375 00       		.byte	0
 2352 0376 10       		.uleb128 0x10
 2353 0377 1C060000 		.4byte	.LASF42
 2354 037b 01       		.byte	0x1
 2355 037c BA       		.byte	0xba
 2356 037d 00000000 		.4byte	.LFB1
 2357 0381 D8000000 		.4byte	.LFE1-.LFB1
 2358 0385 01       		.uleb128 0x1
 2359 0386 9C       		.byte	0x9c
 2360 0387 D2030000 		.4byte	0x3d2
 2361 038b 11       		.uleb128 0x11
 2362 038c AA050000 		.4byte	.LASF31
 2363 0390 01       		.byte	0x1
 2364 0391 BC       		.byte	0xbc
 2365 0392 72000000 		.4byte	0x72
 2366 0396 12       		.uleb128 0x12
 2367 0397 2E060000 		.4byte	.LASF39
 2368 039b 01       		.byte	0x1
 2369 039c BD       		.byte	0xbd
 2370 039d 72000000 		.4byte	0x72
 2371 03a1 52020000 		.4byte	.LLST12
 2372 03a5 0E       		.uleb128 0xe
 2373 03a6 06000000 		.4byte	.LVL54
 2374 03aa AD090000 		.4byte	0x9ad
ARM GAS  C:\Users\Lory\AppData\Local\Temp\ccNUpijZ.s 			page 79


 2375 03ae 0F       		.uleb128 0xf
 2376 03af 54000000 		.4byte	.LVL57
 2377 03b3 B8090000 		.4byte	0x9b8
 2378 03b7 C1030000 		.4byte	0x3c1
 2379 03bb 0D       		.uleb128 0xd
 2380 03bc 01       		.uleb128 0x1
 2381 03bd 50       		.byte	0x50
 2382 03be 01       		.uleb128 0x1
 2383 03bf 33       		.byte	0x33
 2384 03c0 00       		.byte	0
 2385 03c1 0C       		.uleb128 0xc
 2386 03c2 B0000000 		.4byte	.LVL58
 2387 03c6 C3090000 		.4byte	0x9c3
 2388 03ca 0D       		.uleb128 0xd
 2389 03cb 01       		.uleb128 0x1
 2390 03cc 50       		.byte	0x50
 2391 03cd 02       		.uleb128 0x2
 2392 03ce 76       		.byte	0x76
 2393 03cf 00       		.sleb128 0
 2394 03d0 00       		.byte	0
 2395 03d1 00       		.byte	0
 2396 03d2 13       		.uleb128 0x13
 2397 03d3 31010000 		.4byte	.LASF43
 2398 03d7 01       		.byte	0x1
 2399 03d8 4E01     		.2byte	0x14e
 2400 03da 00000000 		.4byte	.LFB2
 2401 03de 28000000 		.4byte	.LFE2-.LFB2
 2402 03e2 01       		.uleb128 0x1
 2403 03e3 9C       		.byte	0x9c
 2404 03e4 FB030000 		.4byte	0x3fb
 2405 03e8 0E       		.uleb128 0xe
 2406 03e9 16000000 		.4byte	.LVL60
 2407 03ed EC020000 		.4byte	0x2ec
 2408 03f1 0E       		.uleb128 0xe
 2409 03f2 20000000 		.4byte	.LVL61
 2410 03f6 76030000 		.4byte	0x376
 2411 03fa 00       		.byte	0
 2412 03fb 13       		.uleb128 0x13
 2413 03fc 82050000 		.4byte	.LASF44
 2414 0400 01       		.byte	0x1
 2415 0401 6F01     		.2byte	0x16f
 2416 0403 00000000 		.4byte	.LFB3
 2417 0407 E4000000 		.4byte	.LFE3-.LFB3
 2418 040b 01       		.uleb128 0x1
 2419 040c 9C       		.byte	0x9c
 2420 040d 4E040000 		.4byte	0x44e
 2421 0411 0B       		.uleb128 0xb
 2422 0412 2E060000 		.4byte	.LASF39
 2423 0416 01       		.byte	0x1
 2424 0417 7101     		.2byte	0x171
 2425 0419 72000000 		.4byte	0x72
 2426 041d 65020000 		.4byte	.LLST13
 2427 0421 0E       		.uleb128 0xe
 2428 0422 06000000 		.4byte	.LVL62
 2429 0426 AD090000 		.4byte	0x9ad
 2430 042a 0F       		.uleb128 0xf
 2431 042b 4C000000 		.4byte	.LVL64
ARM GAS  C:\Users\Lory\AppData\Local\Temp\ccNUpijZ.s 			page 80


 2432 042f B8090000 		.4byte	0x9b8
 2433 0433 3D040000 		.4byte	0x43d
 2434 0437 0D       		.uleb128 0xd
 2435 0438 01       		.uleb128 0x1
 2436 0439 50       		.byte	0x50
 2437 043a 01       		.uleb128 0x1
 2438 043b 33       		.byte	0x33
 2439 043c 00       		.byte	0
 2440 043d 0C       		.uleb128 0xc
 2441 043e CC000000 		.4byte	.LVL65
 2442 0442 C3090000 		.4byte	0x9c3
 2443 0446 0D       		.uleb128 0xd
 2444 0447 01       		.uleb128 0x1
 2445 0448 50       		.byte	0x50
 2446 0449 02       		.uleb128 0x2
 2447 044a 76       		.byte	0x76
 2448 044b 00       		.sleb128 0
 2449 044c 00       		.byte	0
 2450 044d 00       		.byte	0
 2451 044e 13       		.uleb128 0x13
 2452 044f CB000000 		.4byte	.LASF45
 2453 0453 01       		.byte	0x1
 2454 0454 B201     		.2byte	0x1b2
 2455 0456 00000000 		.4byte	.LFB4
 2456 045a 18000000 		.4byte	.LFE4-.LFB4
 2457 045e 01       		.uleb128 0x1
 2458 045f 9C       		.byte	0x9c
 2459 0460 85040000 		.4byte	0x485
 2460 0464 0A       		.uleb128 0xa
 2461 0465 7E030000 		.4byte	.LASF46
 2462 0469 01       		.byte	0x1
 2463 046a B201     		.2byte	0x1b2
 2464 046c 72000000 		.4byte	0x72
 2465 0470 78020000 		.4byte	.LLST14
 2466 0474 0B       		.uleb128 0xb
 2467 0475 CC060000 		.4byte	.LASF47
 2468 0479 01       		.byte	0x1
 2469 047a B401     		.2byte	0x1b4
 2470 047c 72000000 		.4byte	0x72
 2471 0480 99020000 		.4byte	.LLST15
 2472 0484 00       		.byte	0
 2473 0485 13       		.uleb128 0x13
 2474 0486 95060000 		.4byte	.LASF48
 2475 048a 01       		.byte	0x1
 2476 048b D601     		.2byte	0x1d6
 2477 048d 00000000 		.4byte	.LFB5
 2478 0491 18000000 		.4byte	.LFE5-.LFB5
 2479 0495 01       		.uleb128 0x1
 2480 0496 9C       		.byte	0x9c
 2481 0497 BC040000 		.4byte	0x4bc
 2482 049b 0A       		.uleb128 0xa
 2483 049c 63030000 		.4byte	.LASF49
 2484 04a0 01       		.byte	0x1
 2485 04a1 D601     		.2byte	0x1d6
 2486 04a3 72000000 		.4byte	0x72
 2487 04a7 B7020000 		.4byte	.LLST16
 2488 04ab 0B       		.uleb128 0xb
ARM GAS  C:\Users\Lory\AppData\Local\Temp\ccNUpijZ.s 			page 81


 2489 04ac CC060000 		.4byte	.LASF47
 2490 04b0 01       		.byte	0x1
 2491 04b1 D801     		.2byte	0x1d8
 2492 04b3 72000000 		.4byte	0x72
 2493 04b7 D8020000 		.4byte	.LLST17
 2494 04bb 00       		.byte	0
 2495 04bc 14       		.uleb128 0x14
 2496 04bd 07040000 		.4byte	.LASF53
 2497 04c1 01       		.byte	0x1
 2498 04c2 FE01     		.2byte	0x1fe
 2499 04c4 72000000 		.4byte	0x72
 2500 04c8 00000000 		.4byte	.LFB6
 2501 04cc 74000000 		.4byte	.LFE6-.LFB6
 2502 04d0 01       		.uleb128 0x1
 2503 04d1 9C       		.byte	0x9c
 2504 04d2 17050000 		.4byte	0x517
 2505 04d6 0A       		.uleb128 0xa
 2506 04d7 5E060000 		.4byte	.LASF50
 2507 04db 01       		.byte	0x1
 2508 04dc FE01     		.2byte	0x1fe
 2509 04de BA000000 		.4byte	0xba
 2510 04e2 F6020000 		.4byte	.LLST18
 2511 04e6 0B       		.uleb128 0xb
 2512 04e7 CC060000 		.4byte	.LASF47
 2513 04eb 01       		.byte	0x1
 2514 04ec 0002     		.2byte	0x200
 2515 04ee 7E000000 		.4byte	0x7e
 2516 04f2 24030000 		.4byte	.LLST19
 2517 04f6 0B       		.uleb128 0xb
 2518 04f7 3F060000 		.4byte	.LASF51
 2519 04fb 01       		.byte	0x1
 2520 04fc 0102     		.2byte	0x201
 2521 04fe 72000000 		.4byte	0x72
 2522 0502 5C030000 		.4byte	.LLST20
 2523 0506 0B       		.uleb128 0xb
 2524 0507 D0050000 		.4byte	.LASF52
 2525 050b 01       		.byte	0x1
 2526 050c 0202     		.2byte	0x202
 2527 050e BA000000 		.4byte	0xba
 2528 0512 7B030000 		.4byte	.LLST21
 2529 0516 00       		.byte	0
 2530 0517 15       		.uleb128 0x15
 2531 0518 22040000 		.4byte	.LASF54
 2532 051c 01       		.byte	0x1
 2533 051d 2D02     		.2byte	0x22d
 2534 051f 7E000000 		.4byte	0x7e
 2535 0523 00000000 		.4byte	.LFB7
 2536 0527 24000000 		.4byte	.LFE7-.LFB7
 2537 052b 01       		.uleb128 0x1
 2538 052c 9C       		.byte	0x9c
 2539 052d 52050000 		.4byte	0x552
 2540 0531 0B       		.uleb128 0xb
 2541 0532 A3050000 		.4byte	.LASF55
 2542 0536 01       		.byte	0x1
 2543 0537 2F02     		.2byte	0x22f
 2544 0539 72000000 		.4byte	0x72
 2545 053d BA030000 		.4byte	.LLST22
ARM GAS  C:\Users\Lory\AppData\Local\Temp\ccNUpijZ.s 			page 82


 2546 0541 0B       		.uleb128 0xb
 2547 0542 5F020000 		.4byte	.LASF34
 2548 0546 01       		.byte	0x1
 2549 0547 3002     		.2byte	0x230
 2550 0549 7E000000 		.4byte	0x7e
 2551 054d CD030000 		.4byte	.LLST23
 2552 0551 00       		.byte	0
 2553 0552 16       		.uleb128 0x16
 2554 0553 46060000 		.4byte	.LASF56
 2555 0557 01       		.byte	0x1
 2556 0558 4F02     		.2byte	0x24f
 2557 055a 00000000 		.4byte	.LFB8
 2558 055e 10000000 		.4byte	.LFE8-.LFB8
 2559 0562 01       		.uleb128 0x1
 2560 0563 9C       		.byte	0x9c
 2561 0564 16       		.uleb128 0x16
 2562 0565 99030000 		.4byte	.LASF57
 2563 0569 01       		.byte	0x1
 2564 056a 6602     		.2byte	0x266
 2565 056c 00000000 		.4byte	.LFB9
 2566 0570 10000000 		.4byte	.LFE9-.LFB9
 2567 0574 01       		.uleb128 0x1
 2568 0575 9C       		.byte	0x9c
 2569 0576 15       		.uleb128 0x15
 2570 0577 F7050000 		.4byte	.LASF58
 2571 057b 01       		.byte	0x1
 2572 057c 8902     		.2byte	0x289
 2573 057e 72000000 		.4byte	0x72
 2574 0582 00000000 		.4byte	.LFB10
 2575 0586 30000000 		.4byte	.LFE10-.LFB10
 2576 058a 01       		.uleb128 0x1
 2577 058b 9C       		.byte	0x9c
 2578 058c B1050000 		.4byte	0x5b1
 2579 0590 0A       		.uleb128 0xa
 2580 0591 A7010000 		.4byte	.LASF59
 2581 0595 01       		.byte	0x1
 2582 0596 8902     		.2byte	0x289
 2583 0598 72000000 		.4byte	0x72
 2584 059c EB030000 		.4byte	.LLST24
 2585 05a0 0B       		.uleb128 0xb
 2586 05a1 3F060000 		.4byte	.LASF51
 2587 05a5 01       		.byte	0x1
 2588 05a6 8B02     		.2byte	0x28b
 2589 05a8 72000000 		.4byte	0x72
 2590 05ac 0C040000 		.4byte	.LLST25
 2591 05b0 00       		.byte	0
 2592 05b1 15       		.uleb128 0x15
 2593 05b2 CE020000 		.4byte	.LASF60
 2594 05b6 01       		.byte	0x1
 2595 05b7 B802     		.2byte	0x2b8
 2596 05b9 96000000 		.4byte	0x96
 2597 05bd 00000000 		.4byte	.LFB11
 2598 05c1 48000000 		.4byte	.LFE11-.LFB11
 2599 05c5 01       		.uleb128 0x1
 2600 05c6 9C       		.byte	0x9c
 2601 05c7 EA050000 		.4byte	0x5ea
 2602 05cb 17       		.uleb128 0x17
ARM GAS  C:\Users\Lory\AppData\Local\Temp\ccNUpijZ.s 			page 83


 2603 05cc 15070000 		.4byte	.LASF61
 2604 05d0 01       		.byte	0x1
 2605 05d1 BA02     		.2byte	0x2ba
 2606 05d3 96000000 		.4byte	0x96
 2607 05d7 01       		.uleb128 0x1
 2608 05d8 50       		.byte	0x50
 2609 05d9 0B       		.uleb128 0xb
 2610 05da 63030000 		.4byte	.LASF49
 2611 05de 01       		.byte	0x1
 2612 05df BB02     		.2byte	0x2bb
 2613 05e1 72000000 		.4byte	0x72
 2614 05e5 2A040000 		.4byte	.LLST26
 2615 05e9 00       		.byte	0
 2616 05ea 15       		.uleb128 0x15
 2617 05eb 8E020000 		.4byte	.LASF62
 2618 05ef 01       		.byte	0x1
 2619 05f0 EE02     		.2byte	0x2ee
 2620 05f2 A2000000 		.4byte	0xa2
 2621 05f6 00000000 		.4byte	.LFB12
 2622 05fa 50000000 		.4byte	.LFE12-.LFB12
 2623 05fe 01       		.uleb128 0x1
 2624 05ff 9C       		.byte	0x9c
 2625 0600 25060000 		.4byte	0x625
 2626 0604 0B       		.uleb128 0xb
 2627 0605 15070000 		.4byte	.LASF61
 2628 0609 01       		.byte	0x1
 2629 060a F002     		.2byte	0x2f0
 2630 060c 7E000000 		.4byte	0x7e
 2631 0610 48040000 		.4byte	.LLST27
 2632 0614 0B       		.uleb128 0xb
 2633 0615 63030000 		.4byte	.LASF49
 2634 0619 01       		.byte	0x1
 2635 061a F102     		.2byte	0x2f1
 2636 061c 72000000 		.4byte	0x72
 2637 0620 71040000 		.4byte	.LLST28
 2638 0624 00       		.byte	0
 2639 0625 15       		.uleb128 0x15
 2640 0626 60050000 		.4byte	.LASF63
 2641 062a 01       		.byte	0x1
 2642 062b 2A03     		.2byte	0x32a
 2643 062d AE000000 		.4byte	0xae
 2644 0631 00000000 		.4byte	.LFB13
 2645 0635 6C000000 		.4byte	.LFE13-.LFB13
 2646 0639 01       		.uleb128 0x1
 2647 063a 9C       		.byte	0x9c
 2648 063b 60060000 		.4byte	0x660
 2649 063f 0B       		.uleb128 0xb
 2650 0640 15070000 		.4byte	.LASF61
 2651 0644 01       		.byte	0x1
 2652 0645 2C03     		.2byte	0x32c
 2653 0647 8A000000 		.4byte	0x8a
 2654 064b 8F040000 		.4byte	.LLST29
 2655 064f 0B       		.uleb128 0xb
 2656 0650 63030000 		.4byte	.LASF49
 2657 0654 01       		.byte	0x1
 2658 0655 2D03     		.2byte	0x32d
 2659 0657 72000000 		.4byte	0x72
ARM GAS  C:\Users\Lory\AppData\Local\Temp\ccNUpijZ.s 			page 84


 2660 065b F0040000 		.4byte	.LLST30
 2661 065f 00       		.byte	0
 2662 0660 13       		.uleb128 0x13
 2663 0661 65010000 		.4byte	.LASF64
 2664 0665 01       		.byte	0x1
 2665 0666 8703     		.2byte	0x387
 2666 0668 00000000 		.4byte	.LFB14
 2667 066c 0C000000 		.4byte	.LFE14-.LFB14
 2668 0670 01       		.uleb128 0x1
 2669 0671 9C       		.byte	0x9c
 2670 0672 85060000 		.4byte	0x685
 2671 0676 18       		.uleb128 0x18
 2672 0677 D9050000 		.4byte	.LASF65
 2673 067b 01       		.byte	0x1
 2674 067c 8703     		.2byte	0x387
 2675 067e AE000000 		.4byte	0xae
 2676 0682 01       		.uleb128 0x1
 2677 0683 50       		.byte	0x50
 2678 0684 00       		.byte	0
 2679 0685 13       		.uleb128 0x13
 2680 0686 22020000 		.4byte	.LASF66
 2681 068a 01       		.byte	0x1
 2682 068b AA03     		.2byte	0x3aa
 2683 068d 00000000 		.4byte	.LFB15
 2684 0691 0C000000 		.4byte	.LFE15-.LFB15
 2685 0695 01       		.uleb128 0x1
 2686 0696 9C       		.byte	0x9c
 2687 0697 AA060000 		.4byte	0x6aa
 2688 069b 18       		.uleb128 0x18
 2689 069c 07000000 		.4byte	.LASF67
 2690 06a0 01       		.byte	0x1
 2691 06a1 AA03     		.2byte	0x3aa
 2692 06a3 AE000000 		.4byte	0xae
 2693 06a7 01       		.uleb128 0x1
 2694 06a8 50       		.byte	0x50
 2695 06a9 00       		.byte	0
 2696 06aa 15       		.uleb128 0x15
 2697 06ab D4030000 		.4byte	.LASF68
 2698 06af 01       		.byte	0x1
 2699 06b0 C503     		.2byte	0x3c5
 2700 06b2 A2000000 		.4byte	0xa2
 2701 06b6 00000000 		.4byte	.LFB16
 2702 06ba 24000000 		.4byte	.LFE16-.LFB16
 2703 06be 01       		.uleb128 0x1
 2704 06bf 9C       		.byte	0x9c
 2705 06c0 E3060000 		.4byte	0x6e3
 2706 06c4 0A       		.uleb128 0xa
 2707 06c5 12060000 		.4byte	.LASF69
 2708 06c9 01       		.byte	0x1
 2709 06ca C503     		.2byte	0x3c5
 2710 06cc AE000000 		.4byte	0xae
 2711 06d0 19050000 		.4byte	.LLST31
 2712 06d4 17       		.uleb128 0x17
 2713 06d5 A5020000 		.4byte	.LASF70
 2714 06d9 01       		.byte	0x1
 2715 06da C803     		.2byte	0x3c8
 2716 06dc A2000000 		.4byte	0xa2
ARM GAS  C:\Users\Lory\AppData\Local\Temp\ccNUpijZ.s 			page 85


 2717 06e0 01       		.uleb128 0x1
 2718 06e1 50       		.byte	0x50
 2719 06e2 00       		.byte	0
 2720 06e3 14       		.uleb128 0x14
 2721 06e4 B1000000 		.4byte	.LASF71
 2722 06e8 01       		.byte	0x1
 2723 06e9 0204     		.2byte	0x402
 2724 06eb BA000000 		.4byte	0xba
 2725 06ef 00000000 		.4byte	.LFB17
 2726 06f3 28000000 		.4byte	.LFE17-.LFB17
 2727 06f7 01       		.uleb128 0x1
 2728 06f8 9C       		.byte	0x9c
 2729 06f9 1C070000 		.4byte	0x71c
 2730 06fd 0A       		.uleb128 0xa
 2731 06fe 12060000 		.4byte	.LASF69
 2732 0702 01       		.byte	0x1
 2733 0703 0204     		.2byte	0x402
 2734 0705 AE000000 		.4byte	0xae
 2735 0709 37050000 		.4byte	.LLST32
 2736 070d 17       		.uleb128 0x17
 2737 070e 5F010000 		.4byte	.LASF72
 2738 0712 01       		.byte	0x1
 2739 0713 0504     		.2byte	0x405
 2740 0715 BA000000 		.4byte	0xba
 2741 0719 01       		.uleb128 0x1
 2742 071a 50       		.byte	0x50
 2743 071b 00       		.byte	0
 2744 071c 15       		.uleb128 0x15
 2745 071d 01030000 		.4byte	.LASF73
 2746 0721 01       		.byte	0x1
 2747 0722 4404     		.2byte	0x444
 2748 0724 AE000000 		.4byte	0xae
 2749 0728 00000000 		.4byte	.LFB18
 2750 072c 64000000 		.4byte	.LFE18-.LFB18
 2751 0730 01       		.uleb128 0x1
 2752 0731 9C       		.byte	0x9c
 2753 0732 85070000 		.4byte	0x785
 2754 0736 0A       		.uleb128 0xa
 2755 0737 12060000 		.4byte	.LASF69
 2756 073b 01       		.byte	0x1
 2757 073c 4404     		.2byte	0x444
 2758 073e AE000000 		.4byte	0xae
 2759 0742 65050000 		.4byte	.LLST33
 2760 0746 0B       		.uleb128 0xb
 2761 0747 D8010000 		.4byte	.LASF74
 2762 074b 01       		.byte	0x1
 2763 074c 4704     		.2byte	0x447
 2764 074e AE000000 		.4byte	0xae
 2765 0752 86050000 		.4byte	.LLST34
 2766 0756 0B       		.uleb128 0xb
 2767 0757 92050000 		.4byte	.LASF75
 2768 075b 01       		.byte	0x1
 2769 075c 4804     		.2byte	0x448
 2770 075e AE000000 		.4byte	0xae
 2771 0762 A9050000 		.4byte	.LLST35
 2772 0766 17       		.uleb128 0x17
 2773 0767 98050000 		.4byte	.LASF76
ARM GAS  C:\Users\Lory\AppData\Local\Temp\ccNUpijZ.s 			page 86


 2774 076b 01       		.byte	0x1
 2775 076c 4904     		.2byte	0x449
 2776 076e AE000000 		.4byte	0xae
 2777 0772 01       		.uleb128 0x1
 2778 0773 51       		.byte	0x51
 2779 0774 0B       		.uleb128 0xb
 2780 0775 77050000 		.4byte	.LASF30
 2781 0779 01       		.byte	0x1
 2782 077a 4A04     		.2byte	0x44a
 2783 077c 72000000 		.4byte	0x72
 2784 0780 BC050000 		.4byte	.LLST36
 2785 0784 00       		.byte	0
 2786 0785 13       		.uleb128 0x13
 2787 0786 AD060000 		.4byte	.LASF77
 2788 078a 01       		.byte	0x1
 2789 078b 1806     		.2byte	0x618
 2790 078d 00000000 		.4byte	.LFB20
 2791 0791 60000000 		.4byte	.LFE20-.LFB20
 2792 0795 01       		.uleb128 0x1
 2793 0796 9C       		.byte	0x9c
 2794 0797 FA070000 		.4byte	0x7fa
 2795 079b 0A       		.uleb128 0xa
 2796 079c AA050000 		.4byte	.LASF31
 2797 07a0 01       		.byte	0x1
 2798 07a1 1806     		.2byte	0x618
 2799 07a3 72000000 		.4byte	0x72
 2800 07a7 DA050000 		.4byte	.LLST37
 2801 07ab 0A       		.uleb128 0xa
 2802 07ac C8050000 		.4byte	.LASF78
 2803 07b0 01       		.byte	0x1
 2804 07b1 1806     		.2byte	0x618
 2805 07b3 72000000 		.4byte	0x72
 2806 07b7 14060000 		.4byte	.LLST38
 2807 07bb 0E       		.uleb128 0xe
 2808 07bc 1E000000 		.4byte	.LVL150
 2809 07c0 FB030000 		.4byte	0x3fb
 2810 07c4 0F       		.uleb128 0xf
 2811 07c5 24000000 		.4byte	.LVL151
 2812 07c9 5A020000 		.4byte	0x25a
 2813 07cd D8070000 		.4byte	0x7d8
 2814 07d1 0D       		.uleb128 0xd
 2815 07d2 01       		.uleb128 0x1
 2816 07d3 50       		.byte	0x50
 2817 07d4 02       		.uleb128 0x2
 2818 07d5 74       		.byte	0x74
 2819 07d6 00       		.sleb128 0
 2820 07d7 00       		.byte	0
 2821 07d8 0E       		.uleb128 0xe
 2822 07d9 42000000 		.4byte	.LVL152
 2823 07dd D2030000 		.4byte	0x3d2
 2824 07e1 0E       		.uleb128 0xe
 2825 07e2 46000000 		.4byte	.LVL153
 2826 07e6 52050000 		.4byte	0x552
 2827 07ea 0C       		.uleb128 0xc
 2828 07eb 4E000000 		.4byte	.LVL156
 2829 07ef A2090000 		.4byte	0x9a2
 2830 07f3 0D       		.uleb128 0xd
ARM GAS  C:\Users\Lory\AppData\Local\Temp\ccNUpijZ.s 			page 87


 2831 07f4 01       		.uleb128 0x1
 2832 07f5 50       		.byte	0x50
 2833 07f6 01       		.uleb128 0x1
 2834 07f7 30       		.byte	0x30
 2835 07f8 00       		.byte	0
 2836 07f9 00       		.byte	0
 2837 07fa 15       		.uleb128 0x15
 2838 07fb 90010000 		.4byte	.LASF79
 2839 07ff 01       		.byte	0x1
 2840 0800 EA06     		.2byte	0x6ea
 2841 0802 96000000 		.4byte	0x96
 2842 0806 00000000 		.4byte	.LFB23
 2843 080a 28000000 		.4byte	.LFE23-.LFB23
 2844 080e 01       		.uleb128 0x1
 2845 080f 9C       		.byte	0x9c
 2846 0810 53080000 		.4byte	0x853
 2847 0814 0B       		.uleb128 0xb
 2848 0815 15070000 		.4byte	.LASF61
 2849 0819 01       		.byte	0x1
 2850 081a EC06     		.2byte	0x6ec
 2851 081c 96000000 		.4byte	0x96
 2852 0820 4E060000 		.4byte	.LLST39
 2853 0824 0E       		.uleb128 0xe
 2854 0825 10000000 		.4byte	.LVL157
 2855 0829 52050000 		.4byte	0x552
 2856 082d 0F       		.uleb128 0xf
 2857 082e 16000000 		.4byte	.LVL158
 2858 0832 76050000 		.4byte	0x576
 2859 0836 40080000 		.4byte	0x840
 2860 083a 0D       		.uleb128 0xd
 2861 083b 01       		.uleb128 0x1
 2862 083c 50       		.byte	0x50
 2863 083d 01       		.uleb128 0x1
 2864 083e 30       		.byte	0x30
 2865 083f 00       		.byte	0
 2866 0840 0E       		.uleb128 0xe
 2867 0841 1A000000 		.4byte	.LVL159
 2868 0845 B1050000 		.4byte	0x5b1
 2869 0849 0E       		.uleb128 0xe
 2870 084a 20000000 		.4byte	.LVL161
 2871 084e 64050000 		.4byte	0x564
 2872 0852 00       		.byte	0
 2873 0853 15       		.uleb128 0x15
 2874 0854 B1050000 		.4byte	.LASF80
 2875 0858 01       		.byte	0x1
 2876 0859 0B07     		.2byte	0x70b
 2877 085b A2000000 		.4byte	0xa2
 2878 085f 00000000 		.4byte	.LFB24
 2879 0863 28000000 		.4byte	.LFE24-.LFB24
 2880 0867 01       		.uleb128 0x1
 2881 0868 9C       		.byte	0x9c
 2882 0869 AC080000 		.4byte	0x8ac
 2883 086d 0B       		.uleb128 0xb
 2884 086e 15070000 		.4byte	.LASF61
 2885 0872 01       		.byte	0x1
 2886 0873 0D07     		.2byte	0x70d
 2887 0875 A2000000 		.4byte	0xa2
ARM GAS  C:\Users\Lory\AppData\Local\Temp\ccNUpijZ.s 			page 88


 2888 0879 61060000 		.4byte	.LLST40
 2889 087d 0E       		.uleb128 0xe
 2890 087e 10000000 		.4byte	.LVL163
 2891 0882 52050000 		.4byte	0x552
 2892 0886 0F       		.uleb128 0xf
 2893 0887 16000000 		.4byte	.LVL164
 2894 088b 76050000 		.4byte	0x576
 2895 088f 99080000 		.4byte	0x899
 2896 0893 0D       		.uleb128 0xd
 2897 0894 01       		.uleb128 0x1
 2898 0895 50       		.byte	0x50
 2899 0896 01       		.uleb128 0x1
 2900 0897 30       		.byte	0x30
 2901 0898 00       		.byte	0
 2902 0899 0E       		.uleb128 0xe
 2903 089a 1A000000 		.4byte	.LVL165
 2904 089e EA050000 		.4byte	0x5ea
 2905 08a2 0E       		.uleb128 0xe
 2906 08a3 20000000 		.4byte	.LVL167
 2907 08a7 64050000 		.4byte	0x564
 2908 08ab 00       		.byte	0
 2909 08ac 15       		.uleb128 0x15
 2910 08ad 30000000 		.4byte	.LASF81
 2911 08b1 01       		.byte	0x1
 2912 08b2 2C07     		.2byte	0x72c
 2913 08b4 AE000000 		.4byte	0xae
 2914 08b8 00000000 		.4byte	.LFB25
 2915 08bc 28000000 		.4byte	.LFE25-.LFB25
 2916 08c0 01       		.uleb128 0x1
 2917 08c1 9C       		.byte	0x9c
 2918 08c2 05090000 		.4byte	0x905
 2919 08c6 0B       		.uleb128 0xb
 2920 08c7 15070000 		.4byte	.LASF61
 2921 08cb 01       		.byte	0x1
 2922 08cc 2E07     		.2byte	0x72e
 2923 08ce AE000000 		.4byte	0xae
 2924 08d2 74060000 		.4byte	.LLST41
 2925 08d6 0E       		.uleb128 0xe
 2926 08d7 10000000 		.4byte	.LVL169
 2927 08db 52050000 		.4byte	0x552
 2928 08df 0F       		.uleb128 0xf
 2929 08e0 16000000 		.4byte	.LVL170
 2930 08e4 76050000 		.4byte	0x576
 2931 08e8 F2080000 		.4byte	0x8f2
 2932 08ec 0D       		.uleb128 0xd
 2933 08ed 01       		.uleb128 0x1
 2934 08ee 50       		.byte	0x50
 2935 08ef 01       		.uleb128 0x1
 2936 08f0 30       		.byte	0x30
 2937 08f1 00       		.byte	0
 2938 08f2 0E       		.uleb128 0xe
 2939 08f3 1A000000 		.4byte	.LVL171
 2940 08f7 25060000 		.4byte	0x625
 2941 08fb 0E       		.uleb128 0xe
 2942 08fc 20000000 		.4byte	.LVL173
 2943 0900 64050000 		.4byte	0x564
 2944 0904 00       		.byte	0
ARM GAS  C:\Users\Lory\AppData\Local\Temp\ccNUpijZ.s 			page 89


 2945 0905 19       		.uleb128 0x19
 2946 0906 36010000 		.4byte	0x136
 2947 090a 15090000 		.4byte	0x915
 2948 090e 1A       		.uleb128 0x1a
 2949 090f 0E010000 		.4byte	0x10e
 2950 0913 00       		.byte	0
 2951 0914 00       		.byte	0
 2952 0915 1B       		.uleb128 0x1b
 2953 0916 89030000 		.4byte	.LASF82
 2954 091a 01       		.byte	0x1
 2955 091b 3D       		.byte	0x3d
 2956 091c 05090000 		.4byte	0x905
 2957 0920 05       		.uleb128 0x5
 2958 0921 03       		.byte	0x3
 2959 0922 00000000 		.4byte	ADC_DELSIG_gcor
 2960 0926 1C       		.uleb128 0x1c
 2961 0927 69020000 		.4byte	.LASF83
 2962 092b 01       		.byte	0x1
 2963 092c 2C       		.byte	0x2c
 2964 092d 72000000 		.4byte	0x72
 2965 0931 05       		.uleb128 0x5
 2966 0932 03       		.byte	0x3
 2967 0933 00000000 		.4byte	ADC_DELSIG_initVar
 2968 0937 1C       		.uleb128 0x1c
 2969 0938 1D010000 		.4byte	.LASF84
 2970 093c 01       		.byte	0x1
 2971 093d 24       		.byte	0x24
 2972 093e E0000000 		.4byte	0xe0
 2973 0942 05       		.uleb128 0x5
 2974 0943 03       		.byte	0x3
 2975 0944 00000000 		.4byte	ADC_DELSIG_convDone
 2976 0948 1C       		.uleb128 0x1c
 2977 0949 F1010000 		.4byte	.LASF85
 2978 094d 01       		.byte	0x1
 2979 094e 29       		.byte	0x29
 2980 094f E0000000 		.4byte	0xe0
 2981 0953 05       		.uleb128 0x5
 2982 0954 03       		.byte	0x3
 2983 0955 00000000 		.4byte	ADC_DELSIG_stopConversion
 2984 0959 1C       		.uleb128 0x1c
 2985 095a 01010000 		.4byte	.LASF86
 2986 095e 01       		.byte	0x1
 2987 095f 2F       		.byte	0x2f
 2988 0960 E0000000 		.4byte	0xe0
 2989 0964 05       		.uleb128 0x5
 2990 0965 03       		.byte	0x3
 2991 0966 00000000 		.4byte	ADC_DELSIG_started
 2992 096a 1C       		.uleb128 0x1c
 2993 096b 48020000 		.4byte	.LASF87
 2994 096f 01       		.byte	0x1
 2995 0970 32       		.byte	0x32
 2996 0971 E0000000 		.4byte	0xe0
 2997 0975 05       		.uleb128 0x5
 2998 0976 03       		.byte	0x3
 2999 0977 00000000 		.4byte	ADC_DELSIG_Config
 3000 097b 1C       		.uleb128 0x1c
 3001 097c 7C020000 		.4byte	.LASF88
ARM GAS  C:\Users\Lory\AppData\Local\Temp\ccNUpijZ.s 			page 90


 3002 0980 01       		.byte	0x1
 3003 0981 34       		.byte	0x34
 3004 0982 8C090000 		.4byte	0x98c
 3005 0986 05       		.uleb128 0x5
 3006 0987 03       		.byte	0x3
 3007 0988 00000000 		.4byte	ADC_DELSIG_Offset
 3008 098c 05       		.uleb128 0x5
 3009 098d AE000000 		.4byte	0xae
 3010 0991 1C       		.uleb128 0x1c
 3011 0992 D3060000 		.4byte	.LASF89
 3012 0996 01       		.byte	0x1
 3013 0997 35       		.byte	0x35
 3014 0998 8C090000 		.4byte	0x98c
 3015 099c 05       		.uleb128 0x5
 3016 099d 03       		.byte	0x3
 3017 099e 00000000 		.4byte	ADC_DELSIG_CountsPerVolt
 3018 09a2 1D       		.uleb128 0x1d
 3019 09a3 CD030000 		.4byte	.LASF90
 3020 09a7 CD030000 		.4byte	.LASF90
 3021 09ab 04       		.byte	0x4
 3022 09ac 7F       		.byte	0x7f
 3023 09ad 1D       		.uleb128 0x1d
 3024 09ae 0B020000 		.4byte	.LASF91
 3025 09b2 0B020000 		.4byte	.LASF91
 3026 09b6 04       		.byte	0x4
 3027 09b7 7D       		.byte	0x7d
 3028 09b8 1D       		.uleb128 0x1d
 3029 09b9 4E010000 		.4byte	.LASF92
 3030 09bd 4E010000 		.4byte	.LASF92
 3031 09c1 04       		.byte	0x4
 3032 09c2 77       		.byte	0x77
 3033 09c3 1D       		.uleb128 0x1d
 3034 09c4 0F000000 		.4byte	.LASF93
 3035 09c8 0F000000 		.4byte	.LASF93
 3036 09cc 04       		.byte	0x4
 3037 09cd 7E       		.byte	0x7e
 3038 09ce 1D       		.uleb128 0x1d
 3039 09cf EA000000 		.4byte	.LASF94
 3040 09d3 EA000000 		.4byte	.LASF94
 3041 09d7 05       		.byte	0x5
 3042 09d8 57       		.byte	0x57
 3043 09d9 1D       		.uleb128 0x1d
 3044 09da EC060000 		.4byte	.LASF95
 3045 09de EC060000 		.4byte	.LASF95
 3046 09e2 06       		.byte	0x6
 3047 09e3 2F       		.byte	0x2f
 3048 09e4 1D       		.uleb128 0x1d
 3049 09e5 6F060000 		.4byte	.LASF96
 3050 09e9 6F060000 		.4byte	.LASF96
 3051 09ed 07       		.byte	0x7
 3052 09ee 2F       		.byte	0x2f
 3053 09ef 1D       		.uleb128 0x1d
 3054 09f0 81010000 		.4byte	.LASF97
 3055 09f4 81010000 		.4byte	.LASF97
 3056 09f8 04       		.byte	0x4
 3057 09f9 88       		.byte	0x88
 3058 09fa 1D       		.uleb128 0x1d
ARM GAS  C:\Users\Lory\AppData\Local\Temp\ccNUpijZ.s 			page 91


 3059 09fb 1C070000 		.4byte	.LASF98
 3060 09ff 1C070000 		.4byte	.LASF98
 3061 0a03 06       		.byte	0x6
 3062 0a04 32       		.byte	0x32
 3063 0a05 1D       		.uleb128 0x1d
 3064 0a06 40030000 		.4byte	.LASF99
 3065 0a0a 40030000 		.4byte	.LASF99
 3066 0a0e 07       		.byte	0x7
 3067 0a0f 32       		.byte	0x32
 3068 0a10 1D       		.uleb128 0x1d
 3069 0a11 6D030000 		.4byte	.LASF100
 3070 0a15 6D030000 		.4byte	.LASF100
 3071 0a19 04       		.byte	0x4
 3072 0a1a 8B       		.byte	0x8b
 3073 0a1b 00       		.byte	0
 3074              		.section	.debug_abbrev,"",%progbits
 3075              	.Ldebug_abbrev0:
 3076 0000 01       		.uleb128 0x1
 3077 0001 11       		.uleb128 0x11
 3078 0002 01       		.byte	0x1
 3079 0003 25       		.uleb128 0x25
 3080 0004 0E       		.uleb128 0xe
 3081 0005 13       		.uleb128 0x13
 3082 0006 0B       		.uleb128 0xb
 3083 0007 03       		.uleb128 0x3
 3084 0008 0E       		.uleb128 0xe
 3085 0009 1B       		.uleb128 0x1b
 3086 000a 0E       		.uleb128 0xe
 3087 000b 55       		.uleb128 0x55
 3088 000c 17       		.uleb128 0x17
 3089 000d 11       		.uleb128 0x11
 3090 000e 01       		.uleb128 0x1
 3091 000f 10       		.uleb128 0x10
 3092 0010 17       		.uleb128 0x17
 3093 0011 00       		.byte	0
 3094 0012 00       		.byte	0
 3095 0013 02       		.uleb128 0x2
 3096 0014 24       		.uleb128 0x24
 3097 0015 00       		.byte	0
 3098 0016 0B       		.uleb128 0xb
 3099 0017 0B       		.uleb128 0xb
 3100 0018 3E       		.uleb128 0x3e
 3101 0019 0B       		.uleb128 0xb
 3102 001a 03       		.uleb128 0x3
 3103 001b 0E       		.uleb128 0xe
 3104 001c 00       		.byte	0
 3105 001d 00       		.byte	0
 3106 001e 03       		.uleb128 0x3
 3107 001f 24       		.uleb128 0x24
 3108 0020 00       		.byte	0
 3109 0021 0B       		.uleb128 0xb
 3110 0022 0B       		.uleb128 0xb
 3111 0023 3E       		.uleb128 0x3e
 3112 0024 0B       		.uleb128 0xb
 3113 0025 03       		.uleb128 0x3
 3114 0026 08       		.uleb128 0x8
 3115 0027 00       		.byte	0
ARM GAS  C:\Users\Lory\AppData\Local\Temp\ccNUpijZ.s 			page 92


 3116 0028 00       		.byte	0
 3117 0029 04       		.uleb128 0x4
 3118 002a 16       		.uleb128 0x16
 3119 002b 00       		.byte	0
 3120 002c 03       		.uleb128 0x3
 3121 002d 0E       		.uleb128 0xe
 3122 002e 3A       		.uleb128 0x3a
 3123 002f 0B       		.uleb128 0xb
 3124 0030 3B       		.uleb128 0x3b
 3125 0031 05       		.uleb128 0x5
 3126 0032 49       		.uleb128 0x49
 3127 0033 13       		.uleb128 0x13
 3128 0034 00       		.byte	0
 3129 0035 00       		.byte	0
 3130 0036 05       		.uleb128 0x5
 3131 0037 35       		.uleb128 0x35
 3132 0038 00       		.byte	0
 3133 0039 49       		.uleb128 0x49
 3134 003a 13       		.uleb128 0x13
 3135 003b 00       		.byte	0
 3136 003c 00       		.byte	0
 3137 003d 06       		.uleb128 0x6
 3138 003e 13       		.uleb128 0x13
 3139 003f 01       		.byte	0x1
 3140 0040 0B       		.uleb128 0xb
 3141 0041 0B       		.uleb128 0xb
 3142 0042 3A       		.uleb128 0x3a
 3143 0043 0B       		.uleb128 0xb
 3144 0044 3B       		.uleb128 0x3b
 3145 0045 0B       		.uleb128 0xb
 3146 0046 01       		.uleb128 0x1
 3147 0047 13       		.uleb128 0x13
 3148 0048 00       		.byte	0
 3149 0049 00       		.byte	0
 3150 004a 07       		.uleb128 0x7
 3151 004b 0D       		.uleb128 0xd
 3152 004c 00       		.byte	0
 3153 004d 03       		.uleb128 0x3
 3154 004e 0E       		.uleb128 0xe
 3155 004f 3A       		.uleb128 0x3a
 3156 0050 0B       		.uleb128 0xb
 3157 0051 3B       		.uleb128 0x3b
 3158 0052 0B       		.uleb128 0xb
 3159 0053 49       		.uleb128 0x49
 3160 0054 13       		.uleb128 0x13
 3161 0055 38       		.uleb128 0x38
 3162 0056 0B       		.uleb128 0xb
 3163 0057 00       		.byte	0
 3164 0058 00       		.byte	0
 3165 0059 08       		.uleb128 0x8
 3166 005a 16       		.uleb128 0x16
 3167 005b 00       		.byte	0
 3168 005c 03       		.uleb128 0x3
 3169 005d 0E       		.uleb128 0xe
 3170 005e 3A       		.uleb128 0x3a
 3171 005f 0B       		.uleb128 0xb
 3172 0060 3B       		.uleb128 0x3b
ARM GAS  C:\Users\Lory\AppData\Local\Temp\ccNUpijZ.s 			page 93


 3173 0061 0B       		.uleb128 0xb
 3174 0062 49       		.uleb128 0x49
 3175 0063 13       		.uleb128 0x13
 3176 0064 00       		.byte	0
 3177 0065 00       		.byte	0
 3178 0066 09       		.uleb128 0x9
 3179 0067 2E       		.uleb128 0x2e
 3180 0068 01       		.byte	0x1
 3181 0069 03       		.uleb128 0x3
 3182 006a 0E       		.uleb128 0xe
 3183 006b 3A       		.uleb128 0x3a
 3184 006c 0B       		.uleb128 0xb
 3185 006d 3B       		.uleb128 0x3b
 3186 006e 05       		.uleb128 0x5
 3187 006f 27       		.uleb128 0x27
 3188 0070 19       		.uleb128 0x19
 3189 0071 11       		.uleb128 0x11
 3190 0072 01       		.uleb128 0x1
 3191 0073 12       		.uleb128 0x12
 3192 0074 06       		.uleb128 0x6
 3193 0075 40       		.uleb128 0x40
 3194 0076 18       		.uleb128 0x18
 3195 0077 9742     		.uleb128 0x2117
 3196 0079 19       		.uleb128 0x19
 3197 007a 01       		.uleb128 0x1
 3198 007b 13       		.uleb128 0x13
 3199 007c 00       		.byte	0
 3200 007d 00       		.byte	0
 3201 007e 0A       		.uleb128 0xa
 3202 007f 05       		.uleb128 0x5
 3203 0080 00       		.byte	0
 3204 0081 03       		.uleb128 0x3
 3205 0082 0E       		.uleb128 0xe
 3206 0083 3A       		.uleb128 0x3a
 3207 0084 0B       		.uleb128 0xb
 3208 0085 3B       		.uleb128 0x3b
 3209 0086 05       		.uleb128 0x5
 3210 0087 49       		.uleb128 0x49
 3211 0088 13       		.uleb128 0x13
 3212 0089 02       		.uleb128 0x2
 3213 008a 17       		.uleb128 0x17
 3214 008b 00       		.byte	0
 3215 008c 00       		.byte	0
 3216 008d 0B       		.uleb128 0xb
 3217 008e 34       		.uleb128 0x34
 3218 008f 00       		.byte	0
 3219 0090 03       		.uleb128 0x3
 3220 0091 0E       		.uleb128 0xe
 3221 0092 3A       		.uleb128 0x3a
 3222 0093 0B       		.uleb128 0xb
 3223 0094 3B       		.uleb128 0x3b
 3224 0095 05       		.uleb128 0x5
 3225 0096 49       		.uleb128 0x49
 3226 0097 13       		.uleb128 0x13
 3227 0098 02       		.uleb128 0x2
 3228 0099 17       		.uleb128 0x17
 3229 009a 00       		.byte	0
ARM GAS  C:\Users\Lory\AppData\Local\Temp\ccNUpijZ.s 			page 94


 3230 009b 00       		.byte	0
 3231 009c 0C       		.uleb128 0xc
 3232 009d 898201   		.uleb128 0x4109
 3233 00a0 01       		.byte	0x1
 3234 00a1 11       		.uleb128 0x11
 3235 00a2 01       		.uleb128 0x1
 3236 00a3 31       		.uleb128 0x31
 3237 00a4 13       		.uleb128 0x13
 3238 00a5 00       		.byte	0
 3239 00a6 00       		.byte	0
 3240 00a7 0D       		.uleb128 0xd
 3241 00a8 8A8201   		.uleb128 0x410a
 3242 00ab 00       		.byte	0
 3243 00ac 02       		.uleb128 0x2
 3244 00ad 18       		.uleb128 0x18
 3245 00ae 9142     		.uleb128 0x2111
 3246 00b0 18       		.uleb128 0x18
 3247 00b1 00       		.byte	0
 3248 00b2 00       		.byte	0
 3249 00b3 0E       		.uleb128 0xe
 3250 00b4 898201   		.uleb128 0x4109
 3251 00b7 00       		.byte	0
 3252 00b8 11       		.uleb128 0x11
 3253 00b9 01       		.uleb128 0x1
 3254 00ba 31       		.uleb128 0x31
 3255 00bb 13       		.uleb128 0x13
 3256 00bc 00       		.byte	0
 3257 00bd 00       		.byte	0
 3258 00be 0F       		.uleb128 0xf
 3259 00bf 898201   		.uleb128 0x4109
 3260 00c2 01       		.byte	0x1
 3261 00c3 11       		.uleb128 0x11
 3262 00c4 01       		.uleb128 0x1
 3263 00c5 31       		.uleb128 0x31
 3264 00c6 13       		.uleb128 0x13
 3265 00c7 01       		.uleb128 0x1
 3266 00c8 13       		.uleb128 0x13
 3267 00c9 00       		.byte	0
 3268 00ca 00       		.byte	0
 3269 00cb 10       		.uleb128 0x10
 3270 00cc 2E       		.uleb128 0x2e
 3271 00cd 01       		.byte	0x1
 3272 00ce 3F       		.uleb128 0x3f
 3273 00cf 19       		.uleb128 0x19
 3274 00d0 03       		.uleb128 0x3
 3275 00d1 0E       		.uleb128 0xe
 3276 00d2 3A       		.uleb128 0x3a
 3277 00d3 0B       		.uleb128 0xb
 3278 00d4 3B       		.uleb128 0x3b
 3279 00d5 0B       		.uleb128 0xb
 3280 00d6 27       		.uleb128 0x27
 3281 00d7 19       		.uleb128 0x19
 3282 00d8 11       		.uleb128 0x11
 3283 00d9 01       		.uleb128 0x1
 3284 00da 12       		.uleb128 0x12
 3285 00db 06       		.uleb128 0x6
 3286 00dc 40       		.uleb128 0x40
ARM GAS  C:\Users\Lory\AppData\Local\Temp\ccNUpijZ.s 			page 95


 3287 00dd 18       		.uleb128 0x18
 3288 00de 9742     		.uleb128 0x2117
 3289 00e0 19       		.uleb128 0x19
 3290 00e1 01       		.uleb128 0x1
 3291 00e2 13       		.uleb128 0x13
 3292 00e3 00       		.byte	0
 3293 00e4 00       		.byte	0
 3294 00e5 11       		.uleb128 0x11
 3295 00e6 34       		.uleb128 0x34
 3296 00e7 00       		.byte	0
 3297 00e8 03       		.uleb128 0x3
 3298 00e9 0E       		.uleb128 0xe
 3299 00ea 3A       		.uleb128 0x3a
 3300 00eb 0B       		.uleb128 0xb
 3301 00ec 3B       		.uleb128 0x3b
 3302 00ed 0B       		.uleb128 0xb
 3303 00ee 49       		.uleb128 0x49
 3304 00ef 13       		.uleb128 0x13
 3305 00f0 00       		.byte	0
 3306 00f1 00       		.byte	0
 3307 00f2 12       		.uleb128 0x12
 3308 00f3 34       		.uleb128 0x34
 3309 00f4 00       		.byte	0
 3310 00f5 03       		.uleb128 0x3
 3311 00f6 0E       		.uleb128 0xe
 3312 00f7 3A       		.uleb128 0x3a
 3313 00f8 0B       		.uleb128 0xb
 3314 00f9 3B       		.uleb128 0x3b
 3315 00fa 0B       		.uleb128 0xb
 3316 00fb 49       		.uleb128 0x49
 3317 00fc 13       		.uleb128 0x13
 3318 00fd 02       		.uleb128 0x2
 3319 00fe 17       		.uleb128 0x17
 3320 00ff 00       		.byte	0
 3321 0100 00       		.byte	0
 3322 0101 13       		.uleb128 0x13
 3323 0102 2E       		.uleb128 0x2e
 3324 0103 01       		.byte	0x1
 3325 0104 3F       		.uleb128 0x3f
 3326 0105 19       		.uleb128 0x19
 3327 0106 03       		.uleb128 0x3
 3328 0107 0E       		.uleb128 0xe
 3329 0108 3A       		.uleb128 0x3a
 3330 0109 0B       		.uleb128 0xb
 3331 010a 3B       		.uleb128 0x3b
 3332 010b 05       		.uleb128 0x5
 3333 010c 27       		.uleb128 0x27
 3334 010d 19       		.uleb128 0x19
 3335 010e 11       		.uleb128 0x11
 3336 010f 01       		.uleb128 0x1
 3337 0110 12       		.uleb128 0x12
 3338 0111 06       		.uleb128 0x6
 3339 0112 40       		.uleb128 0x40
 3340 0113 18       		.uleb128 0x18
 3341 0114 9742     		.uleb128 0x2117
 3342 0116 19       		.uleb128 0x19
 3343 0117 01       		.uleb128 0x1
ARM GAS  C:\Users\Lory\AppData\Local\Temp\ccNUpijZ.s 			page 96


 3344 0118 13       		.uleb128 0x13
 3345 0119 00       		.byte	0
 3346 011a 00       		.byte	0
 3347 011b 14       		.uleb128 0x14
 3348 011c 2E       		.uleb128 0x2e
 3349 011d 01       		.byte	0x1
 3350 011e 3F       		.uleb128 0x3f
 3351 011f 19       		.uleb128 0x19
 3352 0120 03       		.uleb128 0x3
 3353 0121 0E       		.uleb128 0xe
 3354 0122 3A       		.uleb128 0x3a
 3355 0123 0B       		.uleb128 0xb
 3356 0124 3B       		.uleb128 0x3b
 3357 0125 05       		.uleb128 0x5
 3358 0126 27       		.uleb128 0x27
 3359 0127 19       		.uleb128 0x19
 3360 0128 49       		.uleb128 0x49
 3361 0129 13       		.uleb128 0x13
 3362 012a 11       		.uleb128 0x11
 3363 012b 01       		.uleb128 0x1
 3364 012c 12       		.uleb128 0x12
 3365 012d 06       		.uleb128 0x6
 3366 012e 40       		.uleb128 0x40
 3367 012f 18       		.uleb128 0x18
 3368 0130 9642     		.uleb128 0x2116
 3369 0132 19       		.uleb128 0x19
 3370 0133 01       		.uleb128 0x1
 3371 0134 13       		.uleb128 0x13
 3372 0135 00       		.byte	0
 3373 0136 00       		.byte	0
 3374 0137 15       		.uleb128 0x15
 3375 0138 2E       		.uleb128 0x2e
 3376 0139 01       		.byte	0x1
 3377 013a 3F       		.uleb128 0x3f
 3378 013b 19       		.uleb128 0x19
 3379 013c 03       		.uleb128 0x3
 3380 013d 0E       		.uleb128 0xe
 3381 013e 3A       		.uleb128 0x3a
 3382 013f 0B       		.uleb128 0xb
 3383 0140 3B       		.uleb128 0x3b
 3384 0141 05       		.uleb128 0x5
 3385 0142 27       		.uleb128 0x27
 3386 0143 19       		.uleb128 0x19
 3387 0144 49       		.uleb128 0x49
 3388 0145 13       		.uleb128 0x13
 3389 0146 11       		.uleb128 0x11
 3390 0147 01       		.uleb128 0x1
 3391 0148 12       		.uleb128 0x12
 3392 0149 06       		.uleb128 0x6
 3393 014a 40       		.uleb128 0x40
 3394 014b 18       		.uleb128 0x18
 3395 014c 9742     		.uleb128 0x2117
 3396 014e 19       		.uleb128 0x19
 3397 014f 01       		.uleb128 0x1
 3398 0150 13       		.uleb128 0x13
 3399 0151 00       		.byte	0
 3400 0152 00       		.byte	0
ARM GAS  C:\Users\Lory\AppData\Local\Temp\ccNUpijZ.s 			page 97


 3401 0153 16       		.uleb128 0x16
 3402 0154 2E       		.uleb128 0x2e
 3403 0155 00       		.byte	0
 3404 0156 3F       		.uleb128 0x3f
 3405 0157 19       		.uleb128 0x19
 3406 0158 03       		.uleb128 0x3
 3407 0159 0E       		.uleb128 0xe
 3408 015a 3A       		.uleb128 0x3a
 3409 015b 0B       		.uleb128 0xb
 3410 015c 3B       		.uleb128 0x3b
 3411 015d 05       		.uleb128 0x5
 3412 015e 27       		.uleb128 0x27
 3413 015f 19       		.uleb128 0x19
 3414 0160 11       		.uleb128 0x11
 3415 0161 01       		.uleb128 0x1
 3416 0162 12       		.uleb128 0x12
 3417 0163 06       		.uleb128 0x6
 3418 0164 40       		.uleb128 0x40
 3419 0165 18       		.uleb128 0x18
 3420 0166 9742     		.uleb128 0x2117
 3421 0168 19       		.uleb128 0x19
 3422 0169 00       		.byte	0
 3423 016a 00       		.byte	0
 3424 016b 17       		.uleb128 0x17
 3425 016c 34       		.uleb128 0x34
 3426 016d 00       		.byte	0
 3427 016e 03       		.uleb128 0x3
 3428 016f 0E       		.uleb128 0xe
 3429 0170 3A       		.uleb128 0x3a
 3430 0171 0B       		.uleb128 0xb
 3431 0172 3B       		.uleb128 0x3b
 3432 0173 05       		.uleb128 0x5
 3433 0174 49       		.uleb128 0x49
 3434 0175 13       		.uleb128 0x13
 3435 0176 02       		.uleb128 0x2
 3436 0177 18       		.uleb128 0x18
 3437 0178 00       		.byte	0
 3438 0179 00       		.byte	0
 3439 017a 18       		.uleb128 0x18
 3440 017b 05       		.uleb128 0x5
 3441 017c 00       		.byte	0
 3442 017d 03       		.uleb128 0x3
 3443 017e 0E       		.uleb128 0xe
 3444 017f 3A       		.uleb128 0x3a
 3445 0180 0B       		.uleb128 0xb
 3446 0181 3B       		.uleb128 0x3b
 3447 0182 05       		.uleb128 0x5
 3448 0183 49       		.uleb128 0x49
 3449 0184 13       		.uleb128 0x13
 3450 0185 02       		.uleb128 0x2
 3451 0186 18       		.uleb128 0x18
 3452 0187 00       		.byte	0
 3453 0188 00       		.byte	0
 3454 0189 19       		.uleb128 0x19
 3455 018a 01       		.uleb128 0x1
 3456 018b 01       		.byte	0x1
 3457 018c 49       		.uleb128 0x49
ARM GAS  C:\Users\Lory\AppData\Local\Temp\ccNUpijZ.s 			page 98


 3458 018d 13       		.uleb128 0x13
 3459 018e 01       		.uleb128 0x1
 3460 018f 13       		.uleb128 0x13
 3461 0190 00       		.byte	0
 3462 0191 00       		.byte	0
 3463 0192 1A       		.uleb128 0x1a
 3464 0193 21       		.uleb128 0x21
 3465 0194 00       		.byte	0
 3466 0195 49       		.uleb128 0x49
 3467 0196 13       		.uleb128 0x13
 3468 0197 2F       		.uleb128 0x2f
 3469 0198 0B       		.uleb128 0xb
 3470 0199 00       		.byte	0
 3471 019a 00       		.byte	0
 3472 019b 1B       		.uleb128 0x1b
 3473 019c 34       		.uleb128 0x34
 3474 019d 00       		.byte	0
 3475 019e 03       		.uleb128 0x3
 3476 019f 0E       		.uleb128 0xe
 3477 01a0 3A       		.uleb128 0x3a
 3478 01a1 0B       		.uleb128 0xb
 3479 01a2 3B       		.uleb128 0x3b
 3480 01a3 0B       		.uleb128 0xb
 3481 01a4 49       		.uleb128 0x49
 3482 01a5 13       		.uleb128 0x13
 3483 01a6 02       		.uleb128 0x2
 3484 01a7 18       		.uleb128 0x18
 3485 01a8 00       		.byte	0
 3486 01a9 00       		.byte	0
 3487 01aa 1C       		.uleb128 0x1c
 3488 01ab 34       		.uleb128 0x34
 3489 01ac 00       		.byte	0
 3490 01ad 03       		.uleb128 0x3
 3491 01ae 0E       		.uleb128 0xe
 3492 01af 3A       		.uleb128 0x3a
 3493 01b0 0B       		.uleb128 0xb
 3494 01b1 3B       		.uleb128 0x3b
 3495 01b2 0B       		.uleb128 0xb
 3496 01b3 49       		.uleb128 0x49
 3497 01b4 13       		.uleb128 0x13
 3498 01b5 3F       		.uleb128 0x3f
 3499 01b6 19       		.uleb128 0x19
 3500 01b7 02       		.uleb128 0x2
 3501 01b8 18       		.uleb128 0x18
 3502 01b9 00       		.byte	0
 3503 01ba 00       		.byte	0
 3504 01bb 1D       		.uleb128 0x1d
 3505 01bc 2E       		.uleb128 0x2e
 3506 01bd 00       		.byte	0
 3507 01be 3F       		.uleb128 0x3f
 3508 01bf 19       		.uleb128 0x19
 3509 01c0 3C       		.uleb128 0x3c
 3510 01c1 19       		.uleb128 0x19
 3511 01c2 6E       		.uleb128 0x6e
 3512 01c3 0E       		.uleb128 0xe
 3513 01c4 03       		.uleb128 0x3
 3514 01c5 0E       		.uleb128 0xe
ARM GAS  C:\Users\Lory\AppData\Local\Temp\ccNUpijZ.s 			page 99


 3515 01c6 3A       		.uleb128 0x3a
 3516 01c7 0B       		.uleb128 0xb
 3517 01c8 3B       		.uleb128 0x3b
 3518 01c9 0B       		.uleb128 0xb
 3519 01ca 00       		.byte	0
 3520 01cb 00       		.byte	0
 3521 01cc 00       		.byte	0
 3522              		.section	.debug_loc,"",%progbits
 3523              	.Ldebug_loc0:
 3524              	.LLST0:
 3525 0000 00000000 		.4byte	.LVL0
 3526 0004 0C000000 		.4byte	.LVL1
 3527 0008 0100     		.2byte	0x1
 3528 000a 50       		.byte	0x50
 3529 000b 0C000000 		.4byte	.LVL1
 3530 000f AE000000 		.4byte	.LVL31
 3531 0013 0400     		.2byte	0x4
 3532 0015 F3       		.byte	0xf3
 3533 0016 01       		.uleb128 0x1
 3534 0017 50       		.byte	0x50
 3535 0018 9F       		.byte	0x9f
 3536 0019 AE000000 		.4byte	.LVL31
 3537 001d B0000000 		.4byte	.LVL32
 3538 0021 0100     		.2byte	0x1
 3539 0023 50       		.byte	0x50
 3540 0024 B0000000 		.4byte	.LVL32
 3541 0028 DC000000 		.4byte	.LFE21
 3542 002c 0400     		.2byte	0x4
 3543 002e F3       		.byte	0xf3
 3544 002f 01       		.uleb128 0x1
 3545 0030 50       		.byte	0x50
 3546 0031 9F       		.byte	0x9f
 3547 0032 00000000 		.4byte	0
 3548 0036 00000000 		.4byte	0
 3549              	.LLST1:
 3550 003a 00000000 		.4byte	.LVL0
 3551 003e 74000000 		.4byte	.LVL19
 3552 0042 0100     		.2byte	0x1
 3553 0044 51       		.byte	0x51
 3554 0045 74000000 		.4byte	.LVL19
 3555 0049 AE000000 		.4byte	.LVL31
 3556 004d 0400     		.2byte	0x4
 3557 004f F3       		.byte	0xf3
 3558 0050 01       		.uleb128 0x1
 3559 0051 51       		.byte	0x51
 3560 0052 9F       		.byte	0x9f
 3561 0053 AE000000 		.4byte	.LVL31
 3562 0057 B3000000 		.4byte	.LVL33-1
 3563 005b 0100     		.2byte	0x1
 3564 005d 51       		.byte	0x51
 3565 005e B3000000 		.4byte	.LVL33-1
 3566 0062 DC000000 		.4byte	.LFE21
 3567 0066 0400     		.2byte	0x4
 3568 0068 F3       		.byte	0xf3
 3569 0069 01       		.uleb128 0x1
 3570 006a 51       		.byte	0x51
 3571 006b 9F       		.byte	0x9f
ARM GAS  C:\Users\Lory\AppData\Local\Temp\ccNUpijZ.s 			page 100


 3572 006c 00000000 		.4byte	0
 3573 0070 00000000 		.4byte	0
 3574              	.LLST2:
 3575 0074 00000000 		.4byte	.LVL0
 3576 0078 7C000000 		.4byte	.LVL22
 3577 007c 0100     		.2byte	0x1
 3578 007e 52       		.byte	0x52
 3579 007f 7C000000 		.4byte	.LVL22
 3580 0083 AE000000 		.4byte	.LVL31
 3581 0087 0400     		.2byte	0x4
 3582 0089 F3       		.byte	0xf3
 3583 008a 01       		.uleb128 0x1
 3584 008b 52       		.byte	0x52
 3585 008c 9F       		.byte	0x9f
 3586 008d AE000000 		.4byte	.LVL31
 3587 0091 B3000000 		.4byte	.LVL33-1
 3588 0095 0100     		.2byte	0x1
 3589 0097 52       		.byte	0x52
 3590 0098 B3000000 		.4byte	.LVL33-1
 3591 009c DC000000 		.4byte	.LFE21
 3592 00a0 0400     		.2byte	0x4
 3593 00a2 F3       		.byte	0xf3
 3594 00a3 01       		.uleb128 0x1
 3595 00a4 52       		.byte	0x52
 3596 00a5 9F       		.byte	0x9f
 3597 00a6 00000000 		.4byte	0
 3598 00aa 00000000 		.4byte	0
 3599              	.LLST3:
 3600 00ae 00000000 		.4byte	.LVL0
 3601 00b2 94000000 		.4byte	.LVL27
 3602 00b6 0100     		.2byte	0x1
 3603 00b8 53       		.byte	0x53
 3604 00b9 94000000 		.4byte	.LVL27
 3605 00bd 98000000 		.4byte	.LVL28
 3606 00c1 0400     		.2byte	0x4
 3607 00c3 F3       		.byte	0xf3
 3608 00c4 01       		.uleb128 0x1
 3609 00c5 53       		.byte	0x53
 3610 00c6 9F       		.byte	0x9f
 3611 00c7 98000000 		.4byte	.LVL28
 3612 00cb 9A000000 		.4byte	.LVL29
 3613 00cf 0100     		.2byte	0x1
 3614 00d1 53       		.byte	0x53
 3615 00d2 9A000000 		.4byte	.LVL29
 3616 00d6 AE000000 		.4byte	.LVL31
 3617 00da 0400     		.2byte	0x4
 3618 00dc F3       		.byte	0xf3
 3619 00dd 01       		.uleb128 0x1
 3620 00de 53       		.byte	0x53
 3621 00df 9F       		.byte	0x9f
 3622 00e0 AE000000 		.4byte	.LVL31
 3623 00e4 B3000000 		.4byte	.LVL33-1
 3624 00e8 0100     		.2byte	0x1
 3625 00ea 53       		.byte	0x53
 3626 00eb B3000000 		.4byte	.LVL33-1
 3627 00ef DC000000 		.4byte	.LFE21
 3628 00f3 0400     		.2byte	0x4
ARM GAS  C:\Users\Lory\AppData\Local\Temp\ccNUpijZ.s 			page 101


 3629 00f5 F3       		.byte	0xf3
 3630 00f6 01       		.uleb128 0x1
 3631 00f7 53       		.byte	0x53
 3632 00f8 9F       		.byte	0x9f
 3633 00f9 00000000 		.4byte	0
 3634 00fd 00000000 		.4byte	0
 3635              	.LLST4:
 3636 0101 00000000 		.4byte	.LVL0
 3637 0105 AE000000 		.4byte	.LVL31
 3638 0109 0200     		.2byte	0x2
 3639 010b 91       		.byte	0x91
 3640 010c 00       		.sleb128 0
 3641 010d AE000000 		.4byte	.LVL31
 3642 0111 B6000000 		.4byte	.LVL34
 3643 0115 0200     		.2byte	0x2
 3644 0117 91       		.byte	0x91
 3645 0118 00       		.sleb128 0
 3646 0119 B6000000 		.4byte	.LVL34
 3647 011d DC000000 		.4byte	.LFE21
 3648 0121 0200     		.2byte	0x2
 3649 0123 7D       		.byte	0x7d
 3650 0124 00       		.sleb128 0
 3651 0125 00000000 		.4byte	0
 3652 0129 00000000 		.4byte	0
 3653              	.LLST5:
 3654 012d 28000000 		.4byte	.LVL2
 3655 0131 2A000000 		.4byte	.LVL3
 3656 0135 0100     		.2byte	0x1
 3657 0137 50       		.byte	0x50
 3658 0138 30000000 		.4byte	.LVL4
 3659 013c 32000000 		.4byte	.LVL5
 3660 0140 0100     		.2byte	0x1
 3661 0142 50       		.byte	0x50
 3662 0143 3C000000 		.4byte	.LVL6
 3663 0147 3E000000 		.4byte	.LVL7
 3664 014b 0100     		.2byte	0x1
 3665 014d 50       		.byte	0x50
 3666 014e 44000000 		.4byte	.LVL8
 3667 0152 46000000 		.4byte	.LVL9
 3668 0156 0100     		.2byte	0x1
 3669 0158 50       		.byte	0x50
 3670 0159 50000000 		.4byte	.LVL10
 3671 015d 52000000 		.4byte	.LVL11
 3672 0161 0100     		.2byte	0x1
 3673 0163 50       		.byte	0x50
 3674 0164 58000000 		.4byte	.LVL12
 3675 0168 5A000000 		.4byte	.LVL13
 3676 016c 0100     		.2byte	0x1
 3677 016e 50       		.byte	0x50
 3678 016f 64000000 		.4byte	.LVL14
 3679 0173 66000000 		.4byte	.LVL15
 3680 0177 0100     		.2byte	0x1
 3681 0179 50       		.byte	0x50
 3682 017a 6C000000 		.4byte	.LVL16
 3683 017e 6E000000 		.4byte	.LVL17
 3684 0182 0100     		.2byte	0x1
 3685 0184 50       		.byte	0x50
ARM GAS  C:\Users\Lory\AppData\Local\Temp\ccNUpijZ.s 			page 102


 3686 0185 70000000 		.4byte	.LVL18
 3687 0189 8E000000 		.4byte	.LVL26
 3688 018d 0100     		.2byte	0x1
 3689 018f 50       		.byte	0x50
 3690 0190 98000000 		.4byte	.LVL28
 3691 0194 A4000000 		.4byte	.LVL30
 3692 0198 0100     		.2byte	0x1
 3693 019a 50       		.byte	0x50
 3694 019b 00000000 		.4byte	0
 3695 019f 00000000 		.4byte	0
 3696              	.LLST6:
 3697 01a3 74000000 		.4byte	.LVL19
 3698 01a7 78000000 		.4byte	.LVL20
 3699 01ab 0100     		.2byte	0x1
 3700 01ad 51       		.byte	0x51
 3701 01ae 00000000 		.4byte	0
 3702 01b2 00000000 		.4byte	0
 3703              	.LLST7:
 3704 01b6 7C000000 		.4byte	.LVL22
 3705 01ba 84000000 		.4byte	.LVL23
 3706 01be 0100     		.2byte	0x1
 3707 01c0 52       		.byte	0x52
 3708 01c1 84000000 		.4byte	.LVL23
 3709 01c5 88000000 		.4byte	.LVL24
 3710 01c9 0100     		.2byte	0x1
 3711 01cb 51       		.byte	0x51
 3712 01cc 8A000000 		.4byte	.LVL25
 3713 01d0 AE000000 		.4byte	.LVL31
 3714 01d4 0100     		.2byte	0x1
 3715 01d6 52       		.byte	0x52
 3716 01d7 00000000 		.4byte	0
 3717 01db 00000000 		.4byte	0
 3718              	.LLST8:
 3719 01df 78000000 		.4byte	.LVL20
 3720 01e3 7A000000 		.4byte	.LVL21
 3721 01e7 0100     		.2byte	0x1
 3722 01e9 51       		.byte	0x51
 3723 01ea 00000000 		.4byte	0
 3724 01ee 00000000 		.4byte	0
 3725              	.LLST9:
 3726 01f2 00000000 		.4byte	.LVL35
 3727 01f6 07000000 		.4byte	.LVL36-1
 3728 01fa 0100     		.2byte	0x1
 3729 01fc 50       		.byte	0x50
 3730 01fd 07000000 		.4byte	.LVL36-1
 3731 0201 4C000000 		.4byte	.LFE22
 3732 0205 0400     		.2byte	0x4
 3733 0207 F3       		.byte	0xf3
 3734 0208 01       		.uleb128 0x1
 3735 0209 50       		.byte	0x50
 3736 020a 9F       		.byte	0x9f
 3737 020b 00000000 		.4byte	0
 3738 020f 00000000 		.4byte	0
 3739              	.LLST10:
 3740 0213 0A000000 		.4byte	.LVL37
 3741 0217 40000000 		.4byte	.LVL40
 3742 021b 0100     		.2byte	0x1
ARM GAS  C:\Users\Lory\AppData\Local\Temp\ccNUpijZ.s 			page 103


 3743 021d 56       		.byte	0x56
 3744 021e 00000000 		.4byte	0
 3745 0222 00000000 		.4byte	0
 3746              	.LLST11:
 3747 0226 00000000 		.4byte	.LVL41
 3748 022a 7E000000 		.4byte	.LVL42
 3749 022e 0100     		.2byte	0x1
 3750 0230 50       		.byte	0x50
 3751 0231 7E000000 		.4byte	.LVL42
 3752 0235 C4000000 		.4byte	.LVL48
 3753 0239 0400     		.2byte	0x4
 3754 023b F3       		.byte	0xf3
 3755 023c 01       		.uleb128 0x1
 3756 023d 50       		.byte	0x50
 3757 023e 9F       		.byte	0x9f
 3758 023f C4000000 		.4byte	.LVL48
 3759 0243 DC000000 		.4byte	.LFE19
 3760 0247 0100     		.2byte	0x1
 3761 0249 50       		.byte	0x50
 3762 024a 00000000 		.4byte	0
 3763 024e 00000000 		.4byte	0
 3764              	.LLST12:
 3765 0252 08000000 		.4byte	.LVL55
 3766 0256 B2000000 		.4byte	.LVL59
 3767 025a 0100     		.2byte	0x1
 3768 025c 56       		.byte	0x56
 3769 025d 00000000 		.4byte	0
 3770 0261 00000000 		.4byte	0
 3771              	.LLST13:
 3772 0265 08000000 		.4byte	.LVL63
 3773 0269 CE000000 		.4byte	.LVL66
 3774 026d 0100     		.2byte	0x1
 3775 026f 56       		.byte	0x56
 3776 0270 00000000 		.4byte	0
 3777 0274 00000000 		.4byte	0
 3778              	.LLST14:
 3779 0278 00000000 		.4byte	.LVL67
 3780 027c 0A000000 		.4byte	.LVL69
 3781 0280 0100     		.2byte	0x1
 3782 0282 50       		.byte	0x50
 3783 0283 0A000000 		.4byte	.LVL69
 3784 0287 18000000 		.4byte	.LFE4
 3785 028b 0400     		.2byte	0x4
 3786 028d F3       		.byte	0xf3
 3787 028e 01       		.uleb128 0x1
 3788 028f 50       		.byte	0x50
 3789 0290 9F       		.byte	0x9f
 3790 0291 00000000 		.4byte	0
 3791 0295 00000000 		.4byte	0
 3792              	.LLST15:
 3793 0299 08000000 		.4byte	.LVL68
 3794 029d 10000000 		.4byte	.LVL70
 3795 02a1 0100     		.2byte	0x1
 3796 02a3 53       		.byte	0x53
 3797 02a4 10000000 		.4byte	.LVL70
 3798 02a8 18000000 		.4byte	.LFE4
 3799 02ac 0100     		.2byte	0x1
ARM GAS  C:\Users\Lory\AppData\Local\Temp\ccNUpijZ.s 			page 104


 3800 02ae 50       		.byte	0x50
 3801 02af 00000000 		.4byte	0
 3802 02b3 00000000 		.4byte	0
 3803              	.LLST16:
 3804 02b7 00000000 		.4byte	.LVL71
 3805 02bb 0C000000 		.4byte	.LVL73
 3806 02bf 0100     		.2byte	0x1
 3807 02c1 50       		.byte	0x50
 3808 02c2 0C000000 		.4byte	.LVL73
 3809 02c6 18000000 		.4byte	.LFE5
 3810 02ca 0400     		.2byte	0x4
 3811 02cc F3       		.byte	0xf3
 3812 02cd 01       		.uleb128 0x1
 3813 02ce 50       		.byte	0x50
 3814 02cf 9F       		.byte	0x9f
 3815 02d0 00000000 		.4byte	0
 3816 02d4 00000000 		.4byte	0
 3817              	.LLST17:
 3818 02d8 08000000 		.4byte	.LVL72
 3819 02dc 0E000000 		.4byte	.LVL74
 3820 02e0 0100     		.2byte	0x1
 3821 02e2 53       		.byte	0x53
 3822 02e3 0E000000 		.4byte	.LVL74
 3823 02e7 18000000 		.4byte	.LFE5
 3824 02eb 0100     		.2byte	0x1
 3825 02ed 50       		.byte	0x50
 3826 02ee 00000000 		.4byte	0
 3827 02f2 00000000 		.4byte	0
 3828              	.LLST18:
 3829 02f6 00000000 		.4byte	.LVL75
 3830 02fa 10000000 		.4byte	.LVL77
 3831 02fe 0100     		.2byte	0x1
 3832 0300 50       		.byte	0x50
 3833 0301 10000000 		.4byte	.LVL77
 3834 0305 24000000 		.4byte	.LVL81
 3835 0309 0100     		.2byte	0x1
 3836 030b 54       		.byte	0x54
 3837 030c 24000000 		.4byte	.LVL81
 3838 0310 74000000 		.4byte	.LFE6
 3839 0314 0600     		.2byte	0x6
 3840 0316 F3       		.byte	0xf3
 3841 0317 03       		.uleb128 0x3
 3842 0318 F5       		.byte	0xf5
 3843 0319 00       		.uleb128 0
 3844 031a 25       		.uleb128 0x25
 3845 031b 9F       		.byte	0x9f
 3846 031c 00000000 		.4byte	0
 3847 0320 00000000 		.4byte	0
 3848              	.LLST19:
 3849 0324 0A000000 		.4byte	.LVL76
 3850 0328 13000000 		.4byte	.LVL78-1
 3851 032c 0A00     		.2byte	0xa
 3852 032e 73       		.byte	0x73
 3853 032f 00       		.sleb128 0
 3854 0330 32       		.byte	0x32
 3855 0331 24       		.byte	0x24
 3856 0332 03       		.byte	0x3
ARM GAS  C:\Users\Lory\AppData\Local\Temp\ccNUpijZ.s 			page 105


 3857 0333 00000000 		.4byte	.LANCHOR0
 3858 0337 22       		.byte	0x22
 3859 0338 44000000 		.4byte	.LVL86
 3860 033c 56000000 		.4byte	.LVL88
 3861 0340 0100     		.2byte	0x1
 3862 0342 50       		.byte	0x50
 3863 0343 56000000 		.4byte	.LVL88
 3864 0347 58000000 		.4byte	.LVL89
 3865 034b 0700     		.2byte	0x7
 3866 034d 73       		.byte	0x73
 3867 034e 00       		.sleb128 0
 3868 034f 32       		.byte	0x32
 3869 0350 24       		.byte	0x24
 3870 0351 72       		.byte	0x72
 3871 0352 00       		.sleb128 0
 3872 0353 22       		.byte	0x22
 3873 0354 00000000 		.4byte	0
 3874 0358 00000000 		.4byte	0
 3875              	.LLST20:
 3876 035c 54000000 		.4byte	.LVL87
 3877 0360 58000000 		.4byte	.LVL89
 3878 0364 0200     		.2byte	0x2
 3879 0366 30       		.byte	0x30
 3880 0367 9F       		.byte	0x9f
 3881 0368 5A000000 		.4byte	.LVL90
 3882 036c 74000000 		.4byte	.LFE6
 3883 0370 0100     		.2byte	0x1
 3884 0372 50       		.byte	0x50
 3885 0373 00000000 		.4byte	0
 3886 0377 00000000 		.4byte	0
 3887              	.LLST21:
 3888 037b 1C000000 		.4byte	.LVL79
 3889 037f 21000000 		.4byte	.LVL80-1
 3890 0383 0100     		.2byte	0x1
 3891 0385 50       		.byte	0x50
 3892 0386 24000000 		.4byte	.LVL81
 3893 038a 27000000 		.4byte	.LVL82-1
 3894 038e 0100     		.2byte	0x1
 3895 0390 50       		.byte	0x50
 3896 0391 27000000 		.4byte	.LVL82-1
 3897 0395 3E000000 		.4byte	.LVL84
 3898 0399 0100     		.2byte	0x1
 3899 039b 54       		.byte	0x54
 3900 039c 3E000000 		.4byte	.LVL84
 3901 03a0 41000000 		.4byte	.LVL85-1
 3902 03a4 0100     		.2byte	0x1
 3903 03a6 50       		.byte	0x50
 3904 03a7 58000000 		.4byte	.LVL89
 3905 03ab 5C000000 		.4byte	.LVL91
 3906 03af 0100     		.2byte	0x1
 3907 03b1 54       		.byte	0x54
 3908 03b2 00000000 		.4byte	0
 3909 03b6 00000000 		.4byte	0
 3910              	.LLST22:
 3911 03ba 06000000 		.4byte	.LVL92
 3912 03be 14000000 		.4byte	.LVL94
 3913 03c2 0100     		.2byte	0x1
ARM GAS  C:\Users\Lory\AppData\Local\Temp\ccNUpijZ.s 			page 106


 3914 03c4 53       		.byte	0x53
 3915 03c5 00000000 		.4byte	0
 3916 03c9 00000000 		.4byte	0
 3917              	.LLST23:
 3918 03cd 0C000000 		.4byte	.LVL93
 3919 03d1 16000000 		.4byte	.LVL95
 3920 03d5 0100     		.2byte	0x1
 3921 03d7 50       		.byte	0x50
 3922 03d8 18000000 		.4byte	.LVL96
 3923 03dc 24000000 		.4byte	.LFE7
 3924 03e0 0100     		.2byte	0x1
 3925 03e2 50       		.byte	0x50
 3926 03e3 00000000 		.4byte	0
 3927 03e7 00000000 		.4byte	0
 3928              	.LLST24:
 3929 03eb 00000000 		.4byte	.LVL97
 3930 03ef 24000000 		.4byte	.LVL101
 3931 03f3 0100     		.2byte	0x1
 3932 03f5 50       		.byte	0x50
 3933 03f6 24000000 		.4byte	.LVL101
 3934 03fa 30000000 		.4byte	.LFE10
 3935 03fe 0400     		.2byte	0x4
 3936 0400 F3       		.byte	0xf3
 3937 0401 01       		.uleb128 0x1
 3938 0402 50       		.byte	0x50
 3939 0403 9F       		.byte	0x9f
 3940 0404 00000000 		.4byte	0
 3941 0408 00000000 		.4byte	0
 3942              	.LLST25:
 3943 040c 10000000 		.4byte	.LVL98
 3944 0410 12000000 		.4byte	.LVL99
 3945 0414 0100     		.2byte	0x1
 3946 0416 53       		.byte	0x53
 3947 0417 1A000000 		.4byte	.LVL100
 3948 041b 30000000 		.4byte	.LFE10
 3949 041f 0100     		.2byte	0x1
 3950 0421 53       		.byte	0x53
 3951 0422 00000000 		.4byte	0
 3952 0426 00000000 		.4byte	0
 3953              	.LLST26:
 3954 042a 08000000 		.4byte	.LVL102
 3955 042e 14000000 		.4byte	.LVL104
 3956 0432 0100     		.2byte	0x1
 3957 0434 53       		.byte	0x53
 3958 0435 18000000 		.4byte	.LVL105
 3959 0439 1E000000 		.4byte	.LVL106
 3960 043d 0100     		.2byte	0x1
 3961 043f 53       		.byte	0x53
 3962 0440 00000000 		.4byte	0
 3963 0444 00000000 		.4byte	0
 3964              	.LLST27:
 3965 0448 12000000 		.4byte	.LVL109
 3966 044c 14000000 		.4byte	.LVL110
 3967 0450 0100     		.2byte	0x1
 3968 0452 50       		.byte	0x50
 3969 0453 18000000 		.4byte	.LVL111
 3970 0457 20000000 		.4byte	.LVL112
ARM GAS  C:\Users\Lory\AppData\Local\Temp\ccNUpijZ.s 			page 107


 3971 045b 0100     		.2byte	0x1
 3972 045d 52       		.byte	0x52
 3973 045e 20000000 		.4byte	.LVL112
 3974 0462 50000000 		.4byte	.LFE12
 3975 0466 0100     		.2byte	0x1
 3976 0468 50       		.byte	0x50
 3977 0469 00000000 		.4byte	0
 3978 046d 00000000 		.4byte	0
 3979              	.LLST28:
 3980 0471 08000000 		.4byte	.LVL107
 3981 0475 0E000000 		.4byte	.LVL108
 3982 0479 0100     		.2byte	0x1
 3983 047b 53       		.byte	0x53
 3984 047c 14000000 		.4byte	.LVL110
 3985 0480 26000000 		.4byte	.LVL113
 3986 0484 0100     		.2byte	0x1
 3987 0486 53       		.byte	0x53
 3988 0487 00000000 		.4byte	0
 3989 048b 00000000 		.4byte	0
 3990              	.LLST29:
 3991 048f 10000000 		.4byte	.LVL116
 3992 0493 1A000000 		.4byte	.LVL117
 3993 0497 0700     		.2byte	0x7
 3994 0499 70       		.byte	0x70
 3995 049a 00       		.sleb128 0
 3996 049b 0A       		.byte	0xa
 3997 049c FFFF     		.2byte	0xffff
 3998 049e 1A       		.byte	0x1a
 3999 049f 9F       		.byte	0x9f
 4000 04a0 1A000000 		.4byte	.LVL117
 4001 04a4 1C000000 		.4byte	.LVL118
 4002 04a8 0100     		.2byte	0x1
 4003 04aa 50       		.byte	0x50
 4004 04ab 24000000 		.4byte	.LVL120
 4005 04af 2C000000 		.4byte	.LVL121
 4006 04b3 0700     		.2byte	0x7
 4007 04b5 70       		.byte	0x70
 4008 04b6 00       		.sleb128 0
 4009 04b7 0A       		.byte	0xa
 4010 04b8 FFFF     		.2byte	0xffff
 4011 04ba 1A       		.byte	0x1a
 4012 04bb 9F       		.byte	0x9f
 4013 04bc 2C000000 		.4byte	.LVL121
 4014 04c0 34000000 		.4byte	.LVL122
 4015 04c4 0100     		.2byte	0x1
 4016 04c6 53       		.byte	0x53
 4017 04c7 34000000 		.4byte	.LVL122
 4018 04cb 36000000 		.4byte	.LVL123
 4019 04cf 0100     		.2byte	0x1
 4020 04d1 50       		.byte	0x50
 4021 04d2 3C000000 		.4byte	.LVL125
 4022 04d6 44000000 		.4byte	.LVL126
 4023 04da 0100     		.2byte	0x1
 4024 04dc 53       		.byte	0x53
 4025 04dd 44000000 		.4byte	.LVL126
 4026 04e1 6C000000 		.4byte	.LFE13
 4027 04e5 0100     		.2byte	0x1
ARM GAS  C:\Users\Lory\AppData\Local\Temp\ccNUpijZ.s 			page 108


 4028 04e7 50       		.byte	0x50
 4029 04e8 00000000 		.4byte	0
 4030 04ec 00000000 		.4byte	0
 4031              	.LLST30:
 4032 04f0 08000000 		.4byte	.LVL114
 4033 04f4 0E000000 		.4byte	.LVL115
 4034 04f8 0100     		.2byte	0x1
 4035 04fa 53       		.byte	0x53
 4036 04fb 1C000000 		.4byte	.LVL118
 4037 04ff 22000000 		.4byte	.LVL119
 4038 0503 0100     		.2byte	0x1
 4039 0505 53       		.byte	0x53
 4040 0506 36000000 		.4byte	.LVL123
 4041 050a 38000000 		.4byte	.LVL124
 4042 050e 0100     		.2byte	0x1
 4043 0510 53       		.byte	0x53
 4044 0511 00000000 		.4byte	0
 4045 0515 00000000 		.4byte	0
 4046              	.LLST31:
 4047 0519 00000000 		.4byte	.LVL129
 4048 051d 06000000 		.4byte	.LVL130
 4049 0521 0100     		.2byte	0x1
 4050 0523 50       		.byte	0x50
 4051 0524 06000000 		.4byte	.LVL130
 4052 0528 0E000000 		.4byte	.LVL131
 4053 052c 0100     		.2byte	0x1
 4054 052e 50       		.byte	0x50
 4055 052f 00000000 		.4byte	0
 4056 0533 00000000 		.4byte	0
 4057              	.LLST32:
 4058 0537 00000000 		.4byte	.LVL133
 4059 053b 06000000 		.4byte	.LVL134
 4060 053f 0100     		.2byte	0x1
 4061 0541 50       		.byte	0x50
 4062 0542 06000000 		.4byte	.LVL134
 4063 0546 08000000 		.4byte	.LVL135
 4064 054a 0600     		.2byte	0x6
 4065 054c 70       		.byte	0x70
 4066 054d 00       		.sleb128 0
 4067 054e 73       		.byte	0x73
 4068 054f 00       		.sleb128 0
 4069 0550 1C       		.byte	0x1c
 4070 0551 9F       		.byte	0x9f
 4071 0552 08000000 		.4byte	.LVL135
 4072 0556 0B000000 		.4byte	.LVL136-1
 4073 055a 0100     		.2byte	0x1
 4074 055c 50       		.byte	0x50
 4075 055d 00000000 		.4byte	0
 4076 0561 00000000 		.4byte	0
 4077              	.LLST33:
 4078 0565 00000000 		.4byte	.LVL139
 4079 0569 3E000000 		.4byte	.LVL145
 4080 056d 0100     		.2byte	0x1
 4081 056f 50       		.byte	0x50
 4082 0570 3E000000 		.4byte	.LVL145
 4083 0574 64000000 		.4byte	.LFE18
 4084 0578 0400     		.2byte	0x4
ARM GAS  C:\Users\Lory\AppData\Local\Temp\ccNUpijZ.s 			page 109


 4085 057a F3       		.byte	0xf3
 4086 057b 01       		.uleb128 0x1
 4087 057c 50       		.byte	0x50
 4088 057d 9F       		.byte	0x9f
 4089 057e 00000000 		.4byte	0
 4090 0582 00000000 		.4byte	0
 4091              	.LLST34:
 4092 0586 4E000000 		.4byte	.LVL147
 4093 058a 50000000 		.4byte	.LVL148
 4094 058e 0600     		.2byte	0x6
 4095 0590 70       		.byte	0x70
 4096 0591 00       		.sleb128 0
 4097 0592 73       		.byte	0x73
 4098 0593 00       		.sleb128 0
 4099 0594 1C       		.byte	0x1c
 4100 0595 9F       		.byte	0x9f
 4101 0596 50000000 		.4byte	.LVL148
 4102 059a 64000000 		.4byte	.LFE18
 4103 059e 0100     		.2byte	0x1
 4104 05a0 50       		.byte	0x50
 4105 05a1 00000000 		.4byte	0
 4106 05a5 00000000 		.4byte	0
 4107              	.LLST35:
 4108 05a9 32000000 		.4byte	.LVL143
 4109 05ad 4A000000 		.4byte	.LVL146
 4110 05b1 0100     		.2byte	0x1
 4111 05b3 53       		.byte	0x53
 4112 05b4 00000000 		.4byte	0
 4113 05b8 00000000 		.4byte	0
 4114              	.LLST36:
 4115 05bc 22000000 		.4byte	.LVL140
 4116 05c0 2C000000 		.4byte	.LVL141
 4117 05c4 0100     		.2byte	0x1
 4118 05c6 53       		.byte	0x53
 4119 05c7 2E000000 		.4byte	.LVL142
 4120 05cb 32000000 		.4byte	.LVL143
 4121 05cf 0100     		.2byte	0x1
 4122 05d1 53       		.byte	0x53
 4123 05d2 00000000 		.4byte	0
 4124 05d6 00000000 		.4byte	0
 4125              	.LLST37:
 4126 05da 00000000 		.4byte	.LVL149
 4127 05de 1D000000 		.4byte	.LVL150-1
 4128 05e2 0100     		.2byte	0x1
 4129 05e4 50       		.byte	0x50
 4130 05e5 1D000000 		.4byte	.LVL150-1
 4131 05e9 48000000 		.4byte	.LVL154
 4132 05ed 0400     		.2byte	0x4
 4133 05ef F3       		.byte	0xf3
 4134 05f0 01       		.uleb128 0x1
 4135 05f1 50       		.byte	0x50
 4136 05f2 9F       		.byte	0x9f
 4137 05f3 48000000 		.4byte	.LVL154
 4138 05f7 4A000000 		.4byte	.LVL155
 4139 05fb 0100     		.2byte	0x1
 4140 05fd 50       		.byte	0x50
 4141 05fe 4A000000 		.4byte	.LVL155
ARM GAS  C:\Users\Lory\AppData\Local\Temp\ccNUpijZ.s 			page 110


 4142 0602 60000000 		.4byte	.LFE20
 4143 0606 0400     		.2byte	0x4
 4144 0608 F3       		.byte	0xf3
 4145 0609 01       		.uleb128 0x1
 4146 060a 50       		.byte	0x50
 4147 060b 9F       		.byte	0x9f
 4148 060c 00000000 		.4byte	0
 4149 0610 00000000 		.4byte	0
 4150              	.LLST38:
 4151 0614 00000000 		.4byte	.LVL149
 4152 0618 1D000000 		.4byte	.LVL150-1
 4153 061c 0100     		.2byte	0x1
 4154 061e 51       		.byte	0x51
 4155 061f 1D000000 		.4byte	.LVL150-1
 4156 0623 48000000 		.4byte	.LVL154
 4157 0627 0400     		.2byte	0x4
 4158 0629 F3       		.byte	0xf3
 4159 062a 01       		.uleb128 0x1
 4160 062b 51       		.byte	0x51
 4161 062c 9F       		.byte	0x9f
 4162 062d 48000000 		.4byte	.LVL154
 4163 0631 4D000000 		.4byte	.LVL156-1
 4164 0635 0100     		.2byte	0x1
 4165 0637 51       		.byte	0x51
 4166 0638 4D000000 		.4byte	.LVL156-1
 4167 063c 60000000 		.4byte	.LFE20
 4168 0640 0400     		.2byte	0x4
 4169 0642 F3       		.byte	0xf3
 4170 0643 01       		.uleb128 0x1
 4171 0644 51       		.byte	0x51
 4172 0645 9F       		.byte	0x9f
 4173 0646 00000000 		.4byte	0
 4174 064a 00000000 		.4byte	0
 4175              	.LLST39:
 4176 064e 1C000000 		.4byte	.LVL160
 4177 0652 24000000 		.4byte	.LVL162
 4178 0656 0100     		.2byte	0x1
 4179 0658 54       		.byte	0x54
 4180 0659 00000000 		.4byte	0
 4181 065d 00000000 		.4byte	0
 4182              	.LLST40:
 4183 0661 1C000000 		.4byte	.LVL166
 4184 0665 24000000 		.4byte	.LVL168
 4185 0669 0100     		.2byte	0x1
 4186 066b 54       		.byte	0x54
 4187 066c 00000000 		.4byte	0
 4188 0670 00000000 		.4byte	0
 4189              	.LLST41:
 4190 0674 1C000000 		.4byte	.LVL172
 4191 0678 1F000000 		.4byte	.LVL173-1
 4192 067c 0100     		.2byte	0x1
 4193 067e 50       		.byte	0x50
 4194 067f 1F000000 		.4byte	.LVL173-1
 4195 0683 24000000 		.4byte	.LVL174
 4196 0687 0100     		.2byte	0x1
 4197 0689 54       		.byte	0x54
 4198 068a 24000000 		.4byte	.LVL174
ARM GAS  C:\Users\Lory\AppData\Local\Temp\ccNUpijZ.s 			page 111


 4199 068e 28000000 		.4byte	.LFE25
 4200 0692 0100     		.2byte	0x1
 4201 0694 50       		.byte	0x50
 4202 0695 00000000 		.4byte	0
 4203 0699 00000000 		.4byte	0
 4204              		.section	.debug_aranges,"",%progbits
 4205 0000 E4000000 		.4byte	0xe4
 4206 0004 0200     		.2byte	0x2
 4207 0006 00000000 		.4byte	.Ldebug_info0
 4208 000a 04       		.byte	0x4
 4209 000b 00       		.byte	0
 4210 000c 0000     		.2byte	0
 4211 000e 0000     		.2byte	0
 4212 0010 00000000 		.4byte	.LFB21
 4213 0014 DC000000 		.4byte	.LFE21-.LFB21
 4214 0018 00000000 		.4byte	.LFB22
 4215 001c 4C000000 		.4byte	.LFE22-.LFB22
 4216 0020 00000000 		.4byte	.LFB19
 4217 0024 DC000000 		.4byte	.LFE19-.LFB19
 4218 0028 00000000 		.4byte	.LFB0
 4219 002c C4000000 		.4byte	.LFE0-.LFB0
 4220 0030 00000000 		.4byte	.LFB1
 4221 0034 D8000000 		.4byte	.LFE1-.LFB1
 4222 0038 00000000 		.4byte	.LFB2
 4223 003c 28000000 		.4byte	.LFE2-.LFB2
 4224 0040 00000000 		.4byte	.LFB3
 4225 0044 E4000000 		.4byte	.LFE3-.LFB3
 4226 0048 00000000 		.4byte	.LFB4
 4227 004c 18000000 		.4byte	.LFE4-.LFB4
 4228 0050 00000000 		.4byte	.LFB5
 4229 0054 18000000 		.4byte	.LFE5-.LFB5
 4230 0058 00000000 		.4byte	.LFB6
 4231 005c 74000000 		.4byte	.LFE6-.LFB6
 4232 0060 00000000 		.4byte	.LFB7
 4233 0064 24000000 		.4byte	.LFE7-.LFB7
 4234 0068 00000000 		.4byte	.LFB8
 4235 006c 10000000 		.4byte	.LFE8-.LFB8
 4236 0070 00000000 		.4byte	.LFB9
 4237 0074 10000000 		.4byte	.LFE9-.LFB9
 4238 0078 00000000 		.4byte	.LFB10
 4239 007c 30000000 		.4byte	.LFE10-.LFB10
 4240 0080 00000000 		.4byte	.LFB11
 4241 0084 48000000 		.4byte	.LFE11-.LFB11
 4242 0088 00000000 		.4byte	.LFB12
 4243 008c 50000000 		.4byte	.LFE12-.LFB12
 4244 0090 00000000 		.4byte	.LFB13
 4245 0094 6C000000 		.4byte	.LFE13-.LFB13
 4246 0098 00000000 		.4byte	.LFB14
 4247 009c 0C000000 		.4byte	.LFE14-.LFB14
 4248 00a0 00000000 		.4byte	.LFB15
 4249 00a4 0C000000 		.4byte	.LFE15-.LFB15
 4250 00a8 00000000 		.4byte	.LFB16
 4251 00ac 24000000 		.4byte	.LFE16-.LFB16
 4252 00b0 00000000 		.4byte	.LFB17
 4253 00b4 28000000 		.4byte	.LFE17-.LFB17
 4254 00b8 00000000 		.4byte	.LFB18
 4255 00bc 64000000 		.4byte	.LFE18-.LFB18
ARM GAS  C:\Users\Lory\AppData\Local\Temp\ccNUpijZ.s 			page 112


 4256 00c0 00000000 		.4byte	.LFB20
 4257 00c4 60000000 		.4byte	.LFE20-.LFB20
 4258 00c8 00000000 		.4byte	.LFB23
 4259 00cc 28000000 		.4byte	.LFE23-.LFB23
 4260 00d0 00000000 		.4byte	.LFB24
 4261 00d4 28000000 		.4byte	.LFE24-.LFB24
 4262 00d8 00000000 		.4byte	.LFB25
 4263 00dc 28000000 		.4byte	.LFE25-.LFB25
 4264 00e0 00000000 		.4byte	0
 4265 00e4 00000000 		.4byte	0
 4266              		.section	.debug_ranges,"",%progbits
 4267              	.Ldebug_ranges0:
 4268 0000 00000000 		.4byte	.LFB21
 4269 0004 DC000000 		.4byte	.LFE21
 4270 0008 00000000 		.4byte	.LFB22
 4271 000c 4C000000 		.4byte	.LFE22
 4272 0010 00000000 		.4byte	.LFB19
 4273 0014 DC000000 		.4byte	.LFE19
 4274 0018 00000000 		.4byte	.LFB0
 4275 001c C4000000 		.4byte	.LFE0
 4276 0020 00000000 		.4byte	.LFB1
 4277 0024 D8000000 		.4byte	.LFE1
 4278 0028 00000000 		.4byte	.LFB2
 4279 002c 28000000 		.4byte	.LFE2
 4280 0030 00000000 		.4byte	.LFB3
 4281 0034 E4000000 		.4byte	.LFE3
 4282 0038 00000000 		.4byte	.LFB4
 4283 003c 18000000 		.4byte	.LFE4
 4284 0040 00000000 		.4byte	.LFB5
 4285 0044 18000000 		.4byte	.LFE5
 4286 0048 00000000 		.4byte	.LFB6
 4287 004c 74000000 		.4byte	.LFE6
 4288 0050 00000000 		.4byte	.LFB7
 4289 0054 24000000 		.4byte	.LFE7
 4290 0058 00000000 		.4byte	.LFB8
 4291 005c 10000000 		.4byte	.LFE8
 4292 0060 00000000 		.4byte	.LFB9
 4293 0064 10000000 		.4byte	.LFE9
 4294 0068 00000000 		.4byte	.LFB10
 4295 006c 30000000 		.4byte	.LFE10
 4296 0070 00000000 		.4byte	.LFB11
 4297 0074 48000000 		.4byte	.LFE11
 4298 0078 00000000 		.4byte	.LFB12
 4299 007c 50000000 		.4byte	.LFE12
 4300 0080 00000000 		.4byte	.LFB13
 4301 0084 6C000000 		.4byte	.LFE13
 4302 0088 00000000 		.4byte	.LFB14
 4303 008c 0C000000 		.4byte	.LFE14
 4304 0090 00000000 		.4byte	.LFB15
 4305 0094 0C000000 		.4byte	.LFE15
 4306 0098 00000000 		.4byte	.LFB16
 4307 009c 24000000 		.4byte	.LFE16
 4308 00a0 00000000 		.4byte	.LFB17
 4309 00a4 28000000 		.4byte	.LFE17
 4310 00a8 00000000 		.4byte	.LFB18
 4311 00ac 64000000 		.4byte	.LFE18
 4312 00b0 00000000 		.4byte	.LFB20
ARM GAS  C:\Users\Lory\AppData\Local\Temp\ccNUpijZ.s 			page 113


 4313 00b4 60000000 		.4byte	.LFE20
 4314 00b8 00000000 		.4byte	.LFB23
 4315 00bc 28000000 		.4byte	.LFE23
 4316 00c0 00000000 		.4byte	.LFB24
 4317 00c4 28000000 		.4byte	.LFE24
 4318 00c8 00000000 		.4byte	.LFB25
 4319 00cc 28000000 		.4byte	.LFE25
 4320 00d0 00000000 		.4byte	0
 4321 00d4 00000000 		.4byte	0
 4322              		.section	.debug_line,"",%progbits
 4323              	.Ldebug_line0:
 4324 0000 7B030000 		.section	.debug_str,"MS",%progbits,1
 4324      0200AA00 
 4324      00000201 
 4324      FB0E0D00 
 4324      01010101 
 4325              	.LASF11:
 4326 0000 75696E74 		.ascii	"uint16\000"
 4326      313600
 4327              	.LASF67:
 4328 0007 61646347 		.ascii	"adcGain\000"
 4328      61696E00 
 4329              	.LASF93:
 4330 000f 43794578 		.ascii	"CyExitCriticalSection\000"
 4330      69744372 
 4330      69746963 
 4330      616C5365 
 4330      6374696F 
 4331              	.LASF27:
 4332 0025 696E7075 		.ascii	"inputRange\000"
 4332      7452616E 
 4332      676500
 4333              	.LASF81:
 4334 0030 4144435F 		.ascii	"ADC_DELSIG_Read32\000"
 4334      44454C53 
 4334      49475F52 
 4334      65616433 
 4334      3200
 4335              	.LASF24:
 4336 0042 67636F72 		.ascii	"gcor\000"
 4336      00
 4337              	.LASF8:
 4338 0047 6C6F6E67 		.ascii	"long long unsigned int\000"
 4338      206C6F6E 
 4338      6720756E 
 4338      7369676E 
 4338      65642069 
 4339              	.LASF37:
 4340 005e 4144435F 		.ascii	"ADC_DELSIG_SetDSMRef0Reg\000"
 4340      44454C53 
 4340      49475F53 
 4340      65744453 
 4340      4D526566 
 4341              	.LASF29:
 4342 0077 69646561 		.ascii	"idealOddDecGain\000"
 4342      6C4F6464 
 4342      44656347 
ARM GAS  C:\Users\Lory\AppData\Local\Temp\ccNUpijZ.s 			page 114


 4342      61696E00 
 4343              	.LASF41:
 4344 0087 4144435F 		.ascii	"ADC_DELSIG_Init\000"
 4344      44454C53 
 4344      49475F49 
 4344      6E697400 
 4345              	.LASF7:
 4346 0097 6C6F6E67 		.ascii	"long long int\000"
 4346      206C6F6E 
 4346      6720696E 
 4346      7400
 4347              	.LASF1:
 4348 00a5 7369676E 		.ascii	"signed char\000"
 4348      65642063 
 4348      68617200 
 4349              	.LASF71:
 4350 00b1 4144435F 		.ascii	"ADC_DELSIG_CountsTo_Volts\000"
 4350      44454C53 
 4350      49475F43 
 4350      6F756E74 
 4350      73546F5F 
 4351              	.LASF45:
 4352 00cb 4144435F 		.ascii	"ADC_DELSIG_SetBufferGain\000"
 4352      44454C53 
 4352      49475F53 
 4352      65744275 
 4352      66666572 
 4353              	.LASF15:
 4354 00e4 696E7433 		.ascii	"int32\000"
 4354      3200
 4355              	.LASF94:
 4356 00ea 4144435F 		.ascii	"ADC_DELSIG_AMux_Select\000"
 4356      44454C53 
 4356      49475F41 
 4356      4D75785F 
 4356      53656C65 
 4357              	.LASF86:
 4358 0101 4144435F 		.ascii	"ADC_DELSIG_started\000"
 4358      44454C53 
 4358      49475F73 
 4358      74617274 
 4358      656400
 4359              	.LASF5:
 4360 0114 6C6F6E67 		.ascii	"long int\000"
 4360      20696E74 
 4360      00
 4361              	.LASF84:
 4362 011d 4144435F 		.ascii	"ADC_DELSIG_convDone\000"
 4362      44454C53 
 4362      49475F63 
 4362      6F6E7644 
 4362      6F6E6500 
 4363              	.LASF43:
 4364 0131 4144435F 		.ascii	"ADC_DELSIG_Start\000"
 4364      44454C53 
 4364      49475F53 
 4364      74617274 
ARM GAS  C:\Users\Lory\AppData\Local\Temp\ccNUpijZ.s 			page 115


 4364      00
 4365              	.LASF20:
 4366 0142 72656731 		.ascii	"reg16\000"
 4366      3600
 4367              	.LASF10:
 4368 0148 75696E74 		.ascii	"uint8\000"
 4368      3800
 4369              	.LASF92:
 4370 014e 43794465 		.ascii	"CyDelayUs\000"
 4370      6C617955 
 4370      7300
 4371              	.LASF17:
 4372 0158 646F7562 		.ascii	"double\000"
 4372      6C6500
 4373              	.LASF72:
 4374 015f 566F6C74 		.ascii	"Volts\000"
 4374      7300
 4375              	.LASF64:
 4376 0165 4144435F 		.ascii	"ADC_DELSIG_SetOffset\000"
 4376      44454C53 
 4376      49475F53 
 4376      65744F66 
 4376      66736574 
 4377              	.LASF12:
 4378 017a 75696E74 		.ascii	"uint32\000"
 4378      333200
 4379              	.LASF97:
 4380 0181 4379496E 		.ascii	"CyIntSetVector\000"
 4380      74536574 
 4380      56656374 
 4380      6F7200
 4381              	.LASF79:
 4382 0190 4144435F 		.ascii	"ADC_DELSIG_Read8\000"
 4382      44454C53 
 4382      49475F52 
 4382      65616438 
 4382      00
 4383              	.LASF38:
 4384 01a1 76616C75 		.ascii	"value\000"
 4384      6500
 4385              	.LASF59:
 4386 01a7 7265744D 		.ascii	"retMode\000"
 4386      6F646500 
 4387              	.LASF36:
 4388 01af 4144435F 		.ascii	"ADC_DELSIG_GainCompensation\000"
 4388      44454C53 
 4388      49475F47 
 4388      61696E43 
 4388      6F6D7065 
 4389              	.LASF9:
 4390 01cb 756E7369 		.ascii	"unsigned int\000"
 4390      676E6564 
 4390      20696E74 
 4390      00
 4391              	.LASF74:
 4392 01d8 75566F6C 		.ascii	"uVolts\000"
 4392      747300
ARM GAS  C:\Users\Lory\AppData\Local\Temp\ccNUpijZ.s 			page 116


 4393              	.LASF6:
 4394 01df 6C6F6E67 		.ascii	"long unsigned int\000"
 4394      20756E73 
 4394      69676E65 
 4394      6420696E 
 4394      7400
 4395              	.LASF85:
 4396 01f1 4144435F 		.ascii	"ADC_DELSIG_stopConversion\000"
 4396      44454C53 
 4396      49475F73 
 4396      746F7043 
 4396      6F6E7665 
 4397              	.LASF91:
 4398 020b 4379456E 		.ascii	"CyEnterCriticalSection\000"
 4398      74657243 
 4398      72697469 
 4398      63616C53 
 4398      65637469 
 4399              	.LASF66:
 4400 0222 4144435F 		.ascii	"ADC_DELSIG_SetGain\000"
 4400      44454C53 
 4400      49475F53 
 4400      65744761 
 4400      696E00
 4401              	.LASF4:
 4402 0235 73686F72 		.ascii	"short unsigned int\000"
 4402      7420756E 
 4402      7369676E 
 4402      65642069 
 4402      6E7400
 4403              	.LASF87:
 4404 0248 4144435F 		.ascii	"ADC_DELSIG_Config\000"
 4404      44454C53 
 4404      49475F43 
 4404      6F6E6669 
 4404      6700
 4405              	.LASF13:
 4406 025a 696E7438 		.ascii	"int8\000"
 4406      00
 4407              	.LASF34:
 4408 025f 67636F72 		.ascii	"gcorValue\000"
 4408      56616C75 
 4408      6500
 4409              	.LASF83:
 4410 0269 4144435F 		.ascii	"ADC_DELSIG_initVar\000"
 4410      44454C53 
 4410      49475F69 
 4410      6E697456 
 4410      617200
 4411              	.LASF88:
 4412 027c 4144435F 		.ascii	"ADC_DELSIG_Offset\000"
 4412      44454C53 
 4412      49475F4F 
 4412      66667365 
 4412      7400
 4413              	.LASF62:
 4414 028e 4144435F 		.ascii	"ADC_DELSIG_GetResult16\000"
ARM GAS  C:\Users\Lory\AppData\Local\Temp\ccNUpijZ.s 			page 117


 4414      44454C53 
 4414      49475F47 
 4414      65745265 
 4414      73756C74 
 4415              	.LASF70:
 4416 02a5 6D566F6C 		.ascii	"mVolts\000"
 4416      747300
 4417              	.LASF32:
 4418 02ac 666C6173 		.ascii	"flash\000"
 4418      6800
 4419              	.LASF21:
 4420 02b2 72656733 		.ascii	"reg32\000"
 4420      3200
 4421              	.LASF40:
 4422 02b8 4144435F 		.ascii	"ADC_DELSIG_InitConfig\000"
 4422      44454C53 
 4422      49475F49 
 4422      6E697443 
 4422      6F6E6669 
 4423              	.LASF60:
 4424 02ce 4144435F 		.ascii	"ADC_DELSIG_GetResult8\000"
 4424      44454C53 
 4424      49475F47 
 4424      65745265 
 4424      73756C74 
 4425              	.LASF16:
 4426 02e4 666C6F61 		.ascii	"float32\000"
 4426      74333200 
 4427              	.LASF23:
 4428 02ec 73697A65 		.ascii	"sizetype\000"
 4428      74797065 
 4428      00
 4429              	.LASF22:
 4430 02f5 6C6F6E67 		.ascii	"long double\000"
 4430      20646F75 
 4430      626C6500 
 4431              	.LASF73:
 4432 0301 4144435F 		.ascii	"ADC_DELSIG_CountsTo_uVolts\000"
 4432      44454C53 
 4432      49475F43 
 4432      6F756E74 
 4432      73546F5F 
 4433              	.LASF102:
 4434 031c 47656E65 		.ascii	"Generated_Source\\PSoC5\\ADC_DELSIG.c\000"
 4434      72617465 
 4434      645F536F 
 4434      75726365 
 4434      5C50536F 
 4435              	.LASF99:
 4436 0340 4144435F 		.ascii	"ADC_DELSIG_theACLK_SetModeRegister\000"
 4436      44454C53 
 4436      49475F74 
 4436      68654143 
 4436      4C4B5F53 
 4437              	.LASF49:
 4438 0363 636F6865 		.ascii	"coherency\000"
 4438      72656E63 
ARM GAS  C:\Users\Lory\AppData\Local\Temp\ccNUpijZ.s 			page 118


 4438      7900
 4439              	.LASF100:
 4440 036d 4379496E 		.ascii	"CyIntSetPriority\000"
 4440      74536574 
 4440      5072696F 
 4440      72697479 
 4440      00
 4441              	.LASF46:
 4442 037e 6761696E 		.ascii	"gain\000"
 4442      00
 4443              	.LASF0:
 4444 0383 666C6F61 		.ascii	"float\000"
 4444      7400
 4445              	.LASF82:
 4446 0389 4144435F 		.ascii	"ADC_DELSIG_gcor\000"
 4446      44454C53 
 4446      49475F67 
 4446      636F7200 
 4447              	.LASF57:
 4448 0399 4144435F 		.ascii	"ADC_DELSIG_StopConvert\000"
 4448      44454C53 
 4448      49475F53 
 4448      746F7043 
 4448      6F6E7665 
 4449              	.LASF19:
 4450 03b0 72656738 		.ascii	"reg8\000"
 4450      00
 4451              	.LASF28:
 4452 03b5 69646561 		.ascii	"idealDecGain\000"
 4452      6C446563 
 4452      4761696E 
 4452      00
 4453              	.LASF33:
 4454 03c2 6E6F726D 		.ascii	"normalised\000"
 4454      616C6973 
 4454      656400
 4455              	.LASF90:
 4456 03cd 43794861 		.ascii	"CyHalt\000"
 4456      6C7400
 4457              	.LASF68:
 4458 03d4 4144435F 		.ascii	"ADC_DELSIG_CountsTo_mVolts\000"
 4458      44454C53 
 4458      49475F43 
 4458      6F756E74 
 4458      73546F5F 
 4459              	.LASF2:
 4460 03ef 756E7369 		.ascii	"unsigned char\000"
 4460      676E6564 
 4460      20636861 
 4460      7200
 4461              	.LASF3:
 4462 03fd 73686F72 		.ascii	"short int\000"
 4462      7420696E 
 4462      7400
 4463              	.LASF53:
 4464 0407 4144435F 		.ascii	"ADC_DELSIG_SetGCOR\000"
 4464      44454C53 
ARM GAS  C:\Users\Lory\AppData\Local\Temp\ccNUpijZ.s 			page 119


 4464      49475F53 
 4464      65744743 
 4464      4F5200
 4465              	.LASF35:
 4466 041a 67636F72 		.ascii	"gcorTmp\000"
 4466      546D7000 
 4467              	.LASF54:
 4468 0422 4144435F 		.ascii	"ADC_DELSIG_ReadGCOR\000"
 4468      44454C53 
 4468      49475F52 
 4468      65616447 
 4468      434F5200 
 4469              	.LASF103:
 4470 0436 433A5C55 		.ascii	"C:\\Users\\Lory\\Desktop\\info_projects\\git_reposi"
 4470      73657273 
 4470      5C4C6F72 
 4470      795C4465 
 4470      736B746F 
 4471 0464 746F7269 		.ascii	"tories\\PSoC-Final-Project\\AY1920_II_HW_FINAL_CARZ"
 4471      65735C50 
 4471      536F432D 
 4471      46696E61 
 4471      6C2D5072 
 4472 0495 414E4947 		.ascii	"ANIGA_GUALNIERA\\AY1920_II_HW_FINAL_CARZANIGA_GUALN"
 4472      415F4755 
 4472      414C4E49 
 4472      4552415C 
 4472      41593139 
 4473 04c7 49455241 		.ascii	"IERA.cydsn\000"
 4473      2E637964 
 4473      736E00
 4474              	.LASF101:
 4475 04d2 474E5520 		.ascii	"GNU C11 5.4.1 20160609 (release) [ARM/embedded-5-br"
 4475      43313120 
 4475      352E342E 
 4475      31203230 
 4475      31363036 
 4476 0505 616E6368 		.ascii	"anch revision 237715] -mcpu=cortex-m3 -mthumb -g -O"
 4476      20726576 
 4476      6973696F 
 4476      6E203233 
 4476      37373135 
 4477 0538 67202D66 		.ascii	"g -ffunction-sections -ffat-lto-objects\000"
 4477      66756E63 
 4477      74696F6E 
 4477      2D736563 
 4477      74696F6E 
 4478              	.LASF63:
 4479 0560 4144435F 		.ascii	"ADC_DELSIG_GetResult32\000"
 4479      44454C53 
 4479      49475F47 
 4479      65745265 
 4479      73756C74 
 4480              	.LASF30:
 4481 0577 7265736F 		.ascii	"resolution\000"
 4481      6C757469 
 4481      6F6E00
ARM GAS  C:\Users\Lory\AppData\Local\Temp\ccNUpijZ.s 			page 120


 4482              	.LASF44:
 4483 0582 4144435F 		.ascii	"ADC_DELSIG_Stop\000"
 4483      44454C53 
 4483      49475F53 
 4483      746F7000 
 4484              	.LASF75:
 4485 0592 636F6566 		.ascii	"coefA\000"
 4485      4100
 4486              	.LASF76:
 4487 0598 636F6566 		.ascii	"coefB\000"
 4487      4200
 4488              	.LASF18:
 4489 059e 63686172 		.ascii	"char\000"
 4489      00
 4490              	.LASF55:
 4491 05a3 6756616C 		.ascii	"gValue\000"
 4491      756500
 4492              	.LASF31:
 4493 05aa 636F6E66 		.ascii	"config\000"
 4493      696700
 4494              	.LASF80:
 4495 05b1 4144435F 		.ascii	"ADC_DELSIG_Read16\000"
 4495      44454C53 
 4495      49475F52 
 4495      65616431 
 4495      3600
 4496              	.LASF25:
 4497 05c3 6776616C 		.ascii	"gval\000"
 4497      00
 4498              	.LASF78:
 4499 05c8 72657374 		.ascii	"restart\000"
 4499      61727400 
 4500              	.LASF52:
 4501 05d0 746D7056 		.ascii	"tmpValue\000"
 4501      616C7565 
 4501      00
 4502              	.LASF65:
 4503 05d9 6F666673 		.ascii	"offset\000"
 4503      657400
 4504              	.LASF26:
 4505 05e0 4144435F 		.ascii	"ADC_DELSIG_GCOR_STRUCT\000"
 4505      44454C53 
 4505      49475F47 
 4505      434F525F 
 4505      53545255 
 4506              	.LASF58:
 4507 05f7 4144435F 		.ascii	"ADC_DELSIG_IsEndConversion\000"
 4507      44454C53 
 4507      49475F49 
 4507      73456E64 
 4507      436F6E76 
 4508              	.LASF69:
 4509 0612 61646343 		.ascii	"adcCounts\000"
 4509      6F756E74 
 4509      7300
 4510              	.LASF42:
 4511 061c 4144435F 		.ascii	"ADC_DELSIG_Enable\000"
ARM GAS  C:\Users\Lory\AppData\Local\Temp\ccNUpijZ.s 			page 121


 4511      44454C53 
 4511      49475F45 
 4511      6E61626C 
 4511      6500
 4512              	.LASF39:
 4513 062e 656E6162 		.ascii	"enableInterrupts\000"
 4513      6C65496E 
 4513      74657272 
 4513      75707473 
 4513      00
 4514              	.LASF51:
 4515 063f 73746174 		.ascii	"status\000"
 4515      757300
 4516              	.LASF56:
 4517 0646 4144435F 		.ascii	"ADC_DELSIG_StartConvert\000"
 4517      44454C53 
 4517      49475F53 
 4517      74617274 
 4517      436F6E76 
 4518              	.LASF50:
 4519 065e 6761696E 		.ascii	"gainAdjust\000"
 4519      41646A75 
 4519      737400
 4520              	.LASF14:
 4521 0669 696E7431 		.ascii	"int16\000"
 4521      3600
 4522              	.LASF96:
 4523 066f 4144435F 		.ascii	"ADC_DELSIG_theACLK_SetDividerRegister\000"
 4523      44454C53 
 4523      49475F74 
 4523      68654143 
 4523      4C4B5F53 
 4524              	.LASF48:
 4525 0695 4144435F 		.ascii	"ADC_DELSIG_SetCoherency\000"
 4525      44454C53 
 4525      49475F53 
 4525      6574436F 
 4525      68657265 
 4526              	.LASF77:
 4527 06ad 4144435F 		.ascii	"ADC_DELSIG_SelectConfiguration\000"
 4527      44454C53 
 4527      49475F53 
 4527      656C6563 
 4527      74436F6E 
 4528              	.LASF47:
 4529 06cc 746D7052 		.ascii	"tmpReg\000"
 4529      656700
 4530              	.LASF89:
 4531 06d3 4144435F 		.ascii	"ADC_DELSIG_CountsPerVolt\000"
 4531      44454C53 
 4531      49475F43 
 4531      6F756E74 
 4531      73506572 
 4532              	.LASF95:
 4533 06ec 4144435F 		.ascii	"ADC_DELSIG_Ext_CP_Clk_SetDividerRegister\000"
 4533      44454C53 
 4533      49475F45 
ARM GAS  C:\Users\Lory\AppData\Local\Temp\ccNUpijZ.s 			page 122


 4533      78745F43 
 4533      505F436C 
 4534              	.LASF61:
 4535 0715 72657375 		.ascii	"result\000"
 4535      6C7400
 4536              	.LASF98:
 4537 071c 4144435F 		.ascii	"ADC_DELSIG_Ext_CP_Clk_SetModeRegister\000"
 4537      44454C53 
 4537      49475F45 
 4537      78745F43 
 4537      505F436C 
 4538              		.ident	"GCC: (GNU Tools for ARM Embedded Processors) 5.4.1 20160609 (release) [ARM/embedded-5-bran
