ARM GAS  C:\Users\Lory\AppData\Local\Temp\ccwbPfyy.s 			page 1


   1              		.syntax unified
   2              		.cpu cortex-m3
   3              		.fpu softvfp
   4              		.eabi_attribute 20, 1
   5              		.eabi_attribute 21, 1
   6              		.eabi_attribute 23, 3
   7              		.eabi_attribute 24, 1
   8              		.eabi_attribute 25, 1
   9              		.eabi_attribute 26, 1
  10              		.eabi_attribute 30, 1
  11              		.eabi_attribute 34, 1
  12              		.eabi_attribute 18, 4
  13              		.thumb
  14              		.syntax unified
  15              		.file	"InterruptRoutines.c"
  16              		.text
  17              	.Ltext0:
  18              		.cfi_sections	.debug_frame
  19              		.section	.text.CUSTOM_ISR_CONFIG,"ax",%progbits
  20              		.align	2
  21              		.global	CUSTOM_ISR_CONFIG
  22              		.thumb
  23              		.thumb_func
  24              		.type	CUSTOM_ISR_CONFIG, %function
  25              	CUSTOM_ISR_CONFIG:
  26              	.LFB64:
  27              		.file 1 "InterruptRoutines.c"
   1:InterruptRoutines.c **** /* ========================================
   2:InterruptRoutines.c ****  *
   3:InterruptRoutines.c ****  * This file contains ISR functions needed
   4:InterruptRoutines.c ****  * to link transitions between finite states 
   5:InterruptRoutines.c ****  * and hardware events.
   6:InterruptRoutines.c ****  *
   7:InterruptRoutines.c ****  * CUSTOM_ISR_CONFIG: Triggered with a long 
   8:InterruptRoutines.c ****  * press of 2 seconds of the on-board button, 
   9:InterruptRoutines.c ****  * it toggles the configuration mode state and
  10:InterruptRoutines.c ****  * save config flag inside EEPROM.
  11:InterruptRoutines.c ****  * (Priotity level: 5)
  12:InterruptRoutines.c ****  *
  13:InterruptRoutines.c ****  * CUSTOM_ISR_START: Triggered with a double
  14:InterruptRoutines.c ****  * click event (with time delta between clicks
  15:InterruptRoutines.c ****  * less than 1s), it toggles the start/stop
  16:InterruptRoutines.c ****  * state and save it inside the EEPROM.
  17:InterruptRoutines.c ****  * (Priority level: 6)
  18:InterruptRoutines.c ****  *
  19:InterruptRoutines.c ****  * ========================================
  20:InterruptRoutines.c **** */
  21:InterruptRoutines.c **** 
  22:InterruptRoutines.c **** /* Include project dependencies. */
  23:InterruptRoutines.c **** #include "InterruptRoutines.h"
  24:InterruptRoutines.c **** 
  25:InterruptRoutines.c **** /*
  26:InterruptRoutines.c ****  * ISR function that toggles configuration mode
  27:InterruptRoutines.c ****  * and save state inside EEPROM.
  28:InterruptRoutines.c ****  */
  29:InterruptRoutines.c **** CY_ISR(CUSTOM_ISR_CONFIG)
  30:InterruptRoutines.c **** {   
ARM GAS  C:\Users\Lory\AppData\Local\Temp\ccwbPfyy.s 			page 2


  28              		.loc 1 30 0
  29              		.cfi_startproc
  30              		@ args = 0, pretend = 0, frame = 0
  31              		@ frame_needed = 0, uses_anonymous_args = 0
  32 0000 10B5     		push	{r4, lr}
  33              		.cfi_def_cfa_offset 8
  34              		.cfi_offset 4, -8
  35              		.cfi_offset 14, -4
  31:InterruptRoutines.c ****     // Toggle configuration state
  32:InterruptRoutines.c ****     if (button_state != CONFIG_MODE)
  36              		.loc 1 32 0
  37 0002 144B     		ldr	r3, .L7
  38 0004 1B78     		ldrb	r3, [r3]	@ zero_extendqisi2
  39 0006 DBB2     		uxtb	r3, r3
  40 0008 022B     		cmp	r3, #2
  41 000a 0AD0     		beq	.L2
  33:InterruptRoutines.c ****     {
  34:InterruptRoutines.c ****         // Enter configuration mode
  35:InterruptRoutines.c ****         button_state = CONFIG_MODE;
  42              		.loc 1 35 0
  43 000c 0222     		movs	r2, #2
  44 000e 114B     		ldr	r3, .L7
  45 0010 1A70     		strb	r2, [r3]
  36:InterruptRoutines.c ****         
  37:InterruptRoutines.c ****         // Save config flag inside EEPROM
  38:InterruptRoutines.c ****         EEPROM_saveConfigFlag(1);
  46              		.loc 1 38 0
  47 0012 0120     		movs	r0, #1
  48 0014 FFF7FEFF 		bl	EEPROM_saveConfigFlag
  49              	.LVL0:
  39:InterruptRoutines.c ****         
  40:InterruptRoutines.c ****         // Blink on-board LED
  41:InterruptRoutines.c ****         LED_Notify_Config();
  50              		.loc 1 41 0
  51 0018 FFF7FEFF 		bl	LED_Notify_Config
  52              	.LVL1:
  42:InterruptRoutines.c ****         
  43:InterruptRoutines.c ****         // Enable ADC sampling 
  44:InterruptRoutines.c ****         ADC_DELSIG_StartConvert();
  53              		.loc 1 44 0
  54 001c FFF7FEFF 		bl	ADC_DELSIG_StartConvert
  55              	.LVL2:
  56 0020 10BD     		pop	{r4, pc}
  57              	.L2:
  45:InterruptRoutines.c ****     }
  46:InterruptRoutines.c ****     else
  47:InterruptRoutines.c ****     {
  48:InterruptRoutines.c ****         // Resume start/stop mode
  49:InterruptRoutines.c ****         button_state = EEPROM_retrieveStartStopState();
  58              		.loc 1 49 0
  59 0022 FFF7FEFF 		bl	EEPROM_retrieveStartStopState
  60              	.LVL3:
  61 0026 0B4C     		ldr	r4, .L7
  62 0028 2070     		strb	r0, [r4]
  50:InterruptRoutines.c ****         
  51:InterruptRoutines.c ****         // Reset config flag inside EEPROM
  52:InterruptRoutines.c ****         EEPROM_saveConfigFlag(0);
ARM GAS  C:\Users\Lory\AppData\Local\Temp\ccwbPfyy.s 			page 3


  63              		.loc 1 52 0
  64 002a 0020     		movs	r0, #0
  65 002c FFF7FEFF 		bl	EEPROM_saveConfigFlag
  66              	.LVL4:
  53:InterruptRoutines.c ****         
  54:InterruptRoutines.c ****         if (button_state == STOP_MODE)
  67              		.loc 1 54 0
  68 0030 2378     		ldrb	r3, [r4]	@ zero_extendqisi2
  69 0032 13F0FF0F 		tst	r3, #255
  70 0036 02D1     		bne	.L4
  55:InterruptRoutines.c ****         {
  56:InterruptRoutines.c ****             // Turn on-board LED off
  57:InterruptRoutines.c ****             LED_Notify_Stop();
  71              		.loc 1 57 0
  72 0038 FFF7FEFF 		bl	LED_Notify_Stop
  73              	.LVL5:
  74 003c 06E0     		b	.L5
  75              	.L4:
  58:InterruptRoutines.c ****         }
  59:InterruptRoutines.c ****         else if (button_state == START_MODE)
  76              		.loc 1 59 0
  77 003e 054B     		ldr	r3, .L7
  78 0040 1B78     		ldrb	r3, [r3]	@ zero_extendqisi2
  79 0042 DBB2     		uxtb	r3, r3
  80 0044 012B     		cmp	r3, #1
  81 0046 01D1     		bne	.L5
  60:InterruptRoutines.c ****         {
  61:InterruptRoutines.c ****             // Turn on-board LED on
  62:InterruptRoutines.c ****             LED_Notify_Start();
  82              		.loc 1 62 0
  83 0048 FFF7FEFF 		bl	LED_Notify_Start
  84              	.LVL6:
  85              	.L5:
  63:InterruptRoutines.c ****         }
  64:InterruptRoutines.c ****         
  65:InterruptRoutines.c ****         // Disable ADC sampling 
  66:InterruptRoutines.c ****         ADC_DELSIG_StartConvert();
  86              		.loc 1 66 0
  87 004c FFF7FEFF 		bl	ADC_DELSIG_StartConvert
  88              	.LVL7:
  89 0050 10BD     		pop	{r4, pc}
  90              	.L8:
  91 0052 00BF     		.align	2
  92              	.L7:
  93 0054 00000000 		.word	button_state
  94              		.cfi_endproc
  95              	.LFE64:
  96              		.size	CUSTOM_ISR_CONFIG, .-CUSTOM_ISR_CONFIG
  97              		.section	.text.CUSTOM_ISR_START,"ax",%progbits
  98              		.align	2
  99              		.global	CUSTOM_ISR_START
 100              		.thumb
 101              		.thumb_func
 102              		.type	CUSTOM_ISR_START, %function
 103              	CUSTOM_ISR_START:
 104              	.LFB65:
  67:InterruptRoutines.c ****     }
ARM GAS  C:\Users\Lory\AppData\Local\Temp\ccwbPfyy.s 			page 4


  68:InterruptRoutines.c **** }
  69:InterruptRoutines.c **** 
  70:InterruptRoutines.c **** /* 
  71:InterruptRoutines.c ****  * ISR function that implements start/stop functionality
  72:InterruptRoutines.c ****  * and save state inside EEPROM.
  73:InterruptRoutines.c ****  */
  74:InterruptRoutines.c **** CY_ISR(CUSTOM_ISR_START)
  75:InterruptRoutines.c **** {   
 105              		.loc 1 75 0
 106              		.cfi_startproc
 107              		@ args = 0, pretend = 0, frame = 0
 108              		@ frame_needed = 0, uses_anonymous_args = 0
 109 0000 08B5     		push	{r3, lr}
 110              		.cfi_def_cfa_offset 8
 111              		.cfi_offset 3, -8
 112              		.cfi_offset 14, -4
  76:InterruptRoutines.c ****     // Toggle start/stop state
  77:InterruptRoutines.c ****     if (button_state == START_MODE)
 113              		.loc 1 77 0
 114 0002 104B     		ldr	r3, .L13
 115 0004 1B78     		ldrb	r3, [r3]	@ zero_extendqisi2
 116 0006 DBB2     		uxtb	r3, r3
 117 0008 012B     		cmp	r3, #1
 118 000a 0AD1     		bne	.L10
  78:InterruptRoutines.c ****     {   
  79:InterruptRoutines.c ****         // Save stop bit inside EEPROM
  80:InterruptRoutines.c ****         EEPROM_saveStartStopState(0);
 119              		.loc 1 80 0
 120 000c 0020     		movs	r0, #0
 121 000e FFF7FEFF 		bl	EEPROM_saveStartStopState
 122              	.LVL8:
  81:InterruptRoutines.c ****         
  82:InterruptRoutines.c ****         // Turn RGB LED off
  83:InterruptRoutines.c ****         RGB_Stop();
 123              		.loc 1 83 0
 124 0012 FFF7FEFF 		bl	RGB_Stop
 125              	.LVL9:
  84:InterruptRoutines.c ****         
  85:InterruptRoutines.c ****         // Turn on-board LED off
  86:InterruptRoutines.c ****         LED_Notify_Stop();
 126              		.loc 1 86 0
 127 0016 FFF7FEFF 		bl	LED_Notify_Stop
 128              	.LVL10:
  87:InterruptRoutines.c ****                 
  88:InterruptRoutines.c ****         // Update button state
  89:InterruptRoutines.c ****         button_state = STOP_MODE;
 129              		.loc 1 89 0
 130 001a 0022     		movs	r2, #0
 131 001c 094B     		ldr	r3, .L13
 132 001e 1A70     		strb	r2, [r3]
 133 0020 08BD     		pop	{r3, pc}
 134              	.L10:
  90:InterruptRoutines.c ****     }
  91:InterruptRoutines.c ****     else if (button_state == STOP_MODE)
 135              		.loc 1 91 0
 136 0022 084B     		ldr	r3, .L13
 137 0024 1B78     		ldrb	r3, [r3]	@ zero_extendqisi2
ARM GAS  C:\Users\Lory\AppData\Local\Temp\ccwbPfyy.s 			page 5


 138 0026 13F0FF0F 		tst	r3, #255
 139 002a 09D1     		bne	.L9
  92:InterruptRoutines.c ****     {
  93:InterruptRoutines.c ****         // Save start bit inside EEPROM
  94:InterruptRoutines.c ****         EEPROM_saveStartStopState(1);
 140              		.loc 1 94 0
 141 002c 0120     		movs	r0, #1
 142 002e FFF7FEFF 		bl	EEPROM_saveStartStopState
 143              	.LVL11:
  95:InterruptRoutines.c ****         
  96:InterruptRoutines.c ****         // Turn RGB LED on
  97:InterruptRoutines.c ****         RGB_Start();
 144              		.loc 1 97 0
 145 0032 FFF7FEFF 		bl	RGB_Start
 146              	.LVL12:
  98:InterruptRoutines.c ****         
  99:InterruptRoutines.c ****         // Turn on-board LED on
 100:InterruptRoutines.c ****         LED_Notify_Start();
 147              		.loc 1 100 0
 148 0036 FFF7FEFF 		bl	LED_Notify_Start
 149              	.LVL13:
 101:InterruptRoutines.c ****                 
 102:InterruptRoutines.c ****         // Update button state
 103:InterruptRoutines.c ****         button_state = START_MODE;
 150              		.loc 1 103 0
 151 003a 0122     		movs	r2, #1
 152 003c 014B     		ldr	r3, .L13
 153 003e 1A70     		strb	r2, [r3]
 154              	.L9:
 155 0040 08BD     		pop	{r3, pc}
 156              	.L14:
 157 0042 00BF     		.align	2
 158              	.L13:
 159 0044 00000000 		.word	button_state
 160              		.cfi_endproc
 161              	.LFE65:
 162              		.size	CUSTOM_ISR_START, .-CUSTOM_ISR_START
 163              		.section	.text.CUSTOM_ISR_IMU,"ax",%progbits
 164              		.align	2
 165              		.global	CUSTOM_ISR_IMU
 166              		.thumb
 167              		.thumb_func
 168              		.type	CUSTOM_ISR_IMU, %function
 169              	CUSTOM_ISR_IMU:
 170              	.LFB66:
 104:InterruptRoutines.c ****     }
 105:InterruptRoutines.c **** }
 106:InterruptRoutines.c **** 
 107:InterruptRoutines.c **** /*
 108:InterruptRoutines.c ****  * ISR function that notify incoming external ISR from LIS3DH.
 109:InterruptRoutines.c ****  */
 110:InterruptRoutines.c **** CY_ISR(CUSTOM_ISR_IMU)
 111:InterruptRoutines.c **** {
 171              		.loc 1 111 0
 172              		.cfi_startproc
 173              		@ args = 0, pretend = 0, frame = 0
 174              		@ frame_needed = 0, uses_anonymous_args = 0
ARM GAS  C:\Users\Lory\AppData\Local\Temp\ccwbPfyy.s 			page 6


 175 0000 08B5     		push	{r3, lr}
 176              		.cfi_def_cfa_offset 8
 177              		.cfi_offset 3, -8
 178              		.cfi_offset 14, -4
 112:InterruptRoutines.c ****     // IMU interrupt data overrun event handler
 113:InterruptRoutines.c ****     if (IMU_ReadByte(LIS3DH_FIFO_SRC_REG) & LIS3DH_FIFO_SRC_REG_OVR_MASK)
 179              		.loc 1 113 0
 180 0002 2F20     		movs	r0, #47
 181 0004 FFF7FEFF 		bl	IMU_ReadByte
 182              	.LVL14:
 183 0008 10F0400F 		tst	r0, #64
 184 000c 02D0     		beq	.L16
 114:InterruptRoutines.c ****     {
 115:InterruptRoutines.c ****         IMU_data_ready_flag = 1;
 185              		.loc 1 115 0
 186 000e 0122     		movs	r2, #1
 187 0010 054B     		ldr	r3, .L19
 188 0012 1A70     		strb	r2, [r3]
 189              	.L16:
 116:InterruptRoutines.c ****     }
 117:InterruptRoutines.c ****     
 118:InterruptRoutines.c ****     // IMU interrupt over threshold event handler
 119:InterruptRoutines.c ****     if (IMU_ReadByte(LIS3DH_INT1_SRC) & LIS3DH_INT1_SRC_IA_MASK)
 190              		.loc 1 119 0
 191 0014 3120     		movs	r0, #49
 192 0016 FFF7FEFF 		bl	IMU_ReadByte
 193              	.LVL15:
 194 001a 10F0400F 		tst	r0, #64
 195 001e 02D0     		beq	.L15
 120:InterruptRoutines.c ****     {
 121:InterruptRoutines.c ****         IMU_over_threshold_flag = 1;
 196              		.loc 1 121 0
 197 0020 0122     		movs	r2, #1
 198 0022 024B     		ldr	r3, .L19+4
 199 0024 1A70     		strb	r2, [r3]
 200              	.L15:
 201 0026 08BD     		pop	{r3, pc}
 202              	.L20:
 203              		.align	2
 204              	.L19:
 205 0028 00000000 		.word	IMU_data_ready_flag
 206 002c 00000000 		.word	IMU_over_threshold_flag
 207              		.cfi_endproc
 208              	.LFE66:
 209              		.size	CUSTOM_ISR_IMU, .-CUSTOM_ISR_IMU
 210              		.comm	button_state,1,1
 211              		.comm	IMU_over_threshold_flag,1,1
 212              		.comm	IMU_data_ready_flag,1,1
 213              		.comm	RGB_DataBuffer,3,4
 214              		.comm	IMU_log_queue,288,4
 215              		.comm	IMU_DataBuffer,192,4
 216              		.text
 217              	.Letext0:
 218              		.file 2 "c:\\program files (x86)\\cypress\\psoc creator\\4.3\\psoc creator\\import\\gnu\\arm\\5.4.
 219              		.file 3 "c:\\program files (x86)\\cypress\\psoc creator\\4.3\\psoc creator\\import\\gnu\\arm\\5.4.
 220              		.file 4 "InterruptRoutines.h"
 221              		.file 5 "Generated_Source\\PSoC5/core_cm3.h"
ARM GAS  C:\Users\Lory\AppData\Local\Temp\ccwbPfyy.s 			page 7


 222              		.file 6 "LIS3DH.h"
 223              		.file 7 "RGB_Driver.h"
 224              		.file 8 "25LC256.h"
 225              		.file 9 "Notifications.h"
 226              		.file 10 "Generated_Source\\PSoC5/ADC_DELSIG.h"