ARM GAS  C:\Users\Lory\AppData\Local\Temp\cc3DhKor.s 			page 1


   1              		.syntax unified
   2              		.cpu cortex-m3
   3              		.fpu softvfp
   4              		.eabi_attribute 20, 1
   5              		.eabi_attribute 21, 1
   6              		.eabi_attribute 23, 3
   7              		.eabi_attribute 24, 1
   8              		.eabi_attribute 25, 1
   9              		.eabi_attribute 26, 1
  10              		.eabi_attribute 30, 1
  11              		.eabi_attribute 34, 1
  12              		.eabi_attribute 18, 4
  13              		.thumb
  14              		.syntax unified
  15              		.file	"LED_Driver.c"
  16              		.text
  17              	.Ltext0:
  18              		.cfi_sections	.debug_frame
  19              		.section	.text.RGB_Init,"ax",%progbits
  20              		.align	2
  21              		.global	RGB_Init
  22              		.thumb
  23              		.thumb_func
  24              		.type	RGB_Init, %function
  25              	RGB_Init:
  26              	.LFB64:
  27              		.file 1 "LED_Driver.c"
   1:LED_Driver.c  **** /* ========================================
   2:LED_Driver.c  ****  *
   3:LED_Driver.c  ****  * This file contains utility functions used
   4:LED_Driver.c  ****  * to drive the RGB LED based on IMU data.
   5:LED_Driver.c  ****  *
   6:LED_Driver.c  ****  * RGB_Driver: high level function that enable
   7:LED_Driver.c  ****  * LED driving based on IMU data coming from LIS3DH.
   8:LED_Driver.c  ****  *
   9:LED_Driver.c  ****  * PWM_Driver: set the PWM compare values 
  10:LED_Driver.c  ****  * to change the duty cycles of all LED channels.
  11:LED_Driver.c  ****  *
  12:LED_Driver.c  ****  * IMU_Data_Process: map raw IMU data to cover
  13:LED_Driver.c  ****  * the full range of the LED by taking the
  14:LED_Driver.c  ****  * absolute value of each axis, doubling it
  15:LED_Driver.c  ****  * and negate the RGB value to drive common
  16:LED_Driver.c  ****  * anode LED.
  17:LED_Driver.c  ****  *
  18:LED_Driver.c  ****  * Absolute_value: light weight abs function
  19:LED_Driver.c  ****  * that does not use conditional statements.
  20:LED_Driver.c  ****  *
  21:LED_Driver.c  ****  * ========================================
  22:LED_Driver.c  **** */
  23:LED_Driver.c  **** 
  24:LED_Driver.c  **** /* Project dependencies. */
  25:LED_Driver.c  **** #include "LED_Driver.h"
  26:LED_Driver.c  **** 
  27:LED_Driver.c  **** /*
  28:LED_Driver.c  ****  * Drive LED RGB by setting PWM duty cycles based
  29:LED_Driver.c  ****  * on xyz-axes IMU data so that:
  30:LED_Driver.c  ****  * -> X value drives RED channel
ARM GAS  C:\Users\Lory\AppData\Local\Temp\cc3DhKor.s 			page 2


  31:LED_Driver.c  ****  * -> Y value drives GREEN channel
  32:LED_Driver.c  ****  * -> Z value drives BLUE channel
  33:LED_Driver.c  ****  */
  34:LED_Driver.c  **** void RGB_Driver(uint8_t *dataPtr)
  35:LED_Driver.c  **** {
  36:LED_Driver.c  ****     // Process IMU data in place
  37:LED_Driver.c  ****     IMU_Data_Process(dataPtr);
  38:LED_Driver.c  ****     
  39:LED_Driver.c  ****     // Set PWM compare values
  40:LED_Driver.c  ****     PWM_Driver(dataPtr);
  41:LED_Driver.c  **** }
  42:LED_Driver.c  **** 
  43:LED_Driver.c  **** /*
  44:LED_Driver.c  ****  * Initialize pulse width modulators.
  45:LED_Driver.c  ****  */
  46:LED_Driver.c  **** void RGB_Init(void)
  47:LED_Driver.c  **** {
  28              		.loc 1 47 0
  29              		.cfi_startproc
  30              		@ args = 0, pretend = 0, frame = 0
  31              		@ frame_needed = 0, uses_anonymous_args = 0
  32 0000 08B5     		push	{r3, lr}
  33              		.cfi_def_cfa_offset 8
  34              		.cfi_offset 3, -8
  35              		.cfi_offset 14, -4
  48:LED_Driver.c  ****     // Enable red/green PWM
  49:LED_Driver.c  ****     PWM_RG_Start();
  36              		.loc 1 49 0
  37 0002 FFF7FEFF 		bl	PWM_RG_Start
  38              	.LVL0:
  50:LED_Driver.c  ****     
  51:LED_Driver.c  ****     // Enable blue PWM
  52:LED_Driver.c  ****     PWM_B_Start();
  39              		.loc 1 52 0
  40 0006 FFF7FEFF 		bl	PWM_B_Start
  41              	.LVL1:
  42 000a 08BD     		pop	{r3, pc}
  43              		.cfi_endproc
  44              	.LFE64:
  45              		.size	RGB_Init, .-RGB_Init
  46              		.section	.text.PWM_Driver,"ax",%progbits
  47              		.align	2
  48              		.global	PWM_Driver
  49              		.thumb
  50              		.thumb_func
  51              		.type	PWM_Driver, %function
  52              	PWM_Driver:
  53              	.LFB65:
  53:LED_Driver.c  **** }
  54:LED_Driver.c  **** 
  55:LED_Driver.c  **** /*
  56:LED_Driver.c  ****  * Write PWM_RG and PWM_B compare values.
  57:LED_Driver.c  ****  */
  58:LED_Driver.c  **** void PWM_Driver(uint8_t *dataPtr)
  59:LED_Driver.c  **** {
  54              		.loc 1 59 0
  55              		.cfi_startproc
ARM GAS  C:\Users\Lory\AppData\Local\Temp\cc3DhKor.s 			page 3


  56              		@ args = 0, pretend = 0, frame = 0
  57              		@ frame_needed = 0, uses_anonymous_args = 0
  58              	.LVL2:
  59 0000 10B5     		push	{r4, lr}
  60              		.cfi_def_cfa_offset 8
  61              		.cfi_offset 4, -8
  62              		.cfi_offset 14, -4
  63 0002 0446     		mov	r4, r0
  60:LED_Driver.c  ****     // Set red channel PWM compare value
  61:LED_Driver.c  ****     PWM_RG_WriteCompare1(dataPtr[0]);
  64              		.loc 1 61 0
  65 0004 0078     		ldrb	r0, [r0]	@ zero_extendqisi2
  66              	.LVL3:
  67 0006 FFF7FEFF 		bl	PWM_RG_WriteCompare1
  68              	.LVL4:
  62:LED_Driver.c  ****     
  63:LED_Driver.c  ****     // Set green channel PWM compare value
  64:LED_Driver.c  ****     PWM_RG_WriteCompare2(dataPtr[1]);
  69              		.loc 1 64 0
  70 000a 6078     		ldrb	r0, [r4, #1]	@ zero_extendqisi2
  71 000c FFF7FEFF 		bl	PWM_RG_WriteCompare2
  72              	.LVL5:
  65:LED_Driver.c  ****     
  66:LED_Driver.c  ****     //Set blue channel PWM compare value
  67:LED_Driver.c  ****     PWM_B_WriteCompare(dataPtr[2]);
  73              		.loc 1 67 0
  74 0010 A078     		ldrb	r0, [r4, #2]	@ zero_extendqisi2
  75 0012 FFF7FEFF 		bl	PWM_B_WriteCompare
  76              	.LVL6:
  77 0016 10BD     		pop	{r4, pc}
  78              		.cfi_endproc
  79              	.LFE65:
  80              		.size	PWM_Driver, .-PWM_Driver
  81              		.section	.text.Absolute_Value,"ax",%progbits
  82              		.align	2
  83              		.global	Absolute_Value
  84              		.thumb
  85              		.thumb_func
  86              		.type	Absolute_Value, %function
  87              	Absolute_Value:
  88              	.LFB67:
  68:LED_Driver.c  **** }
  69:LED_Driver.c  **** 
  70:LED_Driver.c  **** /*
  71:LED_Driver.c  ****  * Process IMU data in place to map full LED range.
  72:LED_Driver.c  ****  */
  73:LED_Driver.c  **** void IMU_Data_Process(uint8_t *dataPtr)
  74:LED_Driver.c  **** {    
  75:LED_Driver.c  ****     // For all 3 channels
  76:LED_Driver.c  ****     for (uint8_t i=0; i<3; i++)
  77:LED_Driver.c  ****     {   
  78:LED_Driver.c  ****         // Get absolute value and multiply by 2 to use full range
  79:LED_Driver.c  ****         uint16_t tmp = (int16_t)Absolute_Value(dataPtr[i])*2;
  80:LED_Driver.c  ****         
  81:LED_Driver.c  ****         // Avoid uint8_t variable overflow
  82:LED_Driver.c  ****         if (tmp > 255)
  83:LED_Driver.c  ****         {
ARM GAS  C:\Users\Lory\AppData\Local\Temp\cc3DhKor.s 			page 4


  84:LED_Driver.c  ****             tmp = 255;
  85:LED_Driver.c  ****         }
  86:LED_Driver.c  ****         
  87:LED_Driver.c  ****         // Get negated value to drive common anode LED
  88:LED_Driver.c  ****         dataPtr[i] = ~((uint8_t)tmp);
  89:LED_Driver.c  ****     }
  90:LED_Driver.c  **** }
  91:LED_Driver.c  **** 
  92:LED_Driver.c  **** /*
  93:LED_Driver.c  ****  * Get absolute value of int8_t variable without
  94:LED_Driver.c  ****  * conditional jumps.
  95:LED_Driver.c  ****  */
  96:LED_Driver.c  **** uint8_t Absolute_Value(uint8_t value)
  97:LED_Driver.c  **** {
  89              		.loc 1 97 0
  90              		.cfi_startproc
  91              		@ args = 0, pretend = 0, frame = 0
  92              		@ frame_needed = 0, uses_anonymous_args = 0
  93              		@ link register save eliminated.
  94              	.LVL7:
  98:LED_Driver.c  ****     // Get sign of val
  99:LED_Driver.c  ****     uint8_t mask = (value >> 7);
  95              		.loc 1 99 0
  96 0000 C309     		lsrs	r3, r0, #7
  97              	.LVL8:
 100:LED_Driver.c  ****     
 101:LED_Driver.c  ****     // XOR mask and subtract mask
 102:LED_Driver.c  ****     return (value ^ mask) - mask;
  98              		.loc 1 102 0
  99 0002 5840     		eors	r0, r0, r3
 100              	.LVL9:
 101 0004 C01A     		subs	r0, r0, r3
 103:LED_Driver.c  **** }
 102              		.loc 1 103 0
 103 0006 C0B2     		uxtb	r0, r0
 104 0008 7047     		bx	lr
 105              		.cfi_endproc
 106              	.LFE67:
 107              		.size	Absolute_Value, .-Absolute_Value
 108 000a 00BF     		.section	.text.IMU_Data_Process,"ax",%progbits
 109              		.align	2
 110              		.global	IMU_Data_Process
 111              		.thumb
 112              		.thumb_func
 113              		.type	IMU_Data_Process, %function
 114              	IMU_Data_Process:
 115              	.LFB66:
  74:LED_Driver.c  ****     // For all 3 channels
 116              		.loc 1 74 0
 117              		.cfi_startproc
 118              		@ args = 0, pretend = 0, frame = 0
 119              		@ frame_needed = 0, uses_anonymous_args = 0
 120              	.LVL10:
 121 0000 70B5     		push	{r4, r5, r6, lr}
 122              		.cfi_def_cfa_offset 16
 123              		.cfi_offset 4, -16
 124              		.cfi_offset 5, -12
ARM GAS  C:\Users\Lory\AppData\Local\Temp\cc3DhKor.s 			page 5


 125              		.cfi_offset 6, -8
 126              		.cfi_offset 14, -4
 127 0002 0546     		mov	r5, r0
 128              	.LVL11:
 129              	.LBB2:
  76:LED_Driver.c  ****     {   
 130              		.loc 1 76 0
 131 0004 0024     		movs	r4, #0
 132 0006 0DE0     		b	.L7
 133              	.LVL12:
 134              	.L9:
 135              	.LBB3:
  79:LED_Driver.c  ****         
 136              		.loc 1 79 0
 137 0008 2E19     		adds	r6, r5, r4
 138 000a 285D     		ldrb	r0, [r5, r4]	@ zero_extendqisi2
 139 000c FFF7FEFF 		bl	Absolute_Value
 140              	.LVL13:
 141 0010 4000     		lsls	r0, r0, #1
 142 0012 80B2     		uxth	r0, r0
 143              	.LVL14:
  82:LED_Driver.c  ****         {
 144              		.loc 1 82 0
 145 0014 FF28     		cmp	r0, #255
 146 0016 00D9     		bls	.L8
  84:LED_Driver.c  ****         }
 147              		.loc 1 84 0
 148 0018 FF20     		movs	r0, #255
 149              	.LVL15:
 150              	.L8:
  88:LED_Driver.c  ****     }
 151              		.loc 1 88 0 discriminator 2
 152 001a C0B2     		uxtb	r0, r0
 153              	.LVL16:
 154 001c C043     		mvns	r0, r0
 155 001e 3070     		strb	r0, [r6]
 156              	.LBE3:
  76:LED_Driver.c  ****     {   
 157              		.loc 1 76 0 discriminator 2
 158 0020 0134     		adds	r4, r4, #1
 159              	.LVL17:
 160 0022 E4B2     		uxtb	r4, r4
 161              	.LVL18:
 162              	.L7:
  76:LED_Driver.c  ****     {   
 163              		.loc 1 76 0 is_stmt 0 discriminator 1
 164 0024 022C     		cmp	r4, #2
 165 0026 EFD9     		bls	.L9
 166              	.LBE2:
  90:LED_Driver.c  **** 
 167              		.loc 1 90 0 is_stmt 1
 168 0028 70BD     		pop	{r4, r5, r6, pc}
 169              		.cfi_endproc
 170              	.LFE66:
 171              		.size	IMU_Data_Process, .-IMU_Data_Process
 172 002a 00BF     		.section	.text.RGB_Driver,"ax",%progbits
 173              		.align	2
ARM GAS  C:\Users\Lory\AppData\Local\Temp\cc3DhKor.s 			page 6


 174              		.global	RGB_Driver
 175              		.thumb
 176              		.thumb_func
 177              		.type	RGB_Driver, %function
 178              	RGB_Driver:
 179              	.LFB63:
  35:LED_Driver.c  ****     // Process IMU data in place
 180              		.loc 1 35 0
 181              		.cfi_startproc
 182              		@ args = 0, pretend = 0, frame = 0
 183              		@ frame_needed = 0, uses_anonymous_args = 0
 184              	.LVL19:
 185 0000 10B5     		push	{r4, lr}
 186              		.cfi_def_cfa_offset 8
 187              		.cfi_offset 4, -8
 188              		.cfi_offset 14, -4
 189 0002 0446     		mov	r4, r0
  37:LED_Driver.c  ****     
 190              		.loc 1 37 0
 191 0004 FFF7FEFF 		bl	IMU_Data_Process
 192              	.LVL20:
  40:LED_Driver.c  **** }
 193              		.loc 1 40 0
 194 0008 2046     		mov	r0, r4
 195 000a FFF7FEFF 		bl	PWM_Driver
 196              	.LVL21:
 197 000e 10BD     		pop	{r4, pc}
 198              		.cfi_endproc
 199              	.LFE63:
 200              		.size	RGB_Driver, .-RGB_Driver
 201              		.text
 202              	.Letext0:
 203              		.file 2 "c:\\program files (x86)\\cypress\\psoc creator\\4.3\\psoc creator\\import\\gnu\\arm\\5.4.
 204              		.file 3 "c:\\program files (x86)\\cypress\\psoc creator\\4.3\\psoc creator\\import\\gnu\\arm\\5.4.
 205              		.file 4 "Generated_Source\\PSoC5/PWM_RG.h"
 206              		.file 5 "Generated_Source\\PSoC5/PWM_B.h"
 207              		.file 6 "Generated_Source\\PSoC5/core_cm3.h"