ARM GAS  C:\Users\Lory\AppData\Local\Temp\cctIB4Ic.s 			page 1


   1              		.syntax unified
   2              		.cpu cortex-m3
   3              		.fpu softvfp
   4              		.eabi_attribute 20, 1
   5              		.eabi_attribute 21, 1
   6              		.eabi_attribute 23, 3
   7              		.eabi_attribute 24, 1
   8              		.eabi_attribute 25, 1
   9              		.eabi_attribute 26, 1
  10              		.eabi_attribute 30, 1
  11              		.eabi_attribute 34, 1
  12              		.eabi_attribute 18, 4
  13              		.thumb
  14              		.syntax unified
  15              		.file	"LIS3DH.c"
  16              		.text
  17              	.Ltext0:
  18              		.cfi_sections	.debug_frame
  19              		.section	.text.IMU_ReadByte,"ax",%progbits
  20              		.align	2
  21              		.global	IMU_ReadByte
  22              		.thumb
  23              		.thumb_func
  24              		.type	IMU_ReadByte, %function
  25              	IMU_ReadByte:
  26              	.LFB63:
  27              		.file 1 "LIS3DH.c"
   1:LIS3DH.c      **** /**
   2:LIS3DH.c      ****  * @file LIS3DH.c
   3:LIS3DH.c      ****  * @brief Functions required to interface with the SPI  LIS3DH ACCELEROMETER.
   4:LIS3DH.c      ****  * 
   5:LIS3DH.c      ****  * This c file contains the API functions to interface
   6:LIS3DH.c      ****  * with the SPI LIS3DH ACCELEROMETER.
   7:LIS3DH.c      ****  *
   8:LIS3DH.c      **** */
   9:LIS3DH.c      **** 
  10:LIS3DH.c      **** #include "LIS3DH.h"
  11:LIS3DH.c      **** 
  12:LIS3DH.c      **** uint8_t IMU_ReadByte(uint8_t address) 
  13:LIS3DH.c      **** {
  28              		.loc 1 13 0
  29              		.cfi_startproc
  30              		@ args = 0, pretend = 0, frame = 0
  31              		@ frame_needed = 0, uses_anonymous_args = 0
  32              	.LVL0:
  33 0000 08B5     		push	{r3, lr}
  34              		.cfi_def_cfa_offset 8
  35              		.cfi_offset 3, -8
  36              		.cfi_offset 14, -4
  37              	.LVL1:
  14:LIS3DH.c      ****     // LIS3DH bit set to read
  15:LIS3DH.c      ****     address |= LIS3DH_READ_BIT;
  16:LIS3DH.c      **** 	/* Prepare the TX data packet: instruction + address */
  17:LIS3DH.c      **** 	uint8_t dataRX = SPI_IMU_Interface_ReadByte(address) ;
  38              		.loc 1 17 0
  39 0002 40F08000 		orr	r0, r0, #128
  40              	.LVL2:
ARM GAS  C:\Users\Lory\AppData\Local\Temp\cctIB4Ic.s 			page 2


  41 0006 FFF7FEFF 		bl	SPI_IMU_Interface_ReadByte
  42              	.LVL3:
  18:LIS3DH.c      **** 	
  19:LIS3DH.c      **** 	return dataRX;
  20:LIS3DH.c      **** }
  43              		.loc 1 20 0
  44 000a 08BD     		pop	{r3, pc}
  45              		.cfi_endproc
  46              	.LFE63:
  47              		.size	IMU_ReadByte, .-IMU_ReadByte
  48              		.section	.text.IMU_Setup,"ax",%progbits
  49              		.align	2
  50              		.global	IMU_Setup
  51              		.thumb
  52              		.thumb_func
  53              		.type	IMU_Setup, %function
  54              	IMU_Setup:
  55              	.LFB65:
  21:LIS3DH.c      **** 
  22:LIS3DH.c      **** /* 
  23:LIS3DH.c      ****  * Setup IMU registers and enter in stop mode.
  24:LIS3DH.c      ****  */
  25:LIS3DH.c      **** void IMU_Init(void)
  26:LIS3DH.c      **** {
  27:LIS3DH.c      ****     // Reset all registers before setup
  28:LIS3DH.c      ****     IMU_Setup();
  29:LIS3DH.c      ****     
  30:LIS3DH.c      ****     // Disable IMU data acquisition and transmission
  31:LIS3DH.c      ****     IMU_Stop();
  32:LIS3DH.c      **** }
  33:LIS3DH.c      **** 
  34:LIS3DH.c      **** /*
  35:LIS3DH.c      ****  * Initialize all IMU control registers to ensure
  36:LIS3DH.c      ****  * correct fuctioning of application.
  37:LIS3DH.c      ****  */
  38:LIS3DH.c      **** void IMU_Setup(void)
  39:LIS3DH.c      **** {
  56              		.loc 1 39 0
  57              		.cfi_startproc
  58              		@ args = 0, pretend = 0, frame = 8
  59              		@ frame_needed = 0, uses_anonymous_args = 0
  60 0000 10B5     		push	{r4, lr}
  61              		.cfi_def_cfa_offset 8
  62              		.cfi_offset 4, -8
  63              		.cfi_offset 14, -4
  64 0002 82B0     		sub	sp, sp, #8
  65              		.cfi_def_cfa_offset 16
  40:LIS3DH.c      ****     // Nothing to RX
  41:LIS3DH.c      **** 	uint8_t temp = 0;
  66              		.loc 1 41 0
  67 0004 0024     		movs	r4, #0
  68 0006 8DF80740 		strb	r4, [sp, #7]
  42:LIS3DH.c      ****     uint8_t BUFFTX[2];
  43:LIS3DH.c      ****     
  44:LIS3DH.c      ****     // Setup control register 1
  45:LIS3DH.c      ****     BUFFTX[0] = LIS3DH_CTRL_REG1;
  69              		.loc 1 45 0
ARM GAS  C:\Users\Lory\AppData\Local\Temp\cctIB4Ic.s 			page 3


  70 000a 2023     		movs	r3, #32
  71 000c 8DF80430 		strb	r3, [sp, #4]
  46:LIS3DH.c      ****     BUFFTX[1] = LIS3DH_CTRL_REG1_STOP_XYZ;
  72              		.loc 1 46 0
  73 0010 6823     		movs	r3, #104
  74 0012 8DF80530 		strb	r3, [sp, #5]
  47:LIS3DH.c      **** 	SPI_IMU_Interface_Multi_RW(BUFFTX, 2, &temp, 0);
  75              		.loc 1 47 0
  76 0016 2346     		mov	r3, r4
  77 0018 0DF10702 		add	r2, sp, #7
  78 001c 0221     		movs	r1, #2
  79 001e 01A8     		add	r0, sp, #4
  80 0020 FFF7FEFF 		bl	SPI_IMU_Interface_Multi_RW
  81              	.LVL4:
  48:LIS3DH.c      ****     
  49:LIS3DH.c      ****     // Setup control register 3
  50:LIS3DH.c      ****     BUFFTX[0] = LIS3DH_CTRL_REG3;
  82              		.loc 1 50 0
  83 0024 2223     		movs	r3, #34
  84 0026 8DF80430 		strb	r3, [sp, #4]
  51:LIS3DH.c      ****     BUFFTX[1] = LIS3DH_CTRL_REG3_NULL;
  85              		.loc 1 51 0
  86 002a 8DF80540 		strb	r4, [sp, #5]
  52:LIS3DH.c      **** 	SPI_IMU_Interface_Multi_RW(BUFFTX, 2, &temp, 0);
  87              		.loc 1 52 0
  88 002e 2346     		mov	r3, r4
  89 0030 0DF10702 		add	r2, sp, #7
  90 0034 0221     		movs	r1, #2
  91 0036 01A8     		add	r0, sp, #4
  92 0038 FFF7FEFF 		bl	SPI_IMU_Interface_Multi_RW
  93              	.LVL5:
  53:LIS3DH.c      ****     
  54:LIS3DH.c      ****     // Setup control register 4
  55:LIS3DH.c      ****     BUFFTX[0] = LIS3DH_CTRL_REG4;
  94              		.loc 1 55 0
  95 003c 2323     		movs	r3, #35
  96 003e 8DF80430 		strb	r3, [sp, #4]
  56:LIS3DH.c      ****     BUFFTX[1] = LIS3DH_CTRL_REG4_BDU_ACTIVE;
  97              		.loc 1 56 0
  98 0042 8023     		movs	r3, #128
  99 0044 8DF80530 		strb	r3, [sp, #5]
  57:LIS3DH.c      **** 	SPI_IMU_Interface_Multi_RW(BUFFTX, 2, &temp, 0);
 100              		.loc 1 57 0
 101 0048 2346     		mov	r3, r4
 102 004a 0DF10702 		add	r2, sp, #7
 103 004e 0221     		movs	r1, #2
 104 0050 01A8     		add	r0, sp, #4
 105 0052 FFF7FEFF 		bl	SPI_IMU_Interface_Multi_RW
 106              	.LVL6:
  58:LIS3DH.c      ****     
  59:LIS3DH.c      ****     // Setup control register 5
  60:LIS3DH.c      ****     BUFFTX[0] = LIS3DH_CTRL_REG5;
 107              		.loc 1 60 0
 108 0056 2423     		movs	r3, #36
 109 0058 8DF80430 		strb	r3, [sp, #4]
  61:LIS3DH.c      ****     BUFFTX[1] = LIS3DH_CTRL_REG5_FIFO_ENABLE;
 110              		.loc 1 61 0
ARM GAS  C:\Users\Lory\AppData\Local\Temp\cctIB4Ic.s 			page 4


 111 005c 4023     		movs	r3, #64
 112 005e 8DF80530 		strb	r3, [sp, #5]
  62:LIS3DH.c      **** 	SPI_IMU_Interface_Multi_RW(BUFFTX, 2, &temp, 0);
 113              		.loc 1 62 0
 114 0062 2346     		mov	r3, r4
 115 0064 0DF10702 		add	r2, sp, #7
 116 0068 0221     		movs	r1, #2
 117 006a 01A8     		add	r0, sp, #4
 118 006c FFF7FEFF 		bl	SPI_IMU_Interface_Multi_RW
 119              	.LVL7:
  63:LIS3DH.c      ****     
  64:LIS3DH.c      ****     // Setup FIFO control register
  65:LIS3DH.c      ****     BUFFTX[0] = LIS3DH_FIFO_CTRL_REG;
 120              		.loc 1 65 0
 121 0070 2E23     		movs	r3, #46
 122 0072 8DF80430 		strb	r3, [sp, #4]
  66:LIS3DH.c      ****     BUFFTX[1] = LIS3DH_FIFO_CTRL_REG_BYPASS_MODE;
 123              		.loc 1 66 0
 124 0076 8DF80540 		strb	r4, [sp, #5]
  67:LIS3DH.c      **** 	SPI_IMU_Interface_Multi_RW(BUFFTX, 2, &temp, 0);
 125              		.loc 1 67 0
 126 007a 2346     		mov	r3, r4
 127 007c 0DF10702 		add	r2, sp, #7
 128 0080 0221     		movs	r1, #2
 129 0082 01A8     		add	r0, sp, #4
 130 0084 FFF7FEFF 		bl	SPI_IMU_Interface_Multi_RW
 131              	.LVL8:
  68:LIS3DH.c      ****     
  69:LIS3DH.c      ****     // Setup interrupt 1 configuration register
  70:LIS3DH.c      ****     BUFFTX[0] = LIS3DH_INT1_CFG;
 132              		.loc 1 70 0
 133 0088 3023     		movs	r3, #48
 134 008a 8DF80430 		strb	r3, [sp, #4]
  71:LIS3DH.c      ****     BUFFTX[1] = LIS3DH_ITN1_CFG_DISABLE_EVENTS;
 135              		.loc 1 71 0
 136 008e 8DF80540 		strb	r4, [sp, #5]
  72:LIS3DH.c      **** 	SPI_IMU_Interface_Multi_RW(BUFFTX, 2, &temp, 0);
 137              		.loc 1 72 0
 138 0092 2346     		mov	r3, r4
 139 0094 0DF10702 		add	r2, sp, #7
 140 0098 0221     		movs	r1, #2
 141 009a 01A8     		add	r0, sp, #4
 142 009c FFF7FEFF 		bl	SPI_IMU_Interface_Multi_RW
 143              	.LVL9:
  73:LIS3DH.c      **** }
 144              		.loc 1 73 0
 145 00a0 02B0     		add	sp, sp, #8
 146              		.cfi_def_cfa_offset 8
 147              		@ sp needed
 148 00a2 10BD     		pop	{r4, pc}
 149              		.cfi_endproc
 150              	.LFE65:
 151              		.size	IMU_Setup, .-IMU_Setup
 152              		.section	.text.IMU_Stop,"ax",%progbits
 153              		.align	2
 154              		.global	IMU_Stop
 155              		.thumb
ARM GAS  C:\Users\Lory\AppData\Local\Temp\cctIB4Ic.s 			page 5


 156              		.thumb_func
 157              		.type	IMU_Stop, %function
 158              	IMU_Stop:
 159              	.LFB66:
  74:LIS3DH.c      **** 
  75:LIS3DH.c      **** /*
  76:LIS3DH.c      ****  * Disable IMU data acquisition and related interrupts.
  77:LIS3DH.c      ****  */
  78:LIS3DH.c      **** void IMU_Stop(void)
  79:LIS3DH.c      **** {
 160              		.loc 1 79 0
 161              		.cfi_startproc
 162              		@ args = 0, pretend = 0, frame = 8
 163              		@ frame_needed = 0, uses_anonymous_args = 0
 164 0000 10B5     		push	{r4, lr}
 165              		.cfi_def_cfa_offset 8
 166              		.cfi_offset 4, -8
 167              		.cfi_offset 14, -4
 168 0002 82B0     		sub	sp, sp, #8
 169              		.cfi_def_cfa_offset 16
  80:LIS3DH.c      ****     // Nothing to RX
  81:LIS3DH.c      **** 	uint8_t temp = 0;
 170              		.loc 1 81 0
 171 0004 0024     		movs	r4, #0
 172 0006 8DF80740 		strb	r4, [sp, #7]
  82:LIS3DH.c      ****     uint8_t BUFFTX[2];
  83:LIS3DH.c      ****     
  84:LIS3DH.c      ****     // Setup control register 1
  85:LIS3DH.c      ****     BUFFTX[0] = LIS3DH_CTRL_REG1;
 173              		.loc 1 85 0
 174 000a 2023     		movs	r3, #32
 175 000c 8DF80430 		strb	r3, [sp, #4]
  86:LIS3DH.c      ****     BUFFTX[1] = LIS3DH_CTRL_REG1_STOP_XYZ;
 176              		.loc 1 86 0
 177 0010 6823     		movs	r3, #104
 178 0012 8DF80530 		strb	r3, [sp, #5]
  87:LIS3DH.c      **** 	SPI_IMU_Interface_Multi_RW(BUFFTX, 2, &temp, 0);
 179              		.loc 1 87 0
 180 0016 2346     		mov	r3, r4
 181 0018 0DF10702 		add	r2, sp, #7
 182 001c 0221     		movs	r1, #2
 183 001e 01A8     		add	r0, sp, #4
 184 0020 FFF7FEFF 		bl	SPI_IMU_Interface_Multi_RW
 185              	.LVL10:
  88:LIS3DH.c      ****     
  89:LIS3DH.c      ****     // Setup control register 3
  90:LIS3DH.c      ****     BUFFTX[0] = LIS3DH_CTRL_REG3;
 186              		.loc 1 90 0
 187 0024 2223     		movs	r3, #34
 188 0026 8DF80430 		strb	r3, [sp, #4]
  91:LIS3DH.c      ****     BUFFTX[1] = LIS3DH_CTRL_REG3_NULL;
 189              		.loc 1 91 0
 190 002a 8DF80540 		strb	r4, [sp, #5]
  92:LIS3DH.c      **** 	SPI_IMU_Interface_Multi_RW(BUFFTX, 2, &temp, 0);
 191              		.loc 1 92 0
 192 002e 2346     		mov	r3, r4
 193 0030 0DF10702 		add	r2, sp, #7
ARM GAS  C:\Users\Lory\AppData\Local\Temp\cctIB4Ic.s 			page 6


 194 0034 0221     		movs	r1, #2
 195 0036 01A8     		add	r0, sp, #4
 196 0038 FFF7FEFF 		bl	SPI_IMU_Interface_Multi_RW
 197              	.LVL11:
  93:LIS3DH.c      ****   
  94:LIS3DH.c      ****     // Setup control register 5
  95:LIS3DH.c      ****     BUFFTX[0] = LIS3DH_CTRL_REG5;
 198              		.loc 1 95 0
 199 003c 2423     		movs	r3, #36
 200 003e 8DF80430 		strb	r3, [sp, #4]
  96:LIS3DH.c      ****     BUFFTX[1] = LIS3DH_CTRL_REG5_FIFO_DISABLE;
 201              		.loc 1 96 0
 202 0042 8DF80540 		strb	r4, [sp, #5]
  97:LIS3DH.c      **** 	SPI_IMU_Interface_Multi_RW(BUFFTX, 2, &temp, 0);
 203              		.loc 1 97 0
 204 0046 2346     		mov	r3, r4
 205 0048 0DF10702 		add	r2, sp, #7
 206 004c 0221     		movs	r1, #2
 207 004e 01A8     		add	r0, sp, #4
 208 0050 FFF7FEFF 		bl	SPI_IMU_Interface_Multi_RW
 209              	.LVL12:
  98:LIS3DH.c      ****     
  99:LIS3DH.c      ****     // Setup FIFO control register
 100:LIS3DH.c      ****     BUFFTX[0] = LIS3DH_FIFO_CTRL_REG;
 210              		.loc 1 100 0
 211 0054 2E23     		movs	r3, #46
 212 0056 8DF80430 		strb	r3, [sp, #4]
 101:LIS3DH.c      ****     BUFFTX[1] = LIS3DH_FIFO_CTRL_REG_BYPASS_MODE;
 213              		.loc 1 101 0
 214 005a 8DF80540 		strb	r4, [sp, #5]
 102:LIS3DH.c      **** 	SPI_IMU_Interface_Multi_RW(BUFFTX, 2, &temp, 0);
 215              		.loc 1 102 0
 216 005e 2346     		mov	r3, r4
 217 0060 0DF10702 		add	r2, sp, #7
 218 0064 0221     		movs	r1, #2
 219 0066 01A8     		add	r0, sp, #4
 220 0068 FFF7FEFF 		bl	SPI_IMU_Interface_Multi_RW
 221              	.LVL13:
 103:LIS3DH.c      ****     
 104:LIS3DH.c      ****     // Setup interrupt 1 configuration register
 105:LIS3DH.c      ****     BUFFTX[0] = LIS3DH_INT1_CFG;
 222              		.loc 1 105 0
 223 006c 3023     		movs	r3, #48
 224 006e 8DF80430 		strb	r3, [sp, #4]
 106:LIS3DH.c      ****     BUFFTX[1] = LIS3DH_ITN1_CFG_DISABLE_EVENTS;
 225              		.loc 1 106 0
 226 0072 8DF80540 		strb	r4, [sp, #5]
 107:LIS3DH.c      **** 	SPI_IMU_Interface_Multi_RW(BUFFTX, 2, &temp, 0);
 227              		.loc 1 107 0
 228 0076 2346     		mov	r3, r4
 229 0078 0DF10702 		add	r2, sp, #7
 230 007c 0221     		movs	r1, #2
 231 007e 01A8     		add	r0, sp, #4
 232 0080 FFF7FEFF 		bl	SPI_IMU_Interface_Multi_RW
 233              	.LVL14:
 108:LIS3DH.c      **** }
 234              		.loc 1 108 0
ARM GAS  C:\Users\Lory\AppData\Local\Temp\cctIB4Ic.s 			page 7


 235 0084 02B0     		add	sp, sp, #8
 236              		.cfi_def_cfa_offset 8
 237              		@ sp needed
 238 0086 10BD     		pop	{r4, pc}
 239              		.cfi_endproc
 240              	.LFE66:
 241              		.size	IMU_Stop, .-IMU_Stop
 242              		.section	.text.IMU_Init,"ax",%progbits
 243              		.align	2
 244              		.global	IMU_Init
 245              		.thumb
 246              		.thumb_func
 247              		.type	IMU_Init, %function
 248              	IMU_Init:
 249              	.LFB64:
  26:LIS3DH.c      ****     // Reset all registers before setup
 250              		.loc 1 26 0
 251              		.cfi_startproc
 252              		@ args = 0, pretend = 0, frame = 0
 253              		@ frame_needed = 0, uses_anonymous_args = 0
 254 0000 08B5     		push	{r3, lr}
 255              		.cfi_def_cfa_offset 8
 256              		.cfi_offset 3, -8
 257              		.cfi_offset 14, -4
  28:LIS3DH.c      ****     
 258              		.loc 1 28 0
 259 0002 FFF7FEFF 		bl	IMU_Setup
 260              	.LVL15:
  31:LIS3DH.c      **** }
 261              		.loc 1 31 0
 262 0006 FFF7FEFF 		bl	IMU_Stop
 263              	.LVL16:
 264 000a 08BD     		pop	{r3, pc}
 265              		.cfi_endproc
 266              	.LFE64:
 267              		.size	IMU_Init, .-IMU_Init
 268              		.section	.text.IMU_Start,"ax",%progbits
 269              		.align	2
 270              		.global	IMU_Start
 271              		.thumb
 272              		.thumb_func
 273              		.type	IMU_Start, %function
 274              	IMU_Start:
 275              	.LFB67:
 109:LIS3DH.c      **** 
 110:LIS3DH.c      **** /*
 111:LIS3DH.c      ****  * Disable IMU data acquisition and related interrupts.
 112:LIS3DH.c      ****  */
 113:LIS3DH.c      **** void IMU_Start(void)
 114:LIS3DH.c      **** {
 276              		.loc 1 114 0
 277              		.cfi_startproc
 278              		@ args = 0, pretend = 0, frame = 8
 279              		@ frame_needed = 0, uses_anonymous_args = 0
 280 0000 30B5     		push	{r4, r5, lr}
 281              		.cfi_def_cfa_offset 12
 282              		.cfi_offset 4, -12
ARM GAS  C:\Users\Lory\AppData\Local\Temp\cctIB4Ic.s 			page 8


 283              		.cfi_offset 5, -8
 284              		.cfi_offset 14, -4
 285 0002 83B0     		sub	sp, sp, #12
 286              		.cfi_def_cfa_offset 24
 115:LIS3DH.c      ****     // Nothing to RX
 116:LIS3DH.c      **** 	uint8_t temp = 0;
 287              		.loc 1 116 0
 288 0004 0024     		movs	r4, #0
 289 0006 8DF80740 		strb	r4, [sp, #7]
 117:LIS3DH.c      ****     uint8_t BUFFTX[2];
 118:LIS3DH.c      ****     
 119:LIS3DH.c      ****     // Setup control register 1
 120:LIS3DH.c      ****     BUFFTX[0] = LIS3DH_CTRL_REG1;
 290              		.loc 1 120 0
 291 000a 2023     		movs	r3, #32
 292 000c 8DF80430 		strb	r3, [sp, #4]
 121:LIS3DH.c      ****     BUFFTX[1] = LIS3DH_CTRL_REG1_START_XYZ;
 293              		.loc 1 121 0
 294 0010 6F23     		movs	r3, #111
 295 0012 8DF80530 		strb	r3, [sp, #5]
 122:LIS3DH.c      **** 	SPI_IMU_Interface_Multi_RW(BUFFTX, 2, &temp, 0);
 296              		.loc 1 122 0
 297 0016 2346     		mov	r3, r4
 298 0018 0DF10702 		add	r2, sp, #7
 299 001c 0221     		movs	r1, #2
 300 001e 01A8     		add	r0, sp, #4
 301 0020 FFF7FEFF 		bl	SPI_IMU_Interface_Multi_RW
 302              	.LVL17:
 123:LIS3DH.c      ****     
 124:LIS3DH.c      ****     // Setup control register 3
 125:LIS3DH.c      ****     BUFFTX[0] = LIS3DH_CTRL_REG3;
 303              		.loc 1 125 0
 304 0024 2223     		movs	r3, #34
 305 0026 8DF80430 		strb	r3, [sp, #4]
 126:LIS3DH.c      ****     BUFFTX[1] = LIS3DH_CTRL_REG3_I1_IA1_OVERRUN;
 306              		.loc 1 126 0
 307 002a 4223     		movs	r3, #66
 308 002c 8DF80530 		strb	r3, [sp, #5]
 127:LIS3DH.c      **** 	SPI_IMU_Interface_Multi_RW(BUFFTX, 2, &temp, 0);
 309              		.loc 1 127 0
 310 0030 2346     		mov	r3, r4
 311 0032 0DF10702 		add	r2, sp, #7
 312 0036 0221     		movs	r1, #2
 313 0038 01A8     		add	r0, sp, #4
 314 003a FFF7FEFF 		bl	SPI_IMU_Interface_Multi_RW
 315              	.LVL18:
 128:LIS3DH.c      ****   
 129:LIS3DH.c      ****     // Setup control register 5
 130:LIS3DH.c      ****     BUFFTX[0] = LIS3DH_CTRL_REG5;
 316              		.loc 1 130 0
 317 003e 2423     		movs	r3, #36
 318 0040 8DF80430 		strb	r3, [sp, #4]
 131:LIS3DH.c      ****     BUFFTX[1] = LIS3DH_CTRL_REG5_FIFO_ENABLE;
 319              		.loc 1 131 0
 320 0044 4025     		movs	r5, #64
 321 0046 8DF80550 		strb	r5, [sp, #5]
 132:LIS3DH.c      **** 	SPI_IMU_Interface_Multi_RW(BUFFTX, 2, &temp, 0);
ARM GAS  C:\Users\Lory\AppData\Local\Temp\cctIB4Ic.s 			page 9


 322              		.loc 1 132 0
 323 004a 2346     		mov	r3, r4
 324 004c 0DF10702 		add	r2, sp, #7
 325 0050 0221     		movs	r1, #2
 326 0052 01A8     		add	r0, sp, #4
 327 0054 FFF7FEFF 		bl	SPI_IMU_Interface_Multi_RW
 328              	.LVL19:
 133:LIS3DH.c      ****     
 134:LIS3DH.c      ****     // Setup FIFO control register
 135:LIS3DH.c      ****     BUFFTX[0] = LIS3DH_FIFO_CTRL_REG;
 329              		.loc 1 135 0
 330 0058 2E23     		movs	r3, #46
 331 005a 8DF80430 		strb	r3, [sp, #4]
 136:LIS3DH.c      ****     BUFFTX[1] = LIS3DH_FIFO_CTRL_REG_FIFO_MODE;
 332              		.loc 1 136 0
 333 005e 8DF80550 		strb	r5, [sp, #5]
 137:LIS3DH.c      **** 	SPI_IMU_Interface_Multi_RW(BUFFTX, 2, &temp, 0);
 334              		.loc 1 137 0
 335 0062 2346     		mov	r3, r4
 336 0064 0DF10702 		add	r2, sp, #7
 337 0068 0221     		movs	r1, #2
 338 006a 01A8     		add	r0, sp, #4
 339 006c FFF7FEFF 		bl	SPI_IMU_Interface_Multi_RW
 340              	.LVL20:
 138:LIS3DH.c      ****     
 139:LIS3DH.c      ****     // Setup interrupt 1 configuration register
 140:LIS3DH.c      ****     BUFFTX[0] = LIS3DH_INT1_CFG;
 341              		.loc 1 140 0
 342 0070 3023     		movs	r3, #48
 343 0072 8DF80430 		strb	r3, [sp, #4]
 141:LIS3DH.c      ****     BUFFTX[1] = LIS3DH_INT1_CFG_XYZ_HIGH_EVENTS;
 344              		.loc 1 141 0
 345 0076 2A23     		movs	r3, #42
 346 0078 8DF80530 		strb	r3, [sp, #5]
 142:LIS3DH.c      **** 	SPI_IMU_Interface_Multi_RW(BUFFTX, 2, &temp, 0);
 347              		.loc 1 142 0
 348 007c 2346     		mov	r3, r4
 349 007e 0DF10702 		add	r2, sp, #7
 350 0082 0221     		movs	r1, #2
 351 0084 01A8     		add	r0, sp, #4
 352 0086 FFF7FEFF 		bl	SPI_IMU_Interface_Multi_RW
 353              	.LVL21:
 143:LIS3DH.c      **** }
 354              		.loc 1 143 0
 355 008a 03B0     		add	sp, sp, #12
 356              		.cfi_def_cfa_offset 12
 357              		@ sp needed
 358 008c 30BD     		pop	{r4, r5, pc}
 359              		.cfi_endproc
 360              	.LFE67:
 361              		.size	IMU_Start, .-IMU_Start
 362 008e 00BF     		.section	.text.IMU_WriteByte,"ax",%progbits
 363              		.align	2
 364              		.global	IMU_WriteByte
 365              		.thumb
 366              		.thumb_func
 367              		.type	IMU_WriteByte, %function
ARM GAS  C:\Users\Lory\AppData\Local\Temp\cctIB4Ic.s 			page 10


 368              	IMU_WriteByte:
 369              	.LFB68:
 144:LIS3DH.c      **** 
 145:LIS3DH.c      **** void IMU_WriteByte(uint8_t address, uint8_t dataByte) 
 146:LIS3DH.c      **** {
 370              		.loc 1 146 0
 371              		.cfi_startproc
 372              		@ args = 0, pretend = 0, frame = 8
 373              		@ frame_needed = 0, uses_anonymous_args = 0
 374              	.LVL22:
 375 0000 00B5     		push	{lr}
 376              		.cfi_def_cfa_offset 4
 377              		.cfi_offset 14, -4
 378 0002 83B0     		sub	sp, sp, #12
 379              		.cfi_def_cfa_offset 16
 147:LIS3DH.c      ****     
 148:LIS3DH.c      **** 	/* Prepare the TX packet */
 149:LIS3DH.c      ****     uint8_t dataTX[2] = {address, dataByte};
 380              		.loc 1 149 0
 381 0004 8DF80400 		strb	r0, [sp, #4]
 382 0008 8DF80510 		strb	r1, [sp, #5]
 150:LIS3DH.c      **** 	/* Nothing to RX... */
 151:LIS3DH.c      **** 	uint8_t temp = 0;
 383              		.loc 1 151 0
 384 000c 0023     		movs	r3, #0
 385 000e 02AA     		add	r2, sp, #8
 386 0010 02F8053D 		strb	r3, [r2, #-5]!
 152:LIS3DH.c      **** 	
 153:LIS3DH.c      **** 	/* Write 1 byte to addr */
 154:LIS3DH.c      **** 	SPI_IMU_Interface_Multi_RW(dataTX, 2, &temp, 0);
 387              		.loc 1 154 0
 388 0014 0221     		movs	r1, #2
 389              	.LVL23:
 390 0016 01A8     		add	r0, sp, #4
 391              	.LVL24:
 392 0018 FFF7FEFF 		bl	SPI_IMU_Interface_Multi_RW
 393              	.LVL25:
 155:LIS3DH.c      **** 	    
 156:LIS3DH.c      **** }
 394              		.loc 1 156 0
 395 001c 03B0     		add	sp, sp, #12
 396              		.cfi_def_cfa_offset 4
 397              		@ sp needed
 398 001e 5DF804FB 		ldr	pc, [sp], #4
 399              		.cfi_endproc
 400              	.LFE68:
 401              		.size	IMU_WriteByte, .-IMU_WriteByte
 402 0022 00BF     		.section	.text.IMU_ReadFIFO,"ax",%progbits
 403              		.align	2
 404              		.global	IMU_ReadFIFO
 405              		.thumb
 406              		.thumb_func
 407              		.type	IMU_ReadFIFO, %function
 408              	IMU_ReadFIFO:
 409              	.LFB69:
 157:LIS3DH.c      **** 
 158:LIS3DH.c      **** void IMU_ReadFIFO(uint8_t *buffer)
ARM GAS  C:\Users\Lory\AppData\Local\Temp\cctIB4Ic.s 			page 11


 159:LIS3DH.c      **** {       
 410              		.loc 1 159 0
 411              		.cfi_startproc
 412              		@ args = 0, pretend = 0, frame = 8
 413              		@ frame_needed = 0, uses_anonymous_args = 0
 414              	.LVL26:
 415 0000 30B5     		push	{r4, r5, lr}
 416              		.cfi_def_cfa_offset 12
 417              		.cfi_offset 4, -12
 418              		.cfi_offset 5, -8
 419              		.cfi_offset 14, -4
 420 0002 83B0     		sub	sp, sp, #12
 421              		.cfi_def_cfa_offset 24
 422 0004 0546     		mov	r5, r0
 160:LIS3DH.c      ****     // Address of low X register
 161:LIS3DH.c      **** 	uint8_t dataTX = LIS3DH_READ_OUT_X_L;
 423              		.loc 1 161 0
 424 0006 E823     		movs	r3, #232
 425 0008 8DF80730 		strb	r3, [sp, #7]
 426              	.LVL27:
 427              	.LBB2:
 162:LIS3DH.c      ****   
 163:LIS3DH.c      ****     // Read one level of the FIFO at the time (6 bytes)
 164:LIS3DH.c      ****     for(int i = 0; i < 32 ; i++)
 428              		.loc 1 164 0
 429 000c 0024     		movs	r4, #0
 430 000e 0AE0     		b	.L14
 431              	.LVL28:
 432              	.L15:
 165:LIS3DH.c      ****     {              
 166:LIS3DH.c      ****         SPI_IMU_Interface_Multi_RW(&dataTX, 1, &buffer[i*6], LIS3DH_FIFO_BYTES_IN_LEVEL);
 433              		.loc 1 166 0 discriminator 3
 434 0010 04EB4403 		add	r3, r4, r4, lsl #1
 435 0014 5A00     		lsls	r2, r3, #1
 436 0016 0623     		movs	r3, #6
 437 0018 2A44     		add	r2, r2, r5
 438 001a 0121     		movs	r1, #1
 439 001c 0DF10700 		add	r0, sp, #7
 440 0020 FFF7FEFF 		bl	SPI_IMU_Interface_Multi_RW
 441              	.LVL29:
 164:LIS3DH.c      ****     {              
 442              		.loc 1 164 0 discriminator 3
 443 0024 0134     		adds	r4, r4, #1
 444              	.LVL30:
 445              	.L14:
 164:LIS3DH.c      ****     {              
 446              		.loc 1 164 0 is_stmt 0 discriminator 1
 447 0026 1F2C     		cmp	r4, #31
 448 0028 F2DD     		ble	.L15
 449              	.LBE2:
 167:LIS3DH.c      ****     }  
 168:LIS3DH.c      **** }
 450              		.loc 1 168 0 is_stmt 1
 451 002a 03B0     		add	sp, sp, #12
 452              		.cfi_def_cfa_offset 12
 453              		@ sp needed
 454 002c 30BD     		pop	{r4, r5, pc}
ARM GAS  C:\Users\Lory\AppData\Local\Temp\cctIB4Ic.s 			page 12


 455              		.cfi_endproc
 456              	.LFE69:
 457              		.size	IMU_ReadFIFO, .-IMU_ReadFIFO
 458 002e 00BF     		.section	.text.IMU_StoreFIFO,"ax",%progbits
 459              		.align	2
 460              		.global	IMU_StoreFIFO
 461              		.thumb
 462              		.thumb_func
 463              		.type	IMU_StoreFIFO, %function
 464              	IMU_StoreFIFO:
 465              	.LFB70:
 169:LIS3DH.c      **** 
 170:LIS3DH.c      **** void IMU_StoreFIFO(uint8_t *buffer)
 171:LIS3DH.c      **** {
 466              		.loc 1 171 0
 467              		.cfi_startproc
 468              		@ args = 0, pretend = 0, frame = 144
 469              		@ frame_needed = 0, uses_anonymous_args = 0
 470              	.LVL31:
 471 0000 F0B5     		push	{r4, r5, r6, r7, lr}
 472              		.cfi_def_cfa_offset 20
 473              		.cfi_offset 4, -20
 474              		.cfi_offset 5, -16
 475              		.cfi_offset 6, -12
 476              		.cfi_offset 7, -8
 477              		.cfi_offset 14, -4
 478 0002 A5B0     		sub	sp, sp, #148
 479              		.cfi_def_cfa_offset 168
 480              	.LVL32:
 481              	.LBB3:
 172:LIS3DH.c      ****     // Buffer storing only high registers read from the IMU (8 bit configuration, low power mode)
 173:LIS3DH.c      ****     uint8_t high_reg_data[LIS3DH_BYTES_IN_FIFO_HIGH_REG];
 174:LIS3DH.c      ****     uint8_t down_sampled_data[(LIS3DH_BYTES_IN_FIFO_HIGH_REG/LIS3DH_DOWN_SAMPLE)];
 175:LIS3DH.c      ****     
 176:LIS3DH.c      ****     // Save only the high registers 
 177:LIS3DH.c      ****     for(uint8_t i = 0; i < LIS3DH_BYTES_IN_FIFO_HIGH_REG; i++)
 482              		.loc 1 177 0
 483 0004 0023     		movs	r3, #0
 484 0006 08E0     		b	.L18
 485              	.LVL33:
 486              	.L19:
 178:LIS3DH.c      ****     {
 179:LIS3DH.c      ****         high_reg_data[i] = buffer[i*2 +1];
 487              		.loc 1 179 0 discriminator 3
 488 0008 00EB4302 		add	r2, r0, r3, lsl #1
 489 000c 5178     		ldrb	r1, [r2, #1]	@ zero_extendqisi2
 490 000e 24AA     		add	r2, sp, #144
 491 0010 1A44     		add	r2, r2, r3
 492 0012 02F8601C 		strb	r1, [r2, #-96]
 177:LIS3DH.c      ****     {
 493              		.loc 1 177 0 discriminator 3
 494 0016 0133     		adds	r3, r3, #1
 495              	.LVL34:
 496 0018 DBB2     		uxtb	r3, r3
 497              	.LVL35:
 498              	.L18:
 177:LIS3DH.c      ****     {
ARM GAS  C:\Users\Lory\AppData\Local\Temp\cctIB4Ic.s 			page 13


 499              		.loc 1 177 0 is_stmt 0 discriminator 1
 500 001a 5F2B     		cmp	r3, #95
 501 001c F4D9     		bls	.L19
 502 001e 0021     		movs	r1, #0
 503 0020 1DE0     		b	.L20
 504              	.LVL36:
 505              	.L21:
 506              	.LBE3:
 507              	.LBB4:
 180:LIS3DH.c      ****     }
 181:LIS3DH.c      ****     
 182:LIS3DH.c      ****     // Downsample from 96 values to 48 (from 32 levels of FIFO to 16)
 183:LIS3DH.c      ****     for(uint8_t i = 0; i < (LIS3DH_LEVELS_IN_FIFO/LIS3DH_DOWN_SAMPLE); i++)
 184:LIS3DH.c      ****     {
 185:LIS3DH.c      ****         down_sampled_data[i*3] = high_reg_data[(i*3)*2];
 508              		.loc 1 185 0 is_stmt 1 discriminator 3
 509 0022 01EB4103 		add	r3, r1, r1, lsl #1
 510 0026 5A00     		lsls	r2, r3, #1
 511 0028 24A8     		add	r0, sp, #144
 512 002a 1044     		add	r0, r0, r2
 513 002c 10F8604C 		ldrb	r4, [r0, #-96]	@ zero_extendqisi2
 514 0030 24A8     		add	r0, sp, #144
 515 0032 1844     		add	r0, r0, r3
 516 0034 00F8904C 		strb	r4, [r0, #-144]
 186:LIS3DH.c      ****         down_sampled_data[i*3 + 1] = high_reg_data[(i*3)*2 + 1];
 517              		.loc 1 186 0 discriminator 3
 518 0038 581C     		adds	r0, r3, #1
 519 003a 541C     		adds	r4, r2, #1
 520 003c 24AD     		add	r5, sp, #144
 521 003e 2C44     		add	r4, r4, r5
 522 0040 14F8604C 		ldrb	r4, [r4, #-96]	@ zero_extendqisi2
 523 0044 2844     		add	r0, r0, r5
 524 0046 00F8904C 		strb	r4, [r0, #-144]
 187:LIS3DH.c      ****         down_sampled_data[i*3 + 2] = high_reg_data[(i*3)*2 + 2];
 525              		.loc 1 187 0 discriminator 3
 526 004a 0233     		adds	r3, r3, #2
 527 004c 0232     		adds	r2, r2, #2
 528 004e 2A44     		add	r2, r2, r5
 529 0050 12F8602C 		ldrb	r2, [r2, #-96]	@ zero_extendqisi2
 530 0054 2B44     		add	r3, r3, r5
 531 0056 03F8902C 		strb	r2, [r3, #-144]
 183:LIS3DH.c      ****     {
 532              		.loc 1 183 0 discriminator 3
 533 005a 0131     		adds	r1, r1, #1
 534              	.LVL37:
 535 005c C9B2     		uxtb	r1, r1
 536              	.LVL38:
 537              	.L20:
 183:LIS3DH.c      ****     {
 538              		.loc 1 183 0 is_stmt 0 discriminator 1
 539 005e 0F29     		cmp	r1, #15
 540 0060 DFD9     		bls	.L21
 541              	.LBE4:
 188:LIS3DH.c      ****     }
 189:LIS3DH.c      **** 
 190:LIS3DH.c      ****     // Copy the first 5 FIFO in the next positions of the buffer, in order to free the first positi
 191:LIS3DH.c      ****     memcpy(&IMU_log_queue[LIS3DH_BYTES_IN_FIFO_DOWNSAMPLED], IMU_log_queue, (LIS3DH_BYTES_IN_LOG_BU
ARM GAS  C:\Users\Lory\AppData\Local\Temp\cctIB4Ic.s 			page 14


 542              		.loc 1 191 0 is_stmt 1
 543 0062 0A48     		ldr	r0, .L24
 544 0064 A0F13004 		sub	r4, r0, #48
 545 0068 F022     		movs	r2, #240
 546 006a 2146     		mov	r1, r4
 547              	.LVL39:
 548 006c FFF7FEFF 		bl	memcpy
 549              	.LVL40:
 192:LIS3DH.c      ****     
 193:LIS3DH.c      ****     
 194:LIS3DH.c      ****     // Copy the new FIFO in the first place of the buffer
 195:LIS3DH.c      ****     memcpy(&IMU_log_queue, down_sampled_data, LIS3DH_BYTES_IN_FIFO_DOWNSAMPLED);
 550              		.loc 1 195 0
 551 0070 6E46     		mov	r6, sp
 552 0072 0CAF     		add	r7, sp, #48
 553              	.L22:
 554 0074 3546     		mov	r5, r6
 555 0076 0FCD     		ldmia	r5!, {r0, r1, r2, r3}
 556 0078 2060     		str	r0, [r4]	@ unaligned
 557 007a 6160     		str	r1, [r4, #4]	@ unaligned
 558 007c A260     		str	r2, [r4, #8]	@ unaligned
 559 007e E360     		str	r3, [r4, #12]	@ unaligned
 560 0080 2E46     		mov	r6, r5
 561 0082 1034     		adds	r4, r4, #16
 562 0084 BD42     		cmp	r5, r7
 563 0086 F5D1     		bne	.L22
 196:LIS3DH.c      **** 
 197:LIS3DH.c      **** 
 198:LIS3DH.c      **** }
 564              		.loc 1 198 0
 565 0088 25B0     		add	sp, sp, #148
 566              		.cfi_def_cfa_offset 20
 567              		@ sp needed
 568 008a F0BD     		pop	{r4, r5, r6, r7, pc}
 569              	.L25:
 570              		.align	2
 571              	.L24:
 572 008c 30000000 		.word	IMU_log_queue+48
 573              		.cfi_endproc
 574              	.LFE70:
 575              		.size	IMU_StoreFIFO, .-IMU_StoreFIFO
 576              		.section	.text.IMU_getPayload,"ax",%progbits
 577              		.align	2
 578              		.global	IMU_getPayload
 579              		.thumb
 580              		.thumb_func
 581              		.type	IMU_getPayload, %function
 582              	IMU_getPayload:
 583              	.LFB71:
 199:LIS3DH.c      **** 
 200:LIS3DH.c      **** /*
 201:LIS3DH.c      ****  * Get data payload from the IMU queue.
 202:LIS3DH.c      ****  */
 203:LIS3DH.c      **** void IMU_getPayload(uint8_t *messagge, uint8_t index)
 204:LIS3DH.c      **** {
 584              		.loc 1 204 0
 585              		.cfi_startproc
ARM GAS  C:\Users\Lory\AppData\Local\Temp\cctIB4Ic.s 			page 15


 586              		@ args = 0, pretend = 0, frame = 0
 587              		@ frame_needed = 0, uses_anonymous_args = 0
 588              	.LVL41:
 589 0000 70B5     		push	{r4, r5, r6, lr}
 590              		.cfi_def_cfa_offset 16
 591              		.cfi_offset 4, -16
 592              		.cfi_offset 5, -12
 593              		.cfi_offset 6, -8
 594              		.cfi_offset 14, -4
 205:LIS3DH.c      ****     // from 0 index to 1 index base
 206:LIS3DH.c      ****     index = index+1;
 595              		.loc 1 206 0
 596 0002 0131     		adds	r1, r1, #1
 597              	.LVL42:
 598 0004 C9B2     		uxtb	r1, r1
 599              	.LVL43:
 207:LIS3DH.c      ****     if(index == 5)
 600              		.loc 1 207 0
 601 0006 0529     		cmp	r1, #5
 602 0008 15D1     		bne	.L27
 603 000a 0446     		mov	r4, r0
 208:LIS3DH.c      ****     {
 209:LIS3DH.c      ****         memset(messagge, 0, 60);
 604              		.loc 1 209 0
 605 000c 3C22     		movs	r2, #60
 606 000e 0021     		movs	r1, #0
 607              	.LVL44:
 608 0010 FFF7FEFF 		bl	memset
 609              	.LVL45:
 210:LIS3DH.c      ****         memcpy(messagge, IMU_log_queue, 48);
 610              		.loc 1 210 0
 611 0014 164B     		ldr	r3, .L32
 612 0016 2046     		mov	r0, r4
 613 0018 03F13002 		add	r2, r3, #48
 614              	.LVL46:
 615              	.L28:
 616 001c 1E68     		ldr	r6, [r3]	@ unaligned
 617 001e 5D68     		ldr	r5, [r3, #4]	@ unaligned
 618 0020 9C68     		ldr	r4, [r3, #8]	@ unaligned
 619 0022 D968     		ldr	r1, [r3, #12]	@ unaligned
 620 0024 0660     		str	r6, [r0]	@ unaligned
 621 0026 4560     		str	r5, [r0, #4]	@ unaligned
 622 0028 8460     		str	r4, [r0, #8]	@ unaligned
 623 002a C160     		str	r1, [r0, #12]	@ unaligned
 624 002c 1033     		adds	r3, r3, #16
 625 002e 1030     		adds	r0, r0, #16
 626 0030 9342     		cmp	r3, r2
 627 0032 F3D1     		bne	.L28
 628 0034 70BD     		pop	{r4, r5, r6, pc}
 629              	.LVL47:
 630              	.L27:
 211:LIS3DH.c      ****     }
 212:LIS3DH.c      ****     else
 213:LIS3DH.c      ****     {
 214:LIS3DH.c      ****         memcpy(messagge, &IMU_log_queue[288 - index*60], 60);
 631              		.loc 1 214 0
 632 0036 A1EB0111 		sub	r1, r1, r1, lsl #4
ARM GAS  C:\Users\Lory\AppData\Local\Temp\cctIB4Ic.s 			page 16


 633              	.LVL48:
 634 003a 8B00     		lsls	r3, r1, #2
 635 003c 03F59072 		add	r2, r3, #288
 636 0040 0B4B     		ldr	r3, .L32
 637 0042 1344     		add	r3, r3, r2
 638 0044 03F13002 		add	r2, r3, #48
 639              	.LVL49:
 640              	.L30:
 641 0048 1E68     		ldr	r6, [r3]	@ unaligned
 642 004a 5D68     		ldr	r5, [r3, #4]	@ unaligned
 643 004c 9C68     		ldr	r4, [r3, #8]	@ unaligned
 644 004e D968     		ldr	r1, [r3, #12]	@ unaligned
 645 0050 0660     		str	r6, [r0]	@ unaligned
 646 0052 4560     		str	r5, [r0, #4]	@ unaligned
 647 0054 8460     		str	r4, [r0, #8]	@ unaligned
 648 0056 C160     		str	r1, [r0, #12]	@ unaligned
 649 0058 1033     		adds	r3, r3, #16
 650 005a 1030     		adds	r0, r0, #16
 651 005c 9342     		cmp	r3, r2
 652 005e F3D1     		bne	.L30
 653 0060 1968     		ldr	r1, [r3]	@ unaligned
 654 0062 5A68     		ldr	r2, [r3, #4]	@ unaligned
 655 0064 9B68     		ldr	r3, [r3, #8]	@ unaligned
 656 0066 0160     		str	r1, [r0]	@ unaligned
 657 0068 4260     		str	r2, [r0, #4]	@ unaligned
 658 006a 8360     		str	r3, [r0, #8]	@ unaligned
 659 006c 70BD     		pop	{r4, r5, r6, pc}
 660              	.L33:
 661 006e 00BF     		.align	2
 662              	.L32:
 663 0070 00000000 		.word	IMU_log_queue
 664              		.cfi_endproc
 665              	.LFE71:
 666              		.size	IMU_getPayload, .-IMU_getPayload
 667              		.section	.text.IMU_DataSend,"ax",%progbits
 668              		.align	2
 669              		.global	IMU_DataSend
 670              		.thumb
 671              		.thumb_func
 672              		.type	IMU_DataSend, %function
 673              	IMU_DataSend:
 674              	.LFB72:
 215:LIS3DH.c      ****     }
 216:LIS3DH.c      **** }
 217:LIS3DH.c      **** 
 218:LIS3DH.c      **** void IMU_DataSend(uint8_t *buffer)
 219:LIS3DH.c      **** {
 675              		.loc 1 219 0
 676              		.cfi_startproc
 677              		@ args = 0, pretend = 0, frame = 104
 678              		@ frame_needed = 0, uses_anonymous_args = 0
 679              	.LVL50:
 680 0000 10B5     		push	{r4, lr}
 681              		.cfi_def_cfa_offset 8
 682              		.cfi_offset 4, -8
 683              		.cfi_offset 14, -4
 684 0002 9AB0     		sub	sp, sp, #104
ARM GAS  C:\Users\Lory\AppData\Local\Temp\cctIB4Ic.s 			page 17


 685              		.cfi_def_cfa_offset 112
 220:LIS3DH.c      ****     uint8_t DataSend[5];
 221:LIS3DH.c      ****     DataSend[0] = 0xA0;
 686              		.loc 1 221 0
 687 0004 A023     		movs	r3, #160
 688 0006 8DF86030 		strb	r3, [sp, #96]
 222:LIS3DH.c      ****     DataSend[4] = 0xC0;
 689              		.loc 1 222 0
 690 000a C023     		movs	r3, #192
 691 000c 8DF86430 		strb	r3, [sp, #100]
 692              	.LVL51:
 693              	.LBB5:
 223:LIS3DH.c      ****     
 224:LIS3DH.c      ****     // Buffer storing only high registers read from the IMU (8 bit configuration, low power mode)
 225:LIS3DH.c      ****     uint8_t high_reg_data[LIS3DH_BYTES_IN_FIFO_HIGH_REG];
 226:LIS3DH.c      ****     
 227:LIS3DH.c      ****      // Save only high registers 
 228:LIS3DH.c      ****     for(uint8_t i = 0; i < LIS3DH_BYTES_IN_FIFO_HIGH_REG; i++)
 694              		.loc 1 228 0
 695 0010 0023     		movs	r3, #0
 696 0012 08E0     		b	.L35
 697              	.LVL52:
 698              	.L36:
 229:LIS3DH.c      ****     {
 230:LIS3DH.c      ****         high_reg_data[i] = buffer[i*2 +1];
 699              		.loc 1 230 0 discriminator 3
 700 0014 00EB4302 		add	r2, r0, r3, lsl #1
 701 0018 5178     		ldrb	r1, [r2, #1]	@ zero_extendqisi2
 702 001a 1AAA     		add	r2, sp, #104
 703 001c 1A44     		add	r2, r2, r3
 704 001e 02F8681C 		strb	r1, [r2, #-104]
 228:LIS3DH.c      ****     {
 705              		.loc 1 228 0 discriminator 3
 706 0022 0133     		adds	r3, r3, #1
 707              	.LVL53:
 708 0024 DBB2     		uxtb	r3, r3
 709              	.LVL54:
 710              	.L35:
 228:LIS3DH.c      ****     {
 711              		.loc 1 228 0 is_stmt 0 discriminator 1
 712 0026 5F2B     		cmp	r3, #95
 713 0028 F4D9     		bls	.L36
 714 002a 0024     		movs	r4, #0
 715 002c 15E0     		b	.L37
 716              	.LVL55:
 717              	.L38:
 718              	.LBE5:
 719              	.LBB6:
 720              	.LBB7:
 231:LIS3DH.c      ****     }
 232:LIS3DH.c      **** 
 233:LIS3DH.c      ****     // Send 3 registers at time via UART
 234:LIS3DH.c      ****     for(int i = 0; i < 32 ; i++)
 235:LIS3DH.c      ****     {   
 236:LIS3DH.c      ****         // First and last position of DataSend array already initialized, need to loop only from po
 237:LIS3DH.c      ****         for(int j = 1; j < 4; j++)
 238:LIS3DH.c      ****         {   
ARM GAS  C:\Users\Lory\AppData\Local\Temp\cctIB4Ic.s 			page 18


 239:LIS3DH.c      ****             DataSend[j] = high_reg_data[i*3 + j-1];
 721              		.loc 1 239 0 is_stmt 1 discriminator 3
 722 002e 04EB4403 		add	r3, r4, r4, lsl #1
 723 0032 1344     		add	r3, r3, r2
 724 0034 013B     		subs	r3, r3, #1
 725 0036 1AA9     		add	r1, sp, #104
 726 0038 0B44     		add	r3, r3, r1
 727 003a 13F8681C 		ldrb	r1, [r3, #-104]	@ zero_extendqisi2
 728 003e 1AAB     		add	r3, sp, #104
 729 0040 1344     		add	r3, r3, r2
 730 0042 03F8081C 		strb	r1, [r3, #-8]
 237:LIS3DH.c      ****         {   
 731              		.loc 1 237 0 discriminator 3
 732 0046 0132     		adds	r2, r2, #1
 733              	.LVL56:
 734 0048 00E0     		b	.L39
 735              	.LVL57:
 736              	.L40:
 737              	.LBE7:
 738 004a 0122     		movs	r2, #1
 739              	.L39:
 740              	.LVL58:
 741              	.LBB8:
 237:LIS3DH.c      ****         {   
 742              		.loc 1 237 0 is_stmt 0 discriminator 1
 743 004c 032A     		cmp	r2, #3
 744 004e EEDD     		ble	.L38
 745              	.LBE8:
 240:LIS3DH.c      ****         }
 241:LIS3DH.c      ****         UART_PutArray(DataSend, 5);
 746              		.loc 1 241 0 is_stmt 1 discriminator 2
 747 0050 0521     		movs	r1, #5
 748 0052 18A8     		add	r0, sp, #96
 749 0054 FFF7FEFF 		bl	UART_PutArray
 750              	.LVL59:
 234:LIS3DH.c      ****     {   
 751              		.loc 1 234 0 discriminator 2
 752 0058 0134     		adds	r4, r4, #1
 753              	.LVL60:
 754              	.L37:
 234:LIS3DH.c      ****     {   
 755              		.loc 1 234 0 is_stmt 0 discriminator 1
 756 005a 1F2C     		cmp	r4, #31
 757 005c F5DD     		ble	.L40
 758              	.LBE6:
 242:LIS3DH.c      ****     }
 243:LIS3DH.c      **** }
 759              		.loc 1 243 0 is_stmt 1
 760 005e 1AB0     		add	sp, sp, #104
 761              		.cfi_def_cfa_offset 8
 762              		@ sp needed
 763 0060 10BD     		pop	{r4, pc}
 764              		.cfi_endproc
 765              	.LFE72:
 766              		.size	IMU_DataSend, .-IMU_DataSend
 767 0062 00BF     		.section	.text.IMU_ResetFIFO,"ax",%progbits
 768              		.align	2
ARM GAS  C:\Users\Lory\AppData\Local\Temp\cctIB4Ic.s 			page 19


 769              		.global	IMU_ResetFIFO
 770              		.thumb
 771              		.thumb_func
 772              		.type	IMU_ResetFIFO, %function
 773              	IMU_ResetFIFO:
 774              	.LFB73:
 244:LIS3DH.c      **** 
 245:LIS3DH.c      **** void IMU_ResetFIFO()
 246:LIS3DH.c      **** {
 775              		.loc 1 246 0
 776              		.cfi_startproc
 777              		@ args = 0, pretend = 0, frame = 8
 778              		@ frame_needed = 0, uses_anonymous_args = 0
 779 0000 30B5     		push	{r4, r5, lr}
 780              		.cfi_def_cfa_offset 12
 781              		.cfi_offset 4, -12
 782              		.cfi_offset 5, -8
 783              		.cfi_offset 14, -4
 784 0002 83B0     		sub	sp, sp, #12
 785              		.cfi_def_cfa_offset 24
 247:LIS3DH.c      ****     
 248:LIS3DH.c      ****     // Set bypass mode
 249:LIS3DH.c      ****     uint8_t BYPASSTX[2] = {LIS3DH_FIFO_CTRL_REG, LIS3DH_FIFO_CTRL_REG_BYPASS_MODE};
 786              		.loc 1 249 0
 787 0004 2E23     		movs	r3, #46
 788 0006 8DF80430 		strb	r3, [sp, #4]
 789 000a 0024     		movs	r4, #0
 790 000c 8DF80540 		strb	r4, [sp, #5]
 250:LIS3DH.c      **** 	uint8_t temp = 0;
 791              		.loc 1 250 0
 792 0010 02AD     		add	r5, sp, #8
 793 0012 05F8054D 		strb	r4, [r5, #-5]!
 251:LIS3DH.c      **** 	SPI_IMU_Interface_Multi_RW(BYPASSTX, 2, &temp, 0);
 794              		.loc 1 251 0
 795 0016 2346     		mov	r3, r4
 796 0018 2A46     		mov	r2, r5
 797 001a 0221     		movs	r1, #2
 798 001c 01A8     		add	r0, sp, #4
 799 001e FFF7FEFF 		bl	SPI_IMU_Interface_Multi_RW
 800              	.LVL61:
 252:LIS3DH.c      ****     
 253:LIS3DH.c      ****     CyDelayUs(1);
 801              		.loc 1 253 0
 802 0022 0120     		movs	r0, #1
 803 0024 FFF7FEFF 		bl	CyDelayUs
 804              	.LVL62:
 254:LIS3DH.c      ****     
 255:LIS3DH.c      ****     
 256:LIS3DH.c      ****     
 257:LIS3DH.c      ****     // Set FIFO mode again
 258:LIS3DH.c      ****     uint8_t FIFOTX[2] = {LIS3DH_FIFO_CTRL_REG, LIS3DH_FIFO_CTRL_REG_FIFO_MODE};
 805              		.loc 1 258 0
 806 0028 064B     		ldr	r3, .L44
 807 002a 1B88     		ldrh	r3, [r3]	@ unaligned
 808 002c ADF80030 		strh	r3, [sp]	@ unaligned
 259:LIS3DH.c      **** 	temp = 0;
 809              		.loc 1 259 0
ARM GAS  C:\Users\Lory\AppData\Local\Temp\cctIB4Ic.s 			page 20


 810 0030 8DF80340 		strb	r4, [sp, #3]
 260:LIS3DH.c      **** 	SPI_IMU_Interface_Multi_RW(FIFOTX, 2, &temp, 0);
 811              		.loc 1 260 0
 812 0034 2346     		mov	r3, r4
 813 0036 2A46     		mov	r2, r5
 814 0038 0221     		movs	r1, #2
 815 003a 6846     		mov	r0, sp
 816 003c FFF7FEFF 		bl	SPI_IMU_Interface_Multi_RW
 817              	.LVL63:
 261:LIS3DH.c      **** }
 818              		.loc 1 261 0
 819 0040 03B0     		add	sp, sp, #12
 820              		.cfi_def_cfa_offset 12
 821              		@ sp needed
 822 0042 30BD     		pop	{r4, r5, pc}
 823              	.L45:
 824              		.align	2
 825              	.L44:
 826 0044 00000000 		.word	.LANCHOR0
 827              		.cfi_endproc
 828              	.LFE73:
 829              		.size	IMU_ResetFIFO, .-IMU_ResetFIFO
 830              		.section	.text.IMU_StopISR,"ax",%progbits
 831              		.align	2
 832              		.global	IMU_StopISR
 833              		.thumb
 834              		.thumb_func
 835              		.type	IMU_StopISR, %function
 836              	IMU_StopISR:
 837              	.LFB74:
 262:LIS3DH.c      **** 
 263:LIS3DH.c      **** void IMU_StopISR(void)
 264:LIS3DH.c      **** {    
 838              		.loc 1 264 0
 839              		.cfi_startproc
 840              		@ args = 0, pretend = 0, frame = 8
 841              		@ frame_needed = 0, uses_anonymous_args = 0
 842 0000 00B5     		push	{lr}
 843              		.cfi_def_cfa_offset 4
 844              		.cfi_offset 14, -4
 845 0002 83B0     		sub	sp, sp, #12
 846              		.cfi_def_cfa_offset 16
 265:LIS3DH.c      ****     /* Prepare the TX packet with reg address and NULL value to stop ISR occurrences*/
 266:LIS3DH.c      ****     uint8_t CTRL3TX[2] = {LIS3DH_CTRL_REG3, LIS3DH_CTRL_REG3_NULL};
 847              		.loc 1 266 0
 848 0004 2223     		movs	r3, #34
 849 0006 8DF80430 		strb	r3, [sp, #4]
 850 000a 0023     		movs	r3, #0
 851 000c 8DF80530 		strb	r3, [sp, #5]
 267:LIS3DH.c      **** 	/* Nothing to RX... */
 268:LIS3DH.c      **** 	uint8_t temp = 0;
 852              		.loc 1 268 0
 853 0010 02AA     		add	r2, sp, #8
 854 0012 02F8053D 		strb	r3, [r2, #-5]!
 269:LIS3DH.c      **** 	
 270:LIS3DH.c      **** 	
 271:LIS3DH.c      **** 	SPI_IMU_Interface_Multi_RW(CTRL3TX, 2, &temp, 0);
ARM GAS  C:\Users\Lory\AppData\Local\Temp\cctIB4Ic.s 			page 21


 855              		.loc 1 271 0
 856 0016 0221     		movs	r1, #2
 857 0018 01A8     		add	r0, sp, #4
 858 001a FFF7FEFF 		bl	SPI_IMU_Interface_Multi_RW
 859              	.LVL64:
 272:LIS3DH.c      ****     
 273:LIS3DH.c      **** }
 860              		.loc 1 273 0
 861 001e 03B0     		add	sp, sp, #12
 862              		.cfi_def_cfa_offset 4
 863              		@ sp needed
 864 0020 5DF804FB 		ldr	pc, [sp], #4
 865              		.cfi_endproc
 866              	.LFE74:
 867              		.size	IMU_StopISR, .-IMU_StopISR
 868              		.section	.text.IMU_StartISR,"ax",%progbits
 869              		.align	2
 870              		.global	IMU_StartISR
 871              		.thumb
 872              		.thumb_func
 873              		.type	IMU_StartISR, %function
 874              	IMU_StartISR:
 875              	.LFB75:
 274:LIS3DH.c      **** 
 275:LIS3DH.c      **** void IMU_StartISR(void)
 276:LIS3DH.c      **** {
 876              		.loc 1 276 0
 877              		.cfi_startproc
 878              		@ args = 0, pretend = 0, frame = 8
 879              		@ frame_needed = 0, uses_anonymous_args = 0
 880 0000 00B5     		push	{lr}
 881              		.cfi_def_cfa_offset 4
 882              		.cfi_offset 14, -4
 883 0002 83B0     		sub	sp, sp, #12
 884              		.cfi_def_cfa_offset 16
 277:LIS3DH.c      ****     
 278:LIS3DH.c      ****     /* Prepare the TX packet with reg address and previous ISR settings bit */
 279:LIS3DH.c      ****     uint8_t CTRL3TX[2] = {LIS3DH_CTRL_REG3, LIS3DH_CTRL_REG3_I1_IA1_OVERRUN};
 885              		.loc 1 279 0
 886 0004 074B     		ldr	r3, .L50
 887 0006 1B88     		ldrh	r3, [r3]	@ unaligned
 888 0008 ADF80430 		strh	r3, [sp, #4]	@ unaligned
 280:LIS3DH.c      **** 	/* Nothing to RX... */
 281:LIS3DH.c      **** 	uint8_t temp = 0;
 889              		.loc 1 281 0
 890 000c 0023     		movs	r3, #0
 891 000e 02AA     		add	r2, sp, #8
 892 0010 02F8053D 		strb	r3, [r2, #-5]!
 282:LIS3DH.c      **** 	
 283:LIS3DH.c      **** 	SPI_IMU_Interface_Multi_RW(CTRL3TX, 2, &temp, 0);
 893              		.loc 1 283 0
 894 0014 0221     		movs	r1, #2
 895 0016 01A8     		add	r0, sp, #4
 896 0018 FFF7FEFF 		bl	SPI_IMU_Interface_Multi_RW
 897              	.LVL65:
 284:LIS3DH.c      ****     
 285:LIS3DH.c      **** }
ARM GAS  C:\Users\Lory\AppData\Local\Temp\cctIB4Ic.s 			page 22


 898              		.loc 1 285 0
 899 001c 03B0     		add	sp, sp, #12
 900              		.cfi_def_cfa_offset 4
 901              		@ sp needed
 902 001e 5DF804FB 		ldr	pc, [sp], #4
 903              	.L51:
 904 0022 00BF     		.align	2
 905              	.L50:
 906 0024 04000000 		.word	.LANCHOR0+4
 907              		.cfi_endproc
 908              	.LFE75:
 909              		.size	IMU_StartISR, .-IMU_StartISR
 910              		.comm	IMU_log_queue,288,4
 911              		.comm	IMU_DataBuffer,192,4
 912              		.section	.rodata
 913              		.align	2
 914              		.set	.LANCHOR0,. + 0
 915              	.LC0:
 916 0000 2E       		.byte	46
 917 0001 40       		.byte	64
 918 0002 0000     		.space	2
 919              	.LC1:
 920 0004 22       		.byte	34
 921 0005 42       		.byte	66
 922              		.text
 923              	.Letext0:
 924              		.file 2 "c:\\program files (x86)\\cypress\\psoc creator\\4.3\\psoc creator\\import\\gnu\\arm\\5.4.
 925              		.file 3 "c:\\program files (x86)\\cypress\\psoc creator\\4.3\\psoc creator\\import\\gnu\\arm\\5.4.
 926              		.file 4 "Generated_Source\\PSoC5/core_cm3.h"
 927              		.file 5 "LIS3DH.h"
 928              		.file 6 "SPI_Interface.h"
 929              		.file 7 "Generated_Source\\PSoC5/UART.h"
 930              		.file 8 "Generated_Source\\PSoC5/CyLib.h"