ARM GAS  C:\Users\Lory\AppData\Local\Temp\ccyluZ2V.s 			page 1


   1              		.syntax unified
   2              		.cpu cortex-m3
   3              		.fpu softvfp
   4              		.eabi_attribute 20, 1
   5              		.eabi_attribute 21, 1
   6              		.eabi_attribute 23, 3
   7              		.eabi_attribute 24, 1
   8              		.eabi_attribute 25, 1
   9              		.eabi_attribute 26, 1
  10              		.eabi_attribute 30, 1
  11              		.eabi_attribute 34, 1
  12              		.eabi_attribute 18, 4
  13              		.thumb
  14              		.syntax unified
  15              		.file	"LogUtils.c"
  16              		.text
  17              	.Ltext0:
  18              		.cfi_sections	.debug_frame
  19              		.section	.text.LOG_insertPayload,"ax",%progbits
  20              		.align	2
  21              		.global	LOG_insertPayload
  22              		.thumb
  23              		.thumb_func
  24              		.type	LOG_insertPayload, %function
  25              	LOG_insertPayload:
  26              	.LFB64:
  27              		.file 1 "LogUtils.c"
   1:LogUtils.c    **** /* ========================================
   2:LogUtils.c    ****  *
   3:LogUtils.c    ****  * This file contains all function definitions
   4:LogUtils.c    ****  * to create and handle log messages.
   5:LogUtils.c    ****  *
   6:LogUtils.c    ****  * A log message is used to store information
   7:LogUtils.c    ****  * regarding IMU over threshold events and it
   8:LogUtils.c    ****  * is composed as follows:
   9:LogUtils.c    ****  * 
  10:LogUtils.c    ****  * +--------------------+
  11:LogUtils.c    ****  * |       Log ID       |   <1 byte>
  12:LogUtils.c    ****  * +--------------------+
  13:LogUtils.c    ****  * |    INT register    |   <1 byte>
  14:LogUtils.c    ****  * +--------------------+
  15:LogUtils.c    ****  * |      Timestamp     |   <2 bytes>
  16:LogUtils.c    ****  * +--------------------+
  17:LogUtils.c    ****  * |                    |
  18:LogUtils.c    ****  * |        Data        |   <60 bytes>
  19:LogUtils.c    ****  * |                    |
  20:LogUtils.c    ****  * +--------------------+
  21:LogUtils.c    ****  *
  22:LogUtils.c    ****  * Log ID: identification number
  23:LogUtils.c    ****  * 
  24:LogUtils.c    ****  * INT register: info about external interrupt
  25:LogUtils.c    ****  *               triggered by over threshold
  26:LogUtils.c    ****  *
  27:LogUtils.c    ****  * Timestamp: timestamp in seconds of the event
  28:LogUtils.c    ****  *            occurrence
  29:LogUtils.c    ****  *
  30:LogUtils.c    ****  * Data: inertial measurement data, organized
ARM GAS  C:\Users\Lory\AppData\Local\Temp\ccyluZ2V.s 			page 2


  31:LogUtils.c    ****  *       in row of 3 axis value X, Y, Z for a
  32:LogUtils.c    ****  *       total of 20 rows (60 bytes)
  33:LogUtils.c    ****  *
  34:LogUtils.c    ****  * ========================================
  35:LogUtils.c    **** */
  36:LogUtils.c    **** 
  37:LogUtils.c    **** #include "LogUtils.h"
  38:LogUtils.c    **** 
  39:LogUtils.c    **** /*
  40:LogUtils.c    ****  * Create a single log message with 60 bytes of max payload. 
  41:LogUtils.c    ****  */
  42:LogUtils.c    **** log_t LOG_createMessage(uint8_t logID, uint8_t intReg, uint8_t* dataPtr, uint8_t nBytes)
  43:LogUtils.c    **** {
  44:LogUtils.c    ****     // Create log type message
  45:LogUtils.c    ****     log_t message;
  46:LogUtils.c    ****     
  47:LogUtils.c    ****     // Assign log id number
  48:LogUtils.c    ****     message.logID = logID;
  49:LogUtils.c    ****     
  50:LogUtils.c    ****     // Assign interrupt register
  51:LogUtils.c    ****     message.intReg = intReg;
  52:LogUtils.c    ****     
  53:LogUtils.c    ****     // Assign logging timestamp
  54:LogUtils.c    ****     LOG_insertTimestamp(&message);
  55:LogUtils.c    ****     
  56:LogUtils.c    ****     // Insert data payload
  57:LogUtils.c    ****     LOG_insertPayload(&message, dataPtr, nBytes);
  58:LogUtils.c    ****     message.dataSize = nBytes;
  59:LogUtils.c    ****     
  60:LogUtils.c    ****     return message;
  61:LogUtils.c    **** }
  62:LogUtils.c    **** 
  63:LogUtils.c    **** /*
  64:LogUtils.c    ****  * Insert data payload into log data structure.
  65:LogUtils.c    ****  */
  66:LogUtils.c    **** void LOG_insertPayload(log_t* msg, uint8_t* dataPtr, uint8_t size)
  67:LogUtils.c    **** {
  28              		.loc 1 67 0
  29              		.cfi_startproc
  30              		@ args = 0, pretend = 0, frame = 0
  31              		@ frame_needed = 0, uses_anonymous_args = 0
  32              		@ link register save eliminated.
  33              	.LVL0:
  34 0000 30B4     		push	{r4, r5}
  35              		.cfi_def_cfa_offset 8
  36              		.cfi_offset 4, -8
  37              		.cfi_offset 5, -4
  38              	.LVL1:
  39              	.LBB2:
  68:LogUtils.c    ****     // For buffer size
  69:LogUtils.c    ****     for (uint8_t i=0; i<size; i++)
  40              		.loc 1 69 0
  41 0002 0023     		movs	r3, #0
  42 0004 04E0     		b	.L2
  43              	.LVL2:
  44              	.L3:
  70:LogUtils.c    ****     {
ARM GAS  C:\Users\Lory\AppData\Local\Temp\ccyluZ2V.s 			page 3


  71:LogUtils.c    ****         // Copy data into message data field
  72:LogUtils.c    ****         msg->data[i] = dataPtr[i];
  45              		.loc 1 72 0 discriminator 3
  46 0006 CD5C     		ldrb	r5, [r1, r3]	@ zero_extendqisi2
  47 0008 C418     		adds	r4, r0, r3
  48 000a 6571     		strb	r5, [r4, #5]
  69:LogUtils.c    ****     {
  49              		.loc 1 69 0 discriminator 3
  50 000c 0133     		adds	r3, r3, #1
  51              	.LVL3:
  52 000e DBB2     		uxtb	r3, r3
  53              	.LVL4:
  54              	.L2:
  69:LogUtils.c    ****     {
  55              		.loc 1 69 0 is_stmt 0 discriminator 1
  56 0010 9342     		cmp	r3, r2
  57 0012 F8D3     		bcc	.L3
  58              	.LBE2:
  73:LogUtils.c    ****     }
  74:LogUtils.c    **** }
  59              		.loc 1 74 0 is_stmt 1
  60 0014 30BC     		pop	{r4, r5}
  61              		.cfi_restore 5
  62              		.cfi_restore 4
  63              		.cfi_def_cfa_offset 0
  64 0016 7047     		bx	lr
  65              		.cfi_endproc
  66              	.LFE64:
  67              		.size	LOG_insertPayload, .-LOG_insertPayload
  68              		.section	.text.LOG_insertTimestamp,"ax",%progbits
  69              		.align	2
  70              		.global	LOG_insertTimestamp
  71              		.thumb
  72              		.thumb_func
  73              		.type	LOG_insertTimestamp, %function
  74              	LOG_insertTimestamp:
  75              	.LFB65:
  75:LogUtils.c    **** 
  76:LogUtils.c    **** /*
  77:LogUtils.c    ****  * Insert timestamp in seconds since PSoC booting.
  78:LogUtils.c    ****  */
  79:LogUtils.c    **** void LOG_insertTimestamp(log_t* msg)
  80:LogUtils.c    **** {
  76              		.loc 1 80 0
  77              		.cfi_startproc
  78              		@ args = 0, pretend = 0, frame = 0
  79              		@ frame_needed = 0, uses_anonymous_args = 0
  80              	.LVL5:
  81 0000 10B5     		push	{r4, lr}
  82              		.cfi_def_cfa_offset 8
  83              		.cfi_offset 4, -8
  84              		.cfi_offset 14, -4
  85 0002 0446     		mov	r4, r0
  81:LogUtils.c    ****     // Read time in seconds from boot up
  82:LogUtils.c    ****     msg->timestamp = MAIN_TIMER_ReadCounter();
  86              		.loc 1 82 0
  87 0004 FFF7FEFF 		bl	MAIN_TIMER_ReadCounter
ARM GAS  C:\Users\Lory\AppData\Local\Temp\ccyluZ2V.s 			page 4


  88              	.LVL6:
  89 0008 6080     		strh	r0, [r4, #2]	@ movhi
  90 000a 10BD     		pop	{r4, pc}
  91              		.cfi_endproc
  92              	.LFE65:
  93              		.size	LOG_insertTimestamp, .-LOG_insertTimestamp
  94              		.section	.text.LOG_createMessage,"ax",%progbits
  95              		.align	2
  96              		.global	LOG_createMessage
  97              		.thumb
  98              		.thumb_func
  99              		.type	LOG_createMessage, %function
 100              	LOG_createMessage:
 101              	.LFB63:
  43:LogUtils.c    ****     // Create log type message
 102              		.loc 1 43 0
 103              		.cfi_startproc
 104              		@ args = 4, pretend = 0, frame = 72
 105              		@ frame_needed = 0, uses_anonymous_args = 0
 106              	.LVL7:
 107 0000 70B5     		push	{r4, r5, r6, lr}
 108              		.cfi_def_cfa_offset 16
 109              		.cfi_offset 4, -16
 110              		.cfi_offset 5, -12
 111              		.cfi_offset 6, -8
 112              		.cfi_offset 14, -4
 113 0002 92B0     		sub	sp, sp, #72
 114              		.cfi_def_cfa_offset 88
 115 0004 0446     		mov	r4, r0
 116 0006 1E46     		mov	r6, r3
 117 0008 9DF85850 		ldrb	r5, [sp, #88]	@ zero_extendqisi2
  48:LogUtils.c    ****     
 118              		.loc 1 48 0
 119 000c 8DF80410 		strb	r1, [sp, #4]
  51:LogUtils.c    ****     
 120              		.loc 1 51 0
 121 0010 8DF80520 		strb	r2, [sp, #5]
  54:LogUtils.c    ****     
 122              		.loc 1 54 0
 123 0014 01A8     		add	r0, sp, #4
 124              	.LVL8:
 125 0016 FFF7FEFF 		bl	LOG_insertTimestamp
 126              	.LVL9:
  57:LogUtils.c    ****     message.dataSize = nBytes;
 127              		.loc 1 57 0
 128 001a 2A46     		mov	r2, r5
 129 001c 3146     		mov	r1, r6
 130 001e 01A8     		add	r0, sp, #4
 131 0020 FFF7FEFF 		bl	LOG_insertPayload
 132              	.LVL10:
  58:LogUtils.c    ****     
 133              		.loc 1 58 0
 134 0024 8DF80850 		strb	r5, [sp, #8]
  60:LogUtils.c    **** }
 135              		.loc 1 60 0
 136 0028 4222     		movs	r2, #66
 137 002a 01A9     		add	r1, sp, #4
ARM GAS  C:\Users\Lory\AppData\Local\Temp\ccyluZ2V.s 			page 5


 138 002c 2046     		mov	r0, r4
 139 002e FFF7FEFF 		bl	memcpy
 140              	.LVL11:
  61:LogUtils.c    **** 
 141              		.loc 1 61 0
 142 0032 2046     		mov	r0, r4
 143 0034 12B0     		add	sp, sp, #72
 144              		.cfi_def_cfa_offset 16
 145              		@ sp needed
 146 0036 70BD     		pop	{r4, r5, r6, pc}
 147              		.cfi_endproc
 148              	.LFE63:
 149              		.size	LOG_createMessage, .-LOG_createMessage
 150              		.text
 151              	.Letext0:
 152              		.file 2 "c:\\program files (x86)\\cypress\\psoc creator\\4.3\\psoc creator\\import\\gnu\\arm\\5.4.
 153              		.file 3 "c:\\program files (x86)\\cypress\\psoc creator\\4.3\\psoc creator\\import\\gnu\\arm\\5.4.
 154              		.file 4 "LogUtils.h"
 155              		.file 5 "Generated_Source\\PSoC5/core_cm3.h"
 156              		.file 6 "Generated_Source\\PSoC5/MAIN_TIMER.h"