ARM GAS  C:\Users\Lory\AppData\Local\Temp\ccDT4Ixc.s 			page 1


   1              		.syntax unified
   2              		.cpu cortex-m3
   3              		.fpu softvfp
   4              		.eabi_attribute 20, 1
   5              		.eabi_attribute 21, 1
   6              		.eabi_attribute 23, 3
   7              		.eabi_attribute 24, 1
   8              		.eabi_attribute 25, 1
   9              		.eabi_attribute 26, 1
  10              		.eabi_attribute 30, 1
  11              		.eabi_attribute 34, 1
  12              		.eabi_attribute 18, 4
  13              		.thumb
  14              		.syntax unified
  15              		.file	"main.c"
  16              		.text
  17              	.Ltext0:
  18              		.cfi_sections	.debug_frame
  19              		.section	.text.main,"ax",%progbits
  20              		.align	2
  21              		.global	main
  22              		.thumb
  23              		.thumb_func
  24              		.type	main, %function
  25              	main:
  26              	.LFB64:
  27              		.file 1 "main.c"
   1:main.c        **** /* ========================================
   2:main.c        ****  *
   3:main.c        ****  * This file contains the main function which
   4:main.c        ****  * is designed to enable all ISRs and setup
   5:main.c        ****  * all communication protocols to interface
   6:main.c        ****  * the PSoC board with: 
   7:main.c        ****  * -> 25LC256 EEPROM
   8:main.c        ****  * -> LIS3DH accelerometer
   9:main.c        ****  * -> Serial monitor (UART)
  10:main.c        ****  *
  11:main.c        ****  * ========================================
  12:main.c        **** */
  13:main.c        **** 
  14:main.c        **** /* Project dependencies. */
  15:main.c        **** #include "InterruptRoutines.h"
  16:main.c        **** #include "SPI_Interface.h"
  17:main.c        **** #include "RGB_Driver.h"
  18:main.c        **** #include "LogUtils.h"
  19:main.c        **** #include "25LC256.h"
  20:main.c        **** #include "stdio.h"
  21:main.c        **** 
  22:main.c        **** /* Global variables. */
  23:main.c        **** char bufferUART[100];
  24:main.c        **** 
  25:main.c        **** /*
  26:main.c        ****  * Main function designated to setup stuff.
  27:main.c        ****  */
  28:main.c        **** int main(void)
  29:main.c        **** {   
  28              		.loc 1 29 0
ARM GAS  C:\Users\Lory\AppData\Local\Temp\ccDT4Ixc.s 			page 2


  29              		.cfi_startproc
  30              		@ args = 0, pretend = 0, frame = 192
  31              		@ frame_needed = 0, uses_anonymous_args = 0
  32 0000 2DE9F04F 		push	{r4, r5, r6, r7, r8, r9, r10, fp, lr}
  33              		.cfi_def_cfa_offset 36
  34              		.cfi_offset 4, -36
  35              		.cfi_offset 5, -32
  36              		.cfi_offset 6, -28
  37              		.cfi_offset 7, -24
  38              		.cfi_offset 8, -20
  39              		.cfi_offset 9, -16
  40              		.cfi_offset 10, -12
  41              		.cfi_offset 11, -8
  42              		.cfi_offset 14, -4
  43 0004 BDB0     		sub	sp, sp, #244
  44              		.cfi_def_cfa_offset 280
  30:main.c        ****     // Enable global interrupts
  31:main.c        ****     CyGlobalIntEnable;
  45              		.loc 1 31 0
  46              		.syntax unified
  47              	@ 31 "main.c" 1
  48 0006 62B6     		CPSIE   i
  49              	@ 0 "" 2
  32:main.c        ****     
  33:main.c        ****     // Enable UART communication
  34:main.c        ****     UART_Start();
  50              		.loc 1 34 0
  51              		.thumb
  52              		.syntax unified
  53 0008 FFF7FEFF 		bl	UART_Start
  54              	.LVL0:
  35:main.c        ****     
  36:main.c        ****     // Enable all SPI Master
  37:main.c        ****     SPIM_IMU_Start();
  55              		.loc 1 37 0
  56 000c FFF7FEFF 		bl	SPIM_IMU_Start
  57              	.LVL1:
  38:main.c        ****     SPIM_EEPROM_Start();
  58              		.loc 1 38 0
  59 0010 FFF7FEFF 		bl	SPIM_EEPROM_Start
  60              	.LVL2:
  39:main.c        ****     CyDelay(10);
  61              		.loc 1 39 0
  62 0014 0A20     		movs	r0, #10
  63 0016 FFF7FEFF 		bl	CyDelay
  64              	.LVL3:
  40:main.c        ****     
  41:main.c        ****     // Setup all registers via SPI to LIS3DH
  42:main.c        ****     IMU_RegistersSetup();
  65              		.loc 1 42 0
  66 001a FFF7FEFF 		bl	IMU_RegistersSetup
  67              	.LVL4:
  43:main.c        ****     
  44:main.c        ****     // Enable external ISR from IMU
  45:main.c        ****     ISR_IMU_StartEx(CUSTOM_ISR_IMU);
  68              		.loc 1 45 0
  69 001e 4C48     		ldr	r0, .L15
ARM GAS  C:\Users\Lory\AppData\Local\Temp\ccDT4Ixc.s 			page 3


  70 0020 FFF7FEFF 		bl	ISR_IMU_StartEx
  71              	.LVL5:
  46:main.c        ****     
  47:main.c        ****     // Enable configuration mode ISR
  48:main.c        ****     ISR_CONFIG_StartEx(CUSTOM_ISR_CONFIG);
  72              		.loc 1 48 0
  73 0024 4B48     		ldr	r0, .L15+4
  74 0026 FFF7FEFF 		bl	ISR_CONFIG_StartEx
  75              	.LVL6:
  49:main.c        ****     
  50:main.c        ****     // Enable start/stop mode ISR
  51:main.c        ****     ISR_START_StartEx(CUSTOM_ISR_START);
  76              		.loc 1 51 0
  77 002a 4B48     		ldr	r0, .L15+8
  78 002c FFF7FEFF 		bl	ISR_START_StartEx
  79              	.LVL7:
  52:main.c        **** 
  53:main.c        ****     // Initialize timers 
  54:main.c        ****     BUTTON_TIMER_Start();
  80              		.loc 1 54 0
  81 0030 FFF7FEFF 		bl	BUTTON_TIMER_Start
  82              	.LVL8:
  55:main.c        ****     CLICK_TIMER_Start();
  83              		.loc 1 55 0
  84 0034 FFF7FEFF 		bl	CLICK_TIMER_Start
  85              	.LVL9:
  56:main.c        ****     MAIN_TIMER_Start();
  86              		.loc 1 56 0
  87 0038 FFF7FEFF 		bl	MAIN_TIMER_Start
  88              	.LVL10:
  57:main.c        ****     
  58:main.c        ****     // Initialize ADC
  59:main.c        ****     ADC_DELSIG_Start();
  89              		.loc 1 59 0
  90 003c FFF7FEFF 		bl	ADC_DELSIG_Start
  91              	.LVL11:
  60:main.c        ****     
  61:main.c        ****     // Initliazide RGB LED
  62:main.c        ****     RGB_Init();
  92              		.loc 1 62 0
  93 0040 FFF7FEFF 		bl	RGB_Init
  94              	.LVL12:
  63:main.c        **** 
  64:main.c        ****     // Initialize button state
  65:main.c        ****     button_state = STOP_MODE;
  95              		.loc 1 65 0
  96 0044 4FF00009 		mov	r9, #0
  97 0048 444B     		ldr	r3, .L15+12
  98 004a 83F80090 		strb	r9, [r3]
  66:main.c        ****     
  67:main.c        ****     // Initialize IMU flags
  68:main.c        ****     IMU_data_ready_flag = 0;
  99              		.loc 1 68 0
 100 004e 444B     		ldr	r3, .L15+16
 101 0050 83F80090 		strb	r9, [r3]
  69:main.c        ****     IMU_over_threshold_flag = 0;
 102              		.loc 1 69 0
ARM GAS  C:\Users\Lory\AppData\Local\Temp\ccDT4Ixc.s 			page 4


 103 0054 434B     		ldr	r3, .L15+20
 104 0056 83F80090 		strb	r9, [r3]
  70:main.c        **** 
  71:main.c        ****     // End of setup
  72:main.c        ****     CyDelay(10);
 105              		.loc 1 72 0
 106 005a 0A20     		movs	r0, #10
 107 005c FFF7FEFF 		bl	CyDelay
 108              	.LVL13:
  73:main.c        ****     
  74:main.c        ****     // Define send flag
  75:main.c        ****     uint8_t send_flag = 0;
  76:main.c        **** 
  77:main.c        ****     // Uncomment this to erase EEPROM memory
  78:main.c        ****     EEPROM_resetMemory();
 109              		.loc 1 78 0
 110 0060 FFF7FEFF 		bl	EEPROM_resetMemory
 111              	.LVL14:
 112              	.L2:
  79:main.c        ****     
  80:main.c        ****     // Main loop
  81:main.c        ****     for(;;)
  82:main.c        ****     {   
  83:main.c        ****         // Board state handler
  84:main.c        ****         switch (button_state)
 113              		.loc 1 84 0
 114 0064 3D4B     		ldr	r3, .L15+12
 115 0066 1B78     		ldrb	r3, [r3]	@ zero_extendqisi2
 116 0068 DBB2     		uxtb	r3, r3
 117 006a 012B     		cmp	r3, #1
 118 006c 02D0     		beq	.L4
 119 006e 022B     		cmp	r3, #2
 120 0070 04D0     		beq	.L5
 121 0072 15E0     		b	.L3
 122              	.L4:
  85:main.c        ****         {
  86:main.c        ****             case STOP_MODE:
  87:main.c        ****                 
  88:main.c        ****                 // Do nothing
  89:main.c        ****                 break;
  90:main.c        ****             
  91:main.c        ****             case START_MODE:
  92:main.c        ****                 
  93:main.c        ****                 // Drive LED based on IMU data
  94:main.c        ****                 RGB_Driver(IMU_DataBuffer);
 123              		.loc 1 94 0
 124 0074 3C48     		ldr	r0, .L15+24
 125 0076 FFF7FEFF 		bl	RGB_Driver
 126              	.LVL15:
  95:main.c        ****                 break;
 127              		.loc 1 95 0
 128 007a 11E0     		b	.L3
 129              	.L5:
  96:main.c        ****      
  97:main.c        ****             case CONFIG_MODE:
  98:main.c        ****                 
  99:main.c        ****                 // Turn RGB LED on
ARM GAS  C:\Users\Lory\AppData\Local\Temp\ccDT4Ixc.s 			page 5


 100:main.c        ****                 RGB_Start();
 130              		.loc 1 100 0
 131 007c FFF7FEFF 		bl	RGB_Start
 132              	.LVL16:
 101:main.c        ****                 
 102:main.c        ****                 // Change send flag to send IMU data over UART
 103:main.c        ****                 while(EEPROM_retrieveConfigFlag() == 1)
 133              		.loc 1 103 0
 134 0080 05E0     		b	.L6
 135              	.L7:
 104:main.c        ****                 {
 105:main.c        ****                     // Assign new send flag based on knob
 106:main.c        ****                     send_flag = POT_Read_Value(send_flag);
 136              		.loc 1 106 0
 137 0082 4846     		mov	r0, r9
 138 0084 FFF7FEFF 		bl	POT_Read_Value
 139              	.LVL17:
 140 0088 8146     		mov	r9, r0
 141              	.LVL18:
 107:main.c        ****                     
 108:main.c        ****                     // Drive LED blue channel based on flag
 109:main.c        ****                     RGB_sendFlagNotify(send_flag);
 142              		.loc 1 109 0
 143 008a FFF7FEFF 		bl	RGB_sendFlagNotify
 144              	.LVL19:
 145              	.L6:
 103:main.c        ****                 {
 146              		.loc 1 103 0
 147 008e FFF7FEFF 		bl	EEPROM_retrieveConfigFlag
 148              	.LVL20:
 149 0092 0128     		cmp	r0, #1
 150 0094 F5D0     		beq	.L7
 110:main.c        ****                 }
 111:main.c        ****                 RGB_Stop();
 151              		.loc 1 111 0
 152 0096 FFF7FEFF 		bl	RGB_Stop
 153              	.LVL21:
 112:main.c        **** 
 113:main.c        ****                 // Save send flag inside EEPROM
 114:main.c        ****                 EEPROM_saveSendFlag(send_flag);
 154              		.loc 1 114 0
 155 009a 4846     		mov	r0, r9
 156 009c FFF7FEFF 		bl	EEPROM_saveSendFlag
 157              	.LVL22:
 158              	.L3:
 115:main.c        ****                 break;  
 116:main.c        ****         }
 117:main.c        ****         
 118:main.c        ****         // IMU ISR FIFO data overrun event
 119:main.c        ****         if (IMU_data_ready_flag == 1)
 159              		.loc 1 119 0
 160 00a0 2F4B     		ldr	r3, .L15+16
 161 00a2 1B78     		ldrb	r3, [r3]	@ zero_extendqisi2
 162 00a4 DBB2     		uxtb	r3, r3
 163 00a6 012B     		cmp	r3, #1
 164 00a8 12D1     		bne	.L8
 120:main.c        ****         {
ARM GAS  C:\Users\Lory\AppData\Local\Temp\ccDT4Ixc.s 			page 6


 121:main.c        ****             // Read data via SPI from IMU
 122:main.c        ****             IMU_ReadFIFO(IMU_DataBuffer);
 165              		.loc 1 122 0
 166 00aa 2F4C     		ldr	r4, .L15+24
 167 00ac 2046     		mov	r0, r4
 168 00ae FFF7FEFF 		bl	IMU_ReadFIFO
 169              	.LVL23:
 123:main.c        ****             
 124:main.c        ****             // Store the read FIFO in the LOG buffer
 125:main.c        ****             IMU_StoreFIFO(IMU_DataBuffer);
 170              		.loc 1 125 0
 171 00b2 2046     		mov	r0, r4
 172 00b4 FFF7FEFF 		bl	IMU_StoreFIFO
 173              	.LVL24:
 126:main.c        ****             
 127:main.c        ****             // Check EEPROM if send flag is set
 128:main.c        ****             if (EEPROM_retrieveSendFlag() == 1)
 174              		.loc 1 128 0
 175 00b8 FFF7FEFF 		bl	EEPROM_retrieveSendFlag
 176              	.LVL25:
 177 00bc 0128     		cmp	r0, #1
 178 00be 02D1     		bne	.L9
 129:main.c        ****             {
 130:main.c        ****                 //Send data read from FIFO via UART
 131:main.c        ****                 IMU_DataSend(IMU_DataBuffer);
 179              		.loc 1 131 0
 180 00c0 2046     		mov	r0, r4
 181 00c2 FFF7FEFF 		bl	IMU_DataSend
 182              	.LVL26:
 183              	.L9:
 132:main.c        ****             }
 133:main.c        **** 
 134:main.c        ****             // Reset the FIFO to enable next ISR occurrences
 135:main.c        ****             IMU_ResetFIFO();
 184              		.loc 1 135 0
 185 00c6 FFF7FEFF 		bl	IMU_ResetFIFO
 186              	.LVL27:
 136:main.c        ****             
 137:main.c        ****             // End of IMU data reading
 138:main.c        ****             IMU_data_ready_flag = 0;
 187              		.loc 1 138 0
 188 00ca 0022     		movs	r2, #0
 189 00cc 244B     		ldr	r3, .L15+16
 190 00ce 1A70     		strb	r2, [r3]
 191              	.L8:
 139:main.c        ****         }
 140:main.c        ****         
 141:main.c        ****         // IMU ISR over threshold event
 142:main.c        ****         if (IMU_over_threshold_flag == 1)
 192              		.loc 1 142 0
 193 00d0 244B     		ldr	r3, .L15+20
 194 00d2 1B78     		ldrb	r3, [r3]	@ zero_extendqisi2
 195 00d4 DBB2     		uxtb	r3, r3
 196 00d6 012B     		cmp	r3, #1
 197 00d8 C4D1     		bne	.L2
 198              	.L11:
 199              	.LBB2:
ARM GAS  C:\Users\Lory\AppData\Local\Temp\ccDT4Ixc.s 			page 7


 143:main.c        ****         {   
 144:main.c        ****             // Capture all over threshold event's interrupts
 145:main.c        ****             uint8_t int_reg;
 146:main.c        ****             while((int_reg = IMU_ReadByte(LIS3DH_INT1_SRC)) & (LIS3DH_INT1_SRC_IA_MASK));
 200              		.loc 1 146 0 discriminator 1
 201 00da 3120     		movs	r0, #49
 202 00dc FFF7FEFF 		bl	IMU_ReadByte
 203              	.LVL28:
 204 00e0 0646     		mov	r6, r0
 205              	.LVL29:
 206 00e2 10F0400F 		tst	r0, #64
 207 00e6 F8D1     		bne	.L11
 147:main.c        ****             
 148:main.c        ****             // Get sequential ID number
 149:main.c        ****             uint8_t log_id = EEPROM_retrieveLogCount();
 208              		.loc 1 149 0
 209 00e8 FFF7FEFF 		bl	EEPROM_retrieveLogCount
 210              	.LVL30:
 211 00ec 8246     		mov	r10, r0
 212              	.LVL31:
 150:main.c        ****             
 151:main.c        ****             // Get timestamp in seconds from boot
 152:main.c        ****             uint16_t timestamp = LOG_getTimestamp();
 213              		.loc 1 152 0
 214 00ee FFF7FEFF 		bl	LOG_getTimestamp
 215              	.LVL32:
 216 00f2 8346     		mov	fp, r0
 217              	.LVL33:
 218              	.LBB3:
 153:main.c        ****             
 154:main.c        ****             for (uint8_t i=0; i<LOG_PAGES_PER_EVENT; i++)
 219              		.loc 1 154 0
 220 00f4 0027     		movs	r7, #0
 221 00f6 22E0     		b	.L12
 222              	.LVL34:
 223              	.L13:
 224              	.LBB4:
 155:main.c        ****             {        
 156:main.c        ****                 // Get payload of 60 bytes from the IMU queue
 157:main.c        ****                 uint8_t payload[LOG_MESSAGE_DATA_BYTE];
 158:main.c        ****                 IMU_getPayload(payload, i);
 225              		.loc 1 158 0 discriminator 3
 226 00f8 0DAC     		add	r4, sp, #52
 227 00fa 3946     		mov	r1, r7
 228 00fc 2046     		mov	r0, r4
 229 00fe FFF7FEFF 		bl	IMU_getPayload
 230              	.LVL35:
 159:main.c        ****                 
 160:main.c        ****                 // Create log type message
 161:main.c        ****                 log_t log_message = LOG_createMessage(log_id, int_reg, timestamp, payload);
 231              		.loc 1 161 0 discriminator 3
 232 0102 0DF17008 		add	r8, sp, #112
 233 0106 0094     		str	r4, [sp]
 234 0108 5B46     		mov	r3, fp
 235 010a 3246     		mov	r2, r6
 236 010c 5146     		mov	r1, r10
 237 010e 4046     		mov	r0, r8
ARM GAS  C:\Users\Lory\AppData\Local\Temp\ccDT4Ixc.s 			page 8


 238 0110 FFF7FEFF 		bl	LOG_createMessage
 239              	.LVL36:
 162:main.c        ****                 
 163:main.c        ****                 // Store message inside EEPROM
 164:main.c        ****                 EEPROM_storeLogMessage(log_message);
 240              		.loc 1 164 0 discriminator 3
 241 0114 6C46     		mov	r4, sp
 242 0116 20AD     		add	r5, sp, #128
 243 0118 0FCD     		ldmia	r5!, {r0, r1, r2, r3}
 244 011a 0FC4     		stmia	r4!, {r0, r1, r2, r3}
 245 011c 0FCD     		ldmia	r5!, {r0, r1, r2, r3}
 246 011e 0FC4     		stmia	r4!, {r0, r1, r2, r3}
 247 0120 95E80F00 		ldmia	r5, {r0, r1, r2, r3}
 248 0124 84E80F00 		stmia	r4, {r0, r1, r2, r3}
 249 0128 98E80F00 		ldmia	r8, {r0, r1, r2, r3}
 250 012c FFF7FEFF 		bl	EEPROM_storeLogMessage
 251              	.LVL37:
 165:main.c        ****                 
 166:main.c        ****                 // Get page of first log
 167:main.c        ****                 log_t asd = EEPROM_retrieveLogMessage(log_id, i);
 252              		.loc 1 167 0 discriminator 3
 253 0130 3A46     		mov	r2, r7
 254 0132 5146     		mov	r1, r10
 255 0134 2CA8     		add	r0, sp, #176
 256 0136 FFF7FEFF 		bl	EEPROM_retrieveLogMessage
 257              	.LVL38:
 258              	.LBE4:
 154:main.c        ****             {        
 259              		.loc 1 154 0 discriminator 3
 260 013a 0137     		adds	r7, r7, #1
 261              	.LVL39:
 262 013c FFB2     		uxtb	r7, r7
 263              	.LVL40:
 264              	.L12:
 154:main.c        ****             {        
 265              		.loc 1 154 0 is_stmt 0 discriminator 1
 266 013e 042F     		cmp	r7, #4
 267 0140 DAD9     		bls	.L13
 268              	.LBE3:
 168:main.c        ****                 
 169:main.c        ****                 // Send message via uart
 170:main.c        ****                 //LOG_sendData(&asd);
 171:main.c        ****             }
 172:main.c        ****             
 173:main.c        ****             // End of over threshold event
 174:main.c        ****             IMU_over_threshold_flag = 0;
 269              		.loc 1 174 0 is_stmt 1
 270 0142 0022     		movs	r2, #0
 271 0144 074B     		ldr	r3, .L15+20
 272 0146 1A70     		strb	r2, [r3]
 175:main.c        ****             
 176:main.c        ****             // Reset the FIFO to enable new ISR occurrences
 177:main.c        ****             IMU_ResetFIFO();
 273              		.loc 1 177 0
 274 0148 FFF7FEFF 		bl	IMU_ResetFIFO
 275              	.LVL41:
 276 014c 8AE7     		b	.L2
ARM GAS  C:\Users\Lory\AppData\Local\Temp\ccDT4Ixc.s 			page 9


 277              	.L16:
 278 014e 00BF     		.align	2
 279              	.L15:
 280 0150 00000000 		.word	CUSTOM_ISR_IMU
 281 0154 00000000 		.word	CUSTOM_ISR_CONFIG
 282 0158 00000000 		.word	CUSTOM_ISR_START
 283 015c 00000000 		.word	button_state
 284 0160 00000000 		.word	IMU_data_ready_flag
 285 0164 00000000 		.word	IMU_over_threshold_flag
 286 0168 00000000 		.word	IMU_DataBuffer
 287              	.LBE2:
 288              		.cfi_endproc
 289              	.LFE64:
 290              		.size	main, .-main
 291              		.comm	bufferUART,100,4
 292              		.comm	button_state,1,1
 293              		.comm	IMU_over_threshold_flag,1,1
 294              		.comm	IMU_data_ready_flag,1,1
 295              		.comm	RGB_DataBuffer,3,4
 296              		.comm	IMU_log_queue,288,4
 297              		.comm	IMU_DataBuffer,192,4
 298              		.text
 299              	.Letext0:
 300              		.file 2 "c:\\program files (x86)\\cypress\\psoc creator\\4.3\\psoc creator\\import\\gnu\\arm\\5.4.
 301              		.file 3 "c:\\program files (x86)\\cypress\\psoc creator\\4.3\\psoc creator\\import\\gnu\\arm\\5.4.
 302              		.file 4 "LogUtils.h"
 303              		.file 5 "InterruptRoutines.h"
 304              		.file 6 "Generated_Source\\PSoC5/core_cm3.h"
 305              		.file 7 "LIS3DH.h"
 306              		.file 8 "RGB_Driver.h"
 307              		.file 9 "25LC256.h"
 308              		.file 10 "Generated_Source\\PSoC5/UART.h"
 309              		.file 11 "Generated_Source\\PSoC5/SPIM_IMU.h"
 310              		.file 12 "Generated_Source\\PSoC5/SPIM_EEPROM.h"
 311              		.file 13 "Generated_Source\\PSoC5/CyLib.h"
 312              		.file 14 "Generated_Source\\PSoC5/ISR_IMU.h"
 313              		.file 15 "Generated_Source\\PSoC5/ISR_CONFIG.h"
 314              		.file 16 "Generated_Source\\PSoC5/ISR_START.h"
 315              		.file 17 "Generated_Source\\PSoC5/BUTTON_TIMER.h"
 316              		.file 18 "Generated_Source\\PSoC5/CLICK_TIMER.h"
 317              		.file 19 "Generated_Source\\PSoC5/MAIN_TIMER.h"
 318              		.file 20 "Generated_Source\\PSoC5/ADC_DELSIG.h"
 319              		.file 21 "Notifications.h"