ARM GAS  C:\Users\Lory\AppData\Local\Temp\ccDySLEa.s 			page 1


   1              		.syntax unified
   2              		.cpu cortex-m3
   3              		.fpu softvfp
   4              		.eabi_attribute 20, 1
   5              		.eabi_attribute 21, 1
   6              		.eabi_attribute 23, 3
   7              		.eabi_attribute 24, 1
   8              		.eabi_attribute 25, 1
   9              		.eabi_attribute 26, 1
  10              		.eabi_attribute 30, 1
  11              		.eabi_attribute 34, 1
  12              		.eabi_attribute 18, 4
  13              		.thumb
  14              		.syntax unified
  15              		.file	"Notifications.c"
  16              		.text
  17              	.Ltext0:
  18              		.cfi_sections	.debug_frame
  19              		.section	.text.LED_Notify_Stop,"ax",%progbits
  20              		.align	2
  21              		.global	LED_Notify_Stop
  22              		.thumb
  23              		.thumb_func
  24              		.type	LED_Notify_Stop, %function
  25              	LED_Notify_Stop:
  26              	.LFB63:
  27              		.file 1 "Notifications.c"
   1:Notifications.c **** /* ========================================
   2:Notifications.c ****  *
   3:Notifications.c ****  * This file contains utility functions
   4:Notifications.c ****  * used for visually notify the user of the
   5:Notifications.c ****  * internal state of the firmware by driving
   6:Notifications.c ****  * the PSoC on-board LED, as well as taking 
   7:Notifications.c ****  * user inputs throught a potentiometer to
   8:Notifications.c ****  * set a logical flag used inside the main.
   9:Notifications.c ****  *
  10:Notifications.c ****  * ========================================
  11:Notifications.c **** */
  12:Notifications.c **** 
  13:Notifications.c **** 
  14:Notifications.c **** /* Project dependencies. */
  15:Notifications.c **** #include "Notifications.h"
  16:Notifications.c **** 
  17:Notifications.c **** 
  18:Notifications.c **** /*******************************************************************************
  19:Notifications.c **** * Function Name: LED_Notify_Stop
  20:Notifications.c **** ********************************************************************************
  21:Notifications.c **** *
  22:Notifications.c **** * Summary:
  23:Notifications.c **** *   Notify visually when internal state is set to stop mode by turning PSoC 
  24:Notifications.c **** *   on-board LED off.
  25:Notifications.c **** *
  26:Notifications.c **** * Parameters:  
  27:Notifications.c **** *   None.
  28:Notifications.c **** *
  29:Notifications.c **** * Return:
  30:Notifications.c **** *   None.
ARM GAS  C:\Users\Lory\AppData\Local\Temp\ccDySLEa.s 			page 2


  31:Notifications.c **** *
  32:Notifications.c **** *******************************************************************************/
  33:Notifications.c **** void LED_Notify_Stop(void)
  34:Notifications.c **** {
  28              		.loc 1 34 0
  29              		.cfi_startproc
  30              		@ args = 0, pretend = 0, frame = 0
  31              		@ frame_needed = 0, uses_anonymous_args = 0
  32 0000 08B5     		push	{r3, lr}
  33              		.cfi_def_cfa_offset 8
  34              		.cfi_offset 3, -8
  35              		.cfi_offset 14, -4
  35:Notifications.c ****     // If LED PWM is enabled
  36:Notifications.c ****     if (PWM_NOTIFY_ReadControlRegister() & PWM_NOTIFY_CTRL_ENABLE)
  36              		.loc 1 36 0
  37 0002 FFF7FEFF 		bl	PWM_NOTIFY_ReadControlRegister
  38              	.LVL0:
  39 0006 10F0800F 		tst	r0, #128
  40 000a 01D0     		beq	.L1
  37:Notifications.c ****     {
  38:Notifications.c ****         // Disable PWM
  39:Notifications.c ****         PWM_NOTIFY_Stop();
  41              		.loc 1 39 0
  42 000c FFF7FEFF 		bl	PWM_NOTIFY_Stop
  43              	.LVL1:
  44              	.L1:
  45 0010 08BD     		pop	{r3, pc}
  46              		.cfi_endproc
  47              	.LFE63:
  48              		.size	LED_Notify_Stop, .-LED_Notify_Stop
  49 0012 00BF     		.section	.text.LED_Notify_Start,"ax",%progbits
  50              		.align	2
  51              		.global	LED_Notify_Start
  52              		.thumb
  53              		.thumb_func
  54              		.type	LED_Notify_Start, %function
  55              	LED_Notify_Start:
  56              	.LFB64:
  40:Notifications.c ****     }
  41:Notifications.c **** }
  42:Notifications.c **** 
  43:Notifications.c **** 
  44:Notifications.c **** /*******************************************************************************
  45:Notifications.c **** * Function Name: LED_Notify_Start
  46:Notifications.c **** ********************************************************************************
  47:Notifications.c **** *
  48:Notifications.c **** * Summary:
  49:Notifications.c **** *   Notify visually when internal state is set to stop mode by turning PSoC 
  50:Notifications.c **** *   on-board LED on.
  51:Notifications.c **** *
  52:Notifications.c **** * Parameters:  
  53:Notifications.c **** *   None.
  54:Notifications.c **** *
  55:Notifications.c **** * Return:
  56:Notifications.c **** *   None.
  57:Notifications.c **** *
  58:Notifications.c **** *******************************************************************************/
ARM GAS  C:\Users\Lory\AppData\Local\Temp\ccDySLEa.s 			page 3


  59:Notifications.c **** void LED_Notify_Start(void)
  60:Notifications.c **** {
  57              		.loc 1 60 0
  58              		.cfi_startproc
  59              		@ args = 0, pretend = 0, frame = 0
  60              		@ frame_needed = 0, uses_anonymous_args = 0
  61 0000 08B5     		push	{r3, lr}
  62              		.cfi_def_cfa_offset 8
  63              		.cfi_offset 3, -8
  64              		.cfi_offset 14, -4
  61:Notifications.c ****     // If LED PWM is not enabled
  62:Notifications.c ****     if (!(PWM_NOTIFY_ReadControlRegister() & PWM_NOTIFY_CTRL_ENABLE))
  65              		.loc 1 62 0
  66 0002 FFF7FEFF 		bl	PWM_NOTIFY_ReadControlRegister
  67              	.LVL2:
  68 0006 10F0800F 		tst	r0, #128
  69 000a 01D1     		bne	.L5
  63:Notifications.c ****     {
  64:Notifications.c ****         // Enable PWM
  65:Notifications.c ****         PWM_NOTIFY_Start();
  70              		.loc 1 65 0
  71 000c FFF7FEFF 		bl	PWM_NOTIFY_Start
  72              	.LVL3:
  73              	.L5:
  66:Notifications.c ****     }
  67:Notifications.c ****     
  68:Notifications.c ****     // Change PWM compare value
  69:Notifications.c ****     PWM_NOTIFY_WriteCompare(255);
  74              		.loc 1 69 0
  75 0010 FF20     		movs	r0, #255
  76 0012 FFF7FEFF 		bl	PWM_NOTIFY_WriteCompare
  77              	.LVL4:
  78 0016 08BD     		pop	{r3, pc}
  79              		.cfi_endproc
  80              	.LFE64:
  81              		.size	LED_Notify_Start, .-LED_Notify_Start
  82              		.section	.text.LED_Notify_Config,"ax",%progbits
  83              		.align	2
  84              		.global	LED_Notify_Config
  85              		.thumb
  86              		.thumb_func
  87              		.type	LED_Notify_Config, %function
  88              	LED_Notify_Config:
  89              	.LFB65:
  70:Notifications.c **** }
  71:Notifications.c **** 
  72:Notifications.c **** 
  73:Notifications.c **** /*******************************************************************************
  74:Notifications.c **** * Function Name: LED_Notify_Config
  75:Notifications.c **** ********************************************************************************
  76:Notifications.c **** *
  77:Notifications.c **** * Summary:
  78:Notifications.c **** *   Notify visually when internal state is set to stop mode by making PSoC 
  79:Notifications.c **** *   on-board LED blink at 1Hz frequency.
  80:Notifications.c **** *
  81:Notifications.c **** * Parameters:  
  82:Notifications.c **** *   None.
ARM GAS  C:\Users\Lory\AppData\Local\Temp\ccDySLEa.s 			page 4


  83:Notifications.c **** *
  84:Notifications.c **** * Return:
  85:Notifications.c **** *   None.
  86:Notifications.c **** *
  87:Notifications.c **** *******************************************************************************/
  88:Notifications.c **** void LED_Notify_Config(void)
  89:Notifications.c **** {
  90              		.loc 1 89 0
  91              		.cfi_startproc
  92              		@ args = 0, pretend = 0, frame = 0
  93              		@ frame_needed = 0, uses_anonymous_args = 0
  94 0000 08B5     		push	{r3, lr}
  95              		.cfi_def_cfa_offset 8
  96              		.cfi_offset 3, -8
  97              		.cfi_offset 14, -4
  90:Notifications.c ****     // If LED PWM is not enabled
  91:Notifications.c ****     if (!(PWM_NOTIFY_ReadControlRegister() & PWM_NOTIFY_CTRL_ENABLE))
  98              		.loc 1 91 0
  99 0002 FFF7FEFF 		bl	PWM_NOTIFY_ReadControlRegister
 100              	.LVL5:
 101 0006 10F0800F 		tst	r0, #128
 102 000a 01D1     		bne	.L8
  92:Notifications.c ****     {
  93:Notifications.c ****         // Enable PWM
  94:Notifications.c ****         PWM_NOTIFY_Start();
 103              		.loc 1 94 0
 104 000c FFF7FEFF 		bl	PWM_NOTIFY_Start
 105              	.LVL6:
 106              	.L8:
  95:Notifications.c ****     }
  96:Notifications.c ****     
  97:Notifications.c ****     // Change PWM compare value
  98:Notifications.c ****     PWM_NOTIFY_WriteCompare(127);
 107              		.loc 1 98 0
 108 0010 7F20     		movs	r0, #127
 109 0012 FFF7FEFF 		bl	PWM_NOTIFY_WriteCompare
 110              	.LVL7:
 111 0016 08BD     		pop	{r3, pc}
 112              		.cfi_endproc
 113              	.LFE65:
 114              		.size	LED_Notify_Config, .-LED_Notify_Config
 115              		.section	.text.POT_Read_Value,"ax",%progbits
 116              		.align	2
 117              		.global	POT_Read_Value
 118              		.thumb
 119              		.thumb_func
 120              		.type	POT_Read_Value, %function
 121              	POT_Read_Value:
 122              	.LFB66:
  99:Notifications.c **** }
 100:Notifications.c **** 
 101:Notifications.c **** 
 102:Notifications.c **** /*******************************************************************************
 103:Notifications.c **** * Function Name: POT_Read_Value
 104:Notifications.c **** ********************************************************************************
 105:Notifications.c **** *
 106:Notifications.c **** * Summary:
ARM GAS  C:\Users\Lory\AppData\Local\Temp\ccDySLEa.s 			page 5


 107:Notifications.c **** *   Read user input potentiometer value from ADC delta sigma and process it to 
 108:Notifications.c **** *   be either 1 or 0 according to the folliwing potentiomenter range mapping:
 109:Notifications.c **** *   +--------------------------+
 110:Notifications.c **** *   | 0%->24%   :            0 |
 111:Notifications.c **** *   | 25%->50%  : don't change |
 112:Notifications.c **** *   | 51%->100% :            1 |
 113:Notifications.c **** *   +--------------------------+
 114:Notifications.c **** *
 115:Notifications.c **** * Parameters:  
 116:Notifications.c **** *   Previous flag value.
 117:Notifications.c **** *
 118:Notifications.c **** * Return:
 119:Notifications.c **** *   New flag value.
 120:Notifications.c **** *
 121:Notifications.c **** *******************************************************************************/
 122:Notifications.c **** uint8_t POT_Read_Value(uint8_t oldFlag)
 123:Notifications.c **** {
 123              		.loc 1 123 0
 124              		.cfi_startproc
 125              		@ args = 0, pretend = 0, frame = 0
 126              		@ frame_needed = 0, uses_anonymous_args = 0
 127              	.LVL8:
 128 0000 38B5     		push	{r3, r4, r5, lr}
 129              		.cfi_def_cfa_offset 16
 130              		.cfi_offset 3, -16
 131              		.cfi_offset 4, -12
 132              		.cfi_offset 5, -8
 133              		.cfi_offset 14, -4
 134 0002 0546     		mov	r5, r0
 124:Notifications.c ****     // Start and wait for ADC conversion
 125:Notifications.c ****     ADC_DELSIG_StartConvert();
 135              		.loc 1 125 0
 136 0004 FFF7FEFF 		bl	ADC_DELSIG_StartConvert
 137              	.LVL9:
 126:Notifications.c ****     ADC_DELSIG_IsEndConversion(ADC_DELSIG_WAIT_FOR_RESULT);
 138              		.loc 1 126 0
 139 0008 0020     		movs	r0, #0
 140 000a FFF7FEFF 		bl	ADC_DELSIG_IsEndConversion
 141              	.LVL10:
 127:Notifications.c ****     
 128:Notifications.c ****     // Read and stop ADC conversion
 129:Notifications.c ****     int16_t raw = ADC_DELSIG_Read16();
 142              		.loc 1 129 0
 143 000e FFF7FEFF 		bl	ADC_DELSIG_Read16
 144              	.LVL11:
 145 0012 0446     		mov	r4, r0
 146              	.LVL12:
 130:Notifications.c ****     ADC_DELSIG_StopConvert();
 147              		.loc 1 130 0
 148 0014 FFF7FEFF 		bl	ADC_DELSIG_StopConvert
 149              	.LVL13:
 131:Notifications.c ****     
 132:Notifications.c ****     // Clip outside range values
 133:Notifications.c ****     if (raw > 255) raw = 255;
 150              		.loc 1 133 0
 151 0018 FF2C     		cmp	r4, #255
 152 001a 02DC     		bgt	.L13
ARM GAS  C:\Users\Lory\AppData\Local\Temp\ccDySLEa.s 			page 6


 134:Notifications.c ****     else if (raw < 0) raw = 0;
 153              		.loc 1 134 0
 154 001c 002C     		cmp	r4, #0
 155 001e 03DA     		bge	.L11
 156 0020 01E0     		b	.L14
 157              	.L13:
 133:Notifications.c ****     else if (raw < 0) raw = 0;
 158              		.loc 1 133 0
 159 0022 FF24     		movs	r4, #255
 160              	.LVL14:
 161 0024 00E0     		b	.L11
 162              	.LVL15:
 163              	.L14:
 164              		.loc 1 134 0
 165 0026 0024     		movs	r4, #0
 166              	.LVL16:
 167              	.L11:
 135:Notifications.c ****     
 136:Notifications.c ****     // Convert to unsigned 8-bit integer
 137:Notifications.c ****     uint8_t pot_val = (uint8_t)(raw & 0xFF);
 168              		.loc 1 137 0
 169 0028 E4B2     		uxtb	r4, r4
 170              	.LVL17:
 138:Notifications.c ****     
 139:Notifications.c ****     // Set flag based on read value
 140:Notifications.c ****     uint8_t flag;
 141:Notifications.c ****     if (pot_val < (POT_MID_RANGE - POT_DEAD_BAND))
 171              		.loc 1 141 0
 172 002a 3F2C     		cmp	r4, #63
 173 002c 03D9     		bls	.L15
 142:Notifications.c ****     {
 143:Notifications.c ****         flag = 0;
 144:Notifications.c ****     }
 145:Notifications.c ****     else if (pot_val > (POT_MID_RANGE + POT_DEAD_BAND))
 174              		.loc 1 145 0
 175 002e BE2C     		cmp	r4, #190
 176 0030 02D9     		bls	.L12
 146:Notifications.c ****     {
 147:Notifications.c ****         flag = 1;
 177              		.loc 1 147 0
 178 0032 0125     		movs	r5, #1
 179 0034 00E0     		b	.L12
 180              	.L15:
 143:Notifications.c ****     }
 181              		.loc 1 143 0
 182 0036 0025     		movs	r5, #0
 183              	.L12:
 184              	.LVL18:
 148:Notifications.c ****     }
 149:Notifications.c ****     else
 150:Notifications.c ****     {
 151:Notifications.c ****         flag = oldFlag;
 152:Notifications.c ****     }
 153:Notifications.c ****     
 154:Notifications.c ****     // Return new flag
 155:Notifications.c ****     return flag;
 156:Notifications.c **** }
ARM GAS  C:\Users\Lory\AppData\Local\Temp\ccDySLEa.s 			page 7


 185              		.loc 1 156 0
 186 0038 2846     		mov	r0, r5
 187 003a 38BD     		pop	{r3, r4, r5, pc}
 188              		.cfi_endproc
 189              	.LFE66:
 190              		.size	POT_Read_Value, .-POT_Read_Value
 191              		.text
 192              	.Letext0:
 193              		.file 2 "c:\\program files (x86)\\cypress\\psoc creator\\4.3\\psoc creator\\import\\gnu\\arm\\5.4.
 194              		.file 3 "c:\\program files (x86)\\cypress\\psoc creator\\4.3\\psoc creator\\import\\gnu\\arm\\5.4.
 195              		.file 4 "Generated_Source\\PSoC5/cytypes.h"
 196              		.file 5 "Generated_Source\\PSoC5/PWM_NOTIFY.h"
 197              		.file 6 "Generated_Source\\PSoC5/ADC_DELSIG.h"
 198              		.file 7 "Generated_Source\\PSoC5/core_cm3.h"