ARM GAS  C:\Users\Lory\AppData\Local\Temp\cc8AO6lV.s 			page 1


   1              		.syntax unified
   2              		.cpu cortex-m3
   3              		.fpu softvfp
   4              		.eabi_attribute 20, 1
   5              		.eabi_attribute 21, 1
   6              		.eabi_attribute 23, 3
   7              		.eabi_attribute 24, 1
   8              		.eabi_attribute 25, 1
   9              		.eabi_attribute 26, 1
  10              		.eabi_attribute 30, 1
  11              		.eabi_attribute 34, 1
  12              		.eabi_attribute 18, 4
  13              		.thumb
  14              		.syntax unified
  15              		.file	"SPI_Interface.c"
  16              		.text
  17              	.Ltext0:
  18              		.cfi_sections	.debug_frame
  19              		.section	.text.SPI_Interface_tradeByte,"ax",%progbits
  20              		.align	2
  21              		.global	SPI_Interface_tradeByte
  22              		.thumb
  23              		.thumb_func
  24              		.type	SPI_Interface_tradeByte, %function
  25              	SPI_Interface_tradeByte:
  26              	.LFB0:
  27              		.file 1 "SPI_Interface.c"
   1:SPI_Interface.c **** /**
   2:SPI_Interface.c ****  * @file SPI_Interface.c
   3:SPI_Interface.c ****  * @brief Functions required to interface with the SPI MASTER (SPIM).
   4:SPI_Interface.c ****  * 
   5:SPI_Interface.c ****  * This source code file contains macros and functions to interface
   6:SPI_Interface.c ****  * with the SPI Master (SPIM) of the PSoC.
   7:SPI_Interface.c ****  *
   8:SPI_Interface.c ****  * @author Mattia Pesenti
   9:SPI_Interface.c ****  * @date April 9, 2020
  10:SPI_Interface.c **** */
  11:SPI_Interface.c **** 
  12:SPI_Interface.c **** /*											 
  13:SPI_Interface.c ****  * NOTE: in the .h Lib of the SPI Slave     		   *
  14:SPI_Interface.c ****  *       you need to define SLAVE_CS_Write  		   *
  15:SPI_Interface.c ****  *       with the name of the Chip Select    		   * 
  16:SPI_Interface.c ****  *       pin (as defined in the Top Design)  		   *
  17:SPI_Interface.c ****  * E.g.: #define SLAVE_CS_Write CS_1_Write (default)   *
  18:SPI_Interface.c **** */
  19:SPI_Interface.c **** 
  20:SPI_Interface.c **** #include "SPI_Interface.h"
  21:SPI_Interface.c **** 
  22:SPI_Interface.c **** #ifndef SLAVE_CS_Write
  23:SPI_Interface.c ****     #define SLAVE_CS_Write CS_Write
  24:SPI_Interface.c **** #endif
  25:SPI_Interface.c **** 
  26:SPI_Interface.c **** /*
  27:SPI_Interface.c **** * @brief Full-Duplex, Single-Operation 1-Byte Trade
  28:SPI_Interface.c **** */
  29:SPI_Interface.c **** uint8_t SPI_Interface_tradeByte(uint8_t byte) {
  28              		.loc 1 29 0
ARM GAS  C:\Users\Lory\AppData\Local\Temp\cc8AO6lV.s 			page 2


  29              		.cfi_startproc
  30              		@ args = 0, pretend = 0, frame = 0
  31              		@ frame_needed = 0, uses_anonymous_args = 0
  32              	.LVL0:
  33 0000 10B5     		push	{r4, lr}
  34              		.cfi_def_cfa_offset 8
  35              		.cfi_offset 4, -8
  36              		.cfi_offset 14, -4
  37 0002 0446     		mov	r4, r0
  30:SPI_Interface.c **** 	
  31:SPI_Interface.c **** 	/* Enable the Slave */
  32:SPI_Interface.c **** 	SLAVE_CS_Write(0);
  38              		.loc 1 32 0
  39 0004 0020     		movs	r0, #0
  40              	.LVL1:
  41 0006 FFF7FEFF 		bl	CS_Write
  42              	.LVL2:
  33:SPI_Interface.c **** 	
  34:SPI_Interface.c **** 	/* Load the TX Buffer */
  35:SPI_Interface.c **** 	SPIM_WriteTxData(byte);
  43              		.loc 1 35 0
  44 000a 2046     		mov	r0, r4
  45 000c FFF7FEFF 		bl	SPIM_WriteTxData
  46              	.LVL3:
  47              	.L2:
  36:SPI_Interface.c **** 	
  37:SPI_Interface.c **** 	/* Wait for TX */
  38:SPI_Interface.c ****     while( !(SPIM_ReadTxStatus() & SPIM_STS_BYTE_COMPLETE) );
  48              		.loc 1 38 0 discriminator 1
  49 0010 FFF7FEFF 		bl	SPIM_ReadTxStatus
  50              	.LVL4:
  51 0014 10F0080F 		tst	r0, #8
  52 0018 FAD0     		beq	.L2
  39:SPI_Interface.c **** 
  40:SPI_Interface.c **** 	/* Read the RX Buffer */
  41:SPI_Interface.c **** 	uint8_t data = SPIM_ReadRxData();
  53              		.loc 1 41 0
  54 001a FFF7FEFF 		bl	SPIM_ReadRxData
  55              	.LVL5:
  56 001e 0446     		mov	r4, r0
  57              	.LVL6:
  42:SPI_Interface.c **** 	
  43:SPI_Interface.c **** 	/* Disable the Slave */
  44:SPI_Interface.c **** 	SLAVE_CS_Write(1);
  58              		.loc 1 44 0
  59 0020 0120     		movs	r0, #1
  60 0022 FFF7FEFF 		bl	CS_Write
  61              	.LVL7:
  45:SPI_Interface.c **** 	
  46:SPI_Interface.c **** 	return data;
  47:SPI_Interface.c ****     
  48:SPI_Interface.c **** }
  62              		.loc 1 48 0
  63 0026 2046     		mov	r0, r4
  64 0028 10BD     		pop	{r4, pc}
  65              		.cfi_endproc
  66              	.LFE0:
ARM GAS  C:\Users\Lory\AppData\Local\Temp\cc8AO6lV.s 			page 3


  67              		.size	SPI_Interface_tradeByte, .-SPI_Interface_tradeByte
  68              		.section	.text.SPI_Interface_ReadByte,"ax",%progbits
  69              		.align	2
  70              		.global	SPI_Interface_ReadByte
  71              		.thumb
  72              		.thumb_func
  73              		.type	SPI_Interface_ReadByte, %function
  74              	SPI_Interface_ReadByte:
  75              	.LFB1:
  49:SPI_Interface.c **** 
  50:SPI_Interface.c **** 
  51:SPI_Interface.c **** /*
  52:SPI_Interface.c **** * @brief RX-only, Dual-Operation 1-Byte READ
  53:SPI_Interface.c **** */
  54:SPI_Interface.c **** uint8_t SPI_Interface_ReadByte(uint8_t byteTX) {
  76              		.loc 1 54 0
  77              		.cfi_startproc
  78              		@ args = 0, pretend = 0, frame = 0
  79              		@ frame_needed = 0, uses_anonymous_args = 0
  80              	.LVL8:
  81 0000 10B5     		push	{r4, lr}
  82              		.cfi_def_cfa_offset 8
  83              		.cfi_offset 4, -8
  84              		.cfi_offset 14, -4
  85 0002 0446     		mov	r4, r0
  55:SPI_Interface.c ****     /* Enable the Slave */
  56:SPI_Interface.c ****     SLAVE_CS_Write(0);
  86              		.loc 1 56 0
  87 0004 0020     		movs	r0, #0
  88              	.LVL9:
  89 0006 FFF7FEFF 		bl	CS_Write
  90              	.LVL10:
  57:SPI_Interface.c ****     	
  58:SPI_Interface.c ****     /* Load the TX Buffer */
  59:SPI_Interface.c ****     SPIM_WriteTxData(byteTX);
  91              		.loc 1 59 0
  92 000a 2046     		mov	r0, r4
  93 000c FFF7FEFF 		bl	SPIM_WriteTxData
  94              	.LVL11:
  60:SPI_Interface.c ****     	
  61:SPI_Interface.c ****     /* SPI Dummy Byte */
  62:SPI_Interface.c ****     SPIM_WriteTxData(SPI_DUMMY_BYTE);
  95              		.loc 1 62 0
  96 0010 0020     		movs	r0, #0
  97 0012 FFF7FEFF 		bl	SPIM_WriteTxData
  98              	.LVL12:
  99              	.L5:
  63:SPI_Interface.c ****     	
  64:SPI_Interface.c ****     /* Wait for TX/RX */
  65:SPI_Interface.c ****     while(!(SPIM_ReadTxStatus() & SPIM_STS_SPI_DONE));
 100              		.loc 1 65 0 discriminator 1
 101 0016 FFF7FEFF 		bl	SPIM_ReadTxStatus
 102              	.LVL13:
 103 001a 10F0010F 		tst	r0, #1
 104 001e FAD0     		beq	.L5
  66:SPI_Interface.c ****     	
  67:SPI_Interface.c ****     /* Read the RX Buffer */
ARM GAS  C:\Users\Lory\AppData\Local\Temp\cc8AO6lV.s 			page 4


  68:SPI_Interface.c ****     SPIM_ReadRxData();
 105              		.loc 1 68 0
 106 0020 FFF7FEFF 		bl	SPIM_ReadRxData
 107              	.LVL14:
  69:SPI_Interface.c ****     uint8_t byteRX = SPIM_ReadRxData();
 108              		.loc 1 69 0
 109 0024 FFF7FEFF 		bl	SPIM_ReadRxData
 110              	.LVL15:
 111 0028 0446     		mov	r4, r0
 112              	.LVL16:
  70:SPI_Interface.c ****     	
  71:SPI_Interface.c ****     /* Disable the Slave */
  72:SPI_Interface.c ****     SLAVE_CS_Write(1);
 113              		.loc 1 72 0
 114 002a 0120     		movs	r0, #1
 115 002c FFF7FEFF 		bl	CS_Write
 116              	.LVL17:
  73:SPI_Interface.c ****     	
  74:SPI_Interface.c ****     return byteRX;	
  75:SPI_Interface.c ****     		
  76:SPI_Interface.c **** 	
  77:SPI_Interface.c **** }
 117              		.loc 1 77 0
 118 0030 2046     		mov	r0, r4
 119 0032 10BD     		pop	{r4, pc}
 120              		.cfi_endproc
 121              	.LFE1:
 122              		.size	SPI_Interface_ReadByte, .-SPI_Interface_ReadByte
 123              		.section	.text.SPI_Interface_Multi_Trade,"ax",%progbits
 124              		.align	2
 125              		.global	SPI_Interface_Multi_Trade
 126              		.thumb
 127              		.thumb_func
 128              		.type	SPI_Interface_Multi_Trade, %function
 129              	SPI_Interface_Multi_Trade:
 130              	.LFB2:
  78:SPI_Interface.c **** 
  79:SPI_Interface.c **** 
  80:SPI_Interface.c **** /*
  81:SPI_Interface.c **** * @brief Full-Duplex, Multi-Byte Trade (RX/TX)
  82:SPI_Interface.c **** */
  83:SPI_Interface.c **** void SPI_Interface_Multi_Trade(uint8_t* dataTX, uint8_t* dataRX, uint8_t nBytes) {
 131              		.loc 1 83 0
 132              		.cfi_startproc
 133              		@ args = 0, pretend = 0, frame = 0
 134              		@ frame_needed = 0, uses_anonymous_args = 0
 135              		@ link register save eliminated.
 136              	.LVL18:
 137 0000 7047     		bx	lr
 138              		.cfi_endproc
 139              	.LFE2:
 140              		.size	SPI_Interface_Multi_Trade, .-SPI_Interface_Multi_Trade
 141 0002 00BF     		.section	.text.SPI_Interface_Multi_RW,"ax",%progbits
 142              		.align	2
 143              		.global	SPI_Interface_Multi_RW
 144              		.thumb
 145              		.thumb_func
ARM GAS  C:\Users\Lory\AppData\Local\Temp\cc8AO6lV.s 			page 5


 146              		.type	SPI_Interface_Multi_RW, %function
 147              	SPI_Interface_Multi_RW:
 148              	.LFB3:
  84:SPI_Interface.c **** 	
  85:SPI_Interface.c ****     
  86:SPI_Interface.c **** 	
  87:SPI_Interface.c **** }
  88:SPI_Interface.c **** 
  89:SPI_Interface.c **** /*
  90:SPI_Interface.c **** * @brief RX-only, Dual-Operation Multi-Byte READ/WRITE
  91:SPI_Interface.c **** */
  92:SPI_Interface.c **** void SPI_Interface_Multi_RW(uint8_t* dataTX, uint8_t bytesTX, uint8_t* dataRX, uint8_t bytesRX) {
 149              		.loc 1 92 0
 150              		.cfi_startproc
 151              		@ args = 0, pretend = 0, frame = 8
 152              		@ frame_needed = 0, uses_anonymous_args = 0
 153              	.LVL19:
 154              		.loc 1 92 0
 155 0000 2DE9F043 		push	{r4, r5, r6, r7, r8, r9, lr}
 156              		.cfi_def_cfa_offset 28
 157              		.cfi_offset 4, -28
 158              		.cfi_offset 5, -24
 159              		.cfi_offset 6, -20
 160              		.cfi_offset 7, -16
 161              		.cfi_offset 8, -12
 162              		.cfi_offset 9, -8
 163              		.cfi_offset 14, -4
 164 0004 83B0     		sub	sp, sp, #12
 165              		.cfi_def_cfa_offset 40
 166 0006 0646     		mov	r6, r0
 167 0008 0C46     		mov	r4, r1
 168 000a 1746     		mov	r7, r2
 169 000c 9846     		mov	r8, r3
  93:SPI_Interface.c ****     /* Enable the Slave */
  94:SPI_Interface.c ****     SLAVE_CS_Write(0);
 170              		.loc 1 94 0
 171 000e 0020     		movs	r0, #0
 172              	.LVL20:
 173 0010 FFF7FEFF 		bl	CS_Write
 174              	.LVL21:
  95:SPI_Interface.c ****         
  96:SPI_Interface.c ****     int8_t count = bytesTX, index = 0;
 175              		.loc 1 96 0
 176 0014 64B2     		sxtb	r4, r4
 177              	.LVL22:
 178 0016 0025     		movs	r5, #0
  97:SPI_Interface.c ****     	
  98:SPI_Interface.c ****     /* Transmit Data */
  99:SPI_Interface.c ****     while ( count > 0 ) {
 179              		.loc 1 99 0
 180 0018 11E0     		b	.L9
 181              	.LVL23:
 182              	.L11:
 100:SPI_Interface.c ****             
 101:SPI_Interface.c ****     	/* Load the TX buffer with Data*/
 102:SPI_Interface.c ****             SPIM_PutArray(&dataTX[index*SPI_TxBufferSize], (count > SPI_TxBufferSize ? SPI_TxBuffer
 183              		.loc 1 102 0
ARM GAS  C:\Users\Lory\AppData\Local\Temp\cc8AO6lV.s 			page 6


 184 001a 2146     		mov	r1, r4
 185 001c 082C     		cmp	r4, #8
 186 001e A8BF     		it	ge
 187 0020 0821     		movge	r1, #8
 188 0022 C9B2     		uxtb	r1, r1
 189 0024 06EBC500 		add	r0, r6, r5, lsl #3
 190 0028 FFF7FEFF 		bl	SPIM_PutArray
 191              	.LVL24:
 192              	.L10:
 103:SPI_Interface.c ****             /* Wait for TX */
 104:SPI_Interface.c ****             while( !(SPIM_ReadTxStatus() & SPIM_STS_SPI_DONE) );
 193              		.loc 1 104 0 discriminator 1
 194 002c FFF7FEFF 		bl	SPIM_ReadTxStatus
 195              	.LVL25:
 196 0030 10F0010F 		tst	r0, #1
 197 0034 FAD0     		beq	.L10
 105:SPI_Interface.c ****             
 106:SPI_Interface.c ****             /* Update count */
 107:SPI_Interface.c ****             count -= SPI_TxBufferSize;
 198              		.loc 1 107 0
 199 0036 083C     		subs	r4, r4, #8
 200              	.LVL26:
 201 0038 64B2     		sxtb	r4, r4
 202              	.LVL27:
 108:SPI_Interface.c ****             index++;
 203              		.loc 1 108 0
 204 003a 0135     		adds	r5, r5, #1
 205              	.LVL28:
 206 003c 6DB2     		sxtb	r5, r5
 207              	.LVL29:
 208              	.L9:
  99:SPI_Interface.c ****             
 209              		.loc 1 99 0
 210 003e 002C     		cmp	r4, #0
 211 0040 EBDC     		bgt	.L11
 109:SPI_Interface.c ****            
 110:SPI_Interface.c ****     }
 111:SPI_Interface.c ****         
 112:SPI_Interface.c ****     /* Clear the RX Buffer */
 113:SPI_Interface.c ****     SPIM_ClearFIFO();
 212              		.loc 1 113 0
 213 0042 FFF7FEFF 		bl	SPIM_ClearFIFO
 214              	.LVL30:
 114:SPI_Interface.c ****     SPIM_ClearRxBuffer();
 215              		.loc 1 114 0
 216 0046 FFF7FEFF 		bl	SPIM_ClearRxBuffer
 217              	.LVL31:
 115:SPI_Interface.c ****         
 116:SPI_Interface.c ****     /* Init the Dummy TX Buffer */
 117:SPI_Interface.c ****     uint8_t dummyTX[SPI_RxBufferSize];
 118:SPI_Interface.c ****     memset(dummyTX, SPI_DUMMY_BYTE, SPI_RxBufferSize);
 218              		.loc 1 118 0
 219 004a 0026     		movs	r6, #0
 220              	.LVL32:
 221 004c 0096     		str	r6, [sp]
 222 004e 0196     		str	r6, [sp, #4]
 119:SPI_Interface.c ****         
ARM GAS  C:\Users\Lory\AppData\Local\Temp\cc8AO6lV.s 			page 7


 120:SPI_Interface.c ****     /* Update count for RX */
 121:SPI_Interface.c ****     count = bytesRX;
 223              		.loc 1 121 0
 224 0050 4FFA88F8 		sxtb	r8, r8
 225              	.LVL33:
 122:SPI_Interface.c ****     index = 0;
 123:SPI_Interface.c ****         
 124:SPI_Interface.c ****     /* Get the RX Data */
 125:SPI_Interface.c ****     while ( count > 0 ) {
 226              		.loc 1 125 0
 227 0054 20E0     		b	.L12
 228              	.LVL34:
 229              	.L16:
 126:SPI_Interface.c ****          
 127:SPI_Interface.c ****             /* Load the TX buffer with Dummy Bytes*/
 128:SPI_Interface.c ****             SPIM_PutArray(dummyTX, (count > SPI_TxBufferSize ? SPI_TxBufferSize : count));
 230              		.loc 1 128 0
 231 0056 C146     		mov	r9, r8
 232 0058 B8F1080F 		cmp	r8, #8
 233 005c A8BF     		it	ge
 234 005e 4FF00809 		movge	r9, #8
 235 0062 5FFA89F1 		uxtb	r1, r9
 236 0066 6846     		mov	r0, sp
 237 0068 FFF7FEFF 		bl	SPIM_PutArray
 238              	.LVL35:
 239              	.L13:
 129:SPI_Interface.c ****             /* Wait for TX */
 130:SPI_Interface.c ****             while( !(SPIM_ReadTxStatus() & SPIM_STS_SPI_DONE) );
 240              		.loc 1 130 0 discriminator 1
 241 006c FFF7FEFF 		bl	SPIM_ReadTxStatus
 242              	.LVL36:
 243 0070 10F0010F 		tst	r0, #1
 244 0074 FAD0     		beq	.L13
 245 0076 0024     		movs	r4, #0
 246 0078 06E0     		b	.L14
 247              	.LVL37:
 248              	.L15:
 249              	.LBB2:
 131:SPI_Interface.c ****             /* Read the RX Buffer */
 132:SPI_Interface.c ****             for( uint8_t j = 0; j < (count > SPI_TxBufferSize ? SPI_TxBufferSize : count); j++ ) {
 133:SPI_Interface.c ****                 dataRX[j + index*SPI_RxBufferSize] = SPIM_ReadRxData();   
 250              		.loc 1 133 0 discriminator 3
 251 007a 04EBC605 		add	r5, r4, r6, lsl #3
 252 007e FFF7FEFF 		bl	SPIM_ReadRxData
 253              	.LVL38:
 254 0082 7855     		strb	r0, [r7, r5]
 132:SPI_Interface.c ****                 dataRX[j + index*SPI_RxBufferSize] = SPIM_ReadRxData();   
 255              		.loc 1 132 0 discriminator 3
 256 0084 0134     		adds	r4, r4, #1
 257              	.LVL39:
 258 0086 E4B2     		uxtb	r4, r4
 259              	.LVL40:
 260              	.L14:
 132:SPI_Interface.c ****                 dataRX[j + index*SPI_RxBufferSize] = SPIM_ReadRxData();   
 261              		.loc 1 132 0 is_stmt 0 discriminator 1
 262 0088 4C45     		cmp	r4, r9
 263 008a F6DB     		blt	.L15
ARM GAS  C:\Users\Lory\AppData\Local\Temp\cc8AO6lV.s 			page 8


 264              	.LBE2:
 134:SPI_Interface.c ****             }
 135:SPI_Interface.c ****             
 136:SPI_Interface.c ****             count -= SPI_RxBufferSize;
 265              		.loc 1 136 0 is_stmt 1
 266 008c A8F10808 		sub	r8, r8, #8
 267              	.LVL41:
 268 0090 4FFA88F8 		sxtb	r8, r8
 269              	.LVL42:
 137:SPI_Interface.c ****             index++;
 270              		.loc 1 137 0
 271 0094 0136     		adds	r6, r6, #1
 272              	.LVL43:
 273 0096 76B2     		sxtb	r6, r6
 274              	.LVL44:
 275              	.L12:
 125:SPI_Interface.c ****          
 276              		.loc 1 125 0
 277 0098 B8F1000F 		cmp	r8, #0
 278 009c DBDC     		bgt	.L16
 138:SPI_Interface.c ****             
 139:SPI_Interface.c ****     }
 140:SPI_Interface.c ****         
 141:SPI_Interface.c ****     /* Disable the Slave */
 142:SPI_Interface.c ****     SLAVE_CS_Write(1);
 279              		.loc 1 142 0
 280 009e 0120     		movs	r0, #1
 281 00a0 FFF7FEFF 		bl	CS_Write
 282              	.LVL45:
 143:SPI_Interface.c ****     	
 144:SPI_Interface.c ****     /* Clear */
 145:SPI_Interface.c ****     SPIM_ClearFIFO();
 283              		.loc 1 145 0
 284 00a4 FFF7FEFF 		bl	SPIM_ClearFIFO
 285              	.LVL46:
 146:SPI_Interface.c ****     SPIM_ClearRxBuffer();
 286              		.loc 1 146 0
 287 00a8 FFF7FEFF 		bl	SPIM_ClearRxBuffer
 288              	.LVL47:
 147:SPI_Interface.c ****     SPIM_ClearTxBuffer();
 289              		.loc 1 147 0
 290 00ac FFF7FEFF 		bl	SPIM_ClearTxBuffer
 291              	.LVL48:
 148:SPI_Interface.c ****     	
 149:SPI_Interface.c **** 	
 150:SPI_Interface.c **** 
 151:SPI_Interface.c **** }
 292              		.loc 1 151 0
 293 00b0 03B0     		add	sp, sp, #12
 294              		.cfi_def_cfa_offset 28
 295              		@ sp needed
 296 00b2 BDE8F083 		pop	{r4, r5, r6, r7, r8, r9, pc}
 297              		.cfi_endproc
 298              	.LFE3:
 299              		.size	SPI_Interface_Multi_RW, .-SPI_Interface_Multi_RW
 300 00b6 00BF     		.text
 301              	.Letext0:
ARM GAS  C:\Users\Lory\AppData\Local\Temp\cc8AO6lV.s 			page 9


 302              		.file 2 "c:\\program files (x86)\\cypress\\psoc creator\\4.3\\psoc creator\\import\\gnu\\arm\\5.4.
 303              		.file 3 "c:\\program files (x86)\\cypress\\psoc creator\\4.3\\psoc creator\\import\\gnu\\arm\\5.4.
 304              		.file 4 "Generated_Source\\PSoC5/cytypes.h"
 305              		.file 5 "Generated_Source\\PSoC5/CS.h"
 306              		.file 6 "Generated_Source\\PSoC5/SPIM.h"