ARM GAS  C:\Users\Manu\AppData\Local\Temp\cci7KmTz.s 			page 1


   1              		.syntax unified
   2              		.cpu cortex-m3
   3              		.fpu softvfp
   4              		.eabi_attribute 20, 1
   5              		.eabi_attribute 21, 1
   6              		.eabi_attribute 23, 3
   7              		.eabi_attribute 24, 1
   8              		.eabi_attribute 25, 1
   9              		.eabi_attribute 26, 1
  10              		.eabi_attribute 30, 1
  11              		.eabi_attribute 34, 1
  12              		.eabi_attribute 18, 4
  13              		.thumb
  14              		.syntax unified
  15              		.file	"SPIM_EEPROM.c"
  16              		.text
  17              	.Ltext0:
  18              		.cfi_sections	.debug_frame
  19              		.section	.text.SPIM_EEPROM_EnableTxInt,"ax",%progbits
  20              		.align	2
  21              		.global	SPIM_EEPROM_EnableTxInt
  22              		.thumb
  23              		.thumb_func
  24              		.type	SPIM_EEPROM_EnableTxInt, %function
  25              	SPIM_EEPROM_EnableTxInt:
  26              	.LFB4:
  27              		.file 1 "Generated_Source\\PSoC5\\SPIM_EEPROM.c"
   1:Generated_Source\PSoC5/SPIM_EEPROM.c **** /*******************************************************************************
   2:Generated_Source\PSoC5/SPIM_EEPROM.c **** * File Name: SPIM_EEPROM.c
   3:Generated_Source\PSoC5/SPIM_EEPROM.c **** * Version 2.50
   4:Generated_Source\PSoC5/SPIM_EEPROM.c **** *
   5:Generated_Source\PSoC5/SPIM_EEPROM.c **** * Description:
   6:Generated_Source\PSoC5/SPIM_EEPROM.c **** *  This file provides all API functionality of the SPI Master component.
   7:Generated_Source\PSoC5/SPIM_EEPROM.c **** *
   8:Generated_Source\PSoC5/SPIM_EEPROM.c **** * Note:
   9:Generated_Source\PSoC5/SPIM_EEPROM.c **** *  None.
  10:Generated_Source\PSoC5/SPIM_EEPROM.c **** *
  11:Generated_Source\PSoC5/SPIM_EEPROM.c **** ********************************************************************************
  12:Generated_Source\PSoC5/SPIM_EEPROM.c **** * Copyright 2008-2015, Cypress Semiconductor Corporation.  All rights reserved.
  13:Generated_Source\PSoC5/SPIM_EEPROM.c **** * You may use this file only in accordance with the license, terms, conditions,
  14:Generated_Source\PSoC5/SPIM_EEPROM.c **** * disclaimers, and limitations in the end user license agreement accompanying
  15:Generated_Source\PSoC5/SPIM_EEPROM.c **** * the software package with which this file was provided.
  16:Generated_Source\PSoC5/SPIM_EEPROM.c **** *******************************************************************************/
  17:Generated_Source\PSoC5/SPIM_EEPROM.c **** 
  18:Generated_Source\PSoC5/SPIM_EEPROM.c **** #include "SPIM_EEPROM_PVT.h"
  19:Generated_Source\PSoC5/SPIM_EEPROM.c **** 
  20:Generated_Source\PSoC5/SPIM_EEPROM.c **** #if(SPIM_EEPROM_TX_SOFTWARE_BUF_ENABLED)
  21:Generated_Source\PSoC5/SPIM_EEPROM.c ****     volatile uint8 SPIM_EEPROM_txBuffer[SPIM_EEPROM_TX_BUFFER_SIZE];
  22:Generated_Source\PSoC5/SPIM_EEPROM.c ****     volatile uint8 SPIM_EEPROM_txBufferFull;
  23:Generated_Source\PSoC5/SPIM_EEPROM.c ****     volatile uint8 SPIM_EEPROM_txBufferRead;
  24:Generated_Source\PSoC5/SPIM_EEPROM.c ****     volatile uint8 SPIM_EEPROM_txBufferWrite;
  25:Generated_Source\PSoC5/SPIM_EEPROM.c **** #endif /* (SPIM_EEPROM_TX_SOFTWARE_BUF_ENABLED) */
  26:Generated_Source\PSoC5/SPIM_EEPROM.c **** 
  27:Generated_Source\PSoC5/SPIM_EEPROM.c **** #if(SPIM_EEPROM_RX_SOFTWARE_BUF_ENABLED)
  28:Generated_Source\PSoC5/SPIM_EEPROM.c ****     volatile uint8 SPIM_EEPROM_rxBuffer[SPIM_EEPROM_RX_BUFFER_SIZE];
  29:Generated_Source\PSoC5/SPIM_EEPROM.c ****     volatile uint8 SPIM_EEPROM_rxBufferFull;
  30:Generated_Source\PSoC5/SPIM_EEPROM.c ****     volatile uint8 SPIM_EEPROM_rxBufferRead;
ARM GAS  C:\Users\Manu\AppData\Local\Temp\cci7KmTz.s 			page 2


  31:Generated_Source\PSoC5/SPIM_EEPROM.c ****     volatile uint8 SPIM_EEPROM_rxBufferWrite;
  32:Generated_Source\PSoC5/SPIM_EEPROM.c **** #endif /* (SPIM_EEPROM_RX_SOFTWARE_BUF_ENABLED) */
  33:Generated_Source\PSoC5/SPIM_EEPROM.c **** 
  34:Generated_Source\PSoC5/SPIM_EEPROM.c **** uint8 SPIM_EEPROM_initVar = 0u;
  35:Generated_Source\PSoC5/SPIM_EEPROM.c **** 
  36:Generated_Source\PSoC5/SPIM_EEPROM.c **** volatile uint8 SPIM_EEPROM_swStatusTx;
  37:Generated_Source\PSoC5/SPIM_EEPROM.c **** volatile uint8 SPIM_EEPROM_swStatusRx;
  38:Generated_Source\PSoC5/SPIM_EEPROM.c **** 
  39:Generated_Source\PSoC5/SPIM_EEPROM.c **** 
  40:Generated_Source\PSoC5/SPIM_EEPROM.c **** /*******************************************************************************
  41:Generated_Source\PSoC5/SPIM_EEPROM.c **** * Function Name: SPIM_EEPROM_Init
  42:Generated_Source\PSoC5/SPIM_EEPROM.c **** ********************************************************************************
  43:Generated_Source\PSoC5/SPIM_EEPROM.c **** *
  44:Generated_Source\PSoC5/SPIM_EEPROM.c **** * Summary:
  45:Generated_Source\PSoC5/SPIM_EEPROM.c **** *  Inits/Restores default SPIM configuration provided with customizer.
  46:Generated_Source\PSoC5/SPIM_EEPROM.c **** *
  47:Generated_Source\PSoC5/SPIM_EEPROM.c **** * Parameters:
  48:Generated_Source\PSoC5/SPIM_EEPROM.c **** *  None.
  49:Generated_Source\PSoC5/SPIM_EEPROM.c **** *
  50:Generated_Source\PSoC5/SPIM_EEPROM.c **** * Return:
  51:Generated_Source\PSoC5/SPIM_EEPROM.c **** *  None.
  52:Generated_Source\PSoC5/SPIM_EEPROM.c **** *
  53:Generated_Source\PSoC5/SPIM_EEPROM.c **** * Side Effects:
  54:Generated_Source\PSoC5/SPIM_EEPROM.c **** *  When this function is called it initializes all of the necessary parameters
  55:Generated_Source\PSoC5/SPIM_EEPROM.c **** *  for execution. i.e. setting the initial interrupt mask, configuring the
  56:Generated_Source\PSoC5/SPIM_EEPROM.c **** *  interrupt service routine, configuring the bit-counter parameters and
  57:Generated_Source\PSoC5/SPIM_EEPROM.c **** *  clearing the FIFO and Status Register.
  58:Generated_Source\PSoC5/SPIM_EEPROM.c **** *
  59:Generated_Source\PSoC5/SPIM_EEPROM.c **** * Reentrant:
  60:Generated_Source\PSoC5/SPIM_EEPROM.c **** *  No.
  61:Generated_Source\PSoC5/SPIM_EEPROM.c **** *
  62:Generated_Source\PSoC5/SPIM_EEPROM.c **** *******************************************************************************/
  63:Generated_Source\PSoC5/SPIM_EEPROM.c **** void SPIM_EEPROM_Init(void) 
  64:Generated_Source\PSoC5/SPIM_EEPROM.c **** {
  65:Generated_Source\PSoC5/SPIM_EEPROM.c ****     /* Initialize the Bit counter */
  66:Generated_Source\PSoC5/SPIM_EEPROM.c ****     SPIM_EEPROM_COUNTER_PERIOD_REG = SPIM_EEPROM_BITCTR_INIT;
  67:Generated_Source\PSoC5/SPIM_EEPROM.c **** 
  68:Generated_Source\PSoC5/SPIM_EEPROM.c ****     /* Init TX ISR  */
  69:Generated_Source\PSoC5/SPIM_EEPROM.c ****     #if(0u != SPIM_EEPROM_INTERNAL_TX_INT_ENABLED)
  70:Generated_Source\PSoC5/SPIM_EEPROM.c ****         CyIntDisable         (SPIM_EEPROM_TX_ISR_NUMBER);
  71:Generated_Source\PSoC5/SPIM_EEPROM.c ****         CyIntSetPriority     (SPIM_EEPROM_TX_ISR_NUMBER,  SPIM_EEPROM_TX_ISR_PRIORITY);
  72:Generated_Source\PSoC5/SPIM_EEPROM.c ****         (void) CyIntSetVector(SPIM_EEPROM_TX_ISR_NUMBER, &SPIM_EEPROM_TX_ISR);
  73:Generated_Source\PSoC5/SPIM_EEPROM.c ****     #endif /* (0u != SPIM_EEPROM_INTERNAL_TX_INT_ENABLED) */
  74:Generated_Source\PSoC5/SPIM_EEPROM.c **** 
  75:Generated_Source\PSoC5/SPIM_EEPROM.c ****     /* Init RX ISR  */
  76:Generated_Source\PSoC5/SPIM_EEPROM.c ****     #if(0u != SPIM_EEPROM_INTERNAL_RX_INT_ENABLED)
  77:Generated_Source\PSoC5/SPIM_EEPROM.c ****         CyIntDisable         (SPIM_EEPROM_RX_ISR_NUMBER);
  78:Generated_Source\PSoC5/SPIM_EEPROM.c ****         CyIntSetPriority     (SPIM_EEPROM_RX_ISR_NUMBER,  SPIM_EEPROM_RX_ISR_PRIORITY);
  79:Generated_Source\PSoC5/SPIM_EEPROM.c ****         (void) CyIntSetVector(SPIM_EEPROM_RX_ISR_NUMBER, &SPIM_EEPROM_RX_ISR);
  80:Generated_Source\PSoC5/SPIM_EEPROM.c ****     #endif /* (0u != SPIM_EEPROM_INTERNAL_RX_INT_ENABLED) */
  81:Generated_Source\PSoC5/SPIM_EEPROM.c **** 
  82:Generated_Source\PSoC5/SPIM_EEPROM.c ****     /* Clear any stray data from the RX and TX FIFO */
  83:Generated_Source\PSoC5/SPIM_EEPROM.c ****     SPIM_EEPROM_ClearFIFO();
  84:Generated_Source\PSoC5/SPIM_EEPROM.c **** 
  85:Generated_Source\PSoC5/SPIM_EEPROM.c ****     #if(SPIM_EEPROM_RX_SOFTWARE_BUF_ENABLED)
  86:Generated_Source\PSoC5/SPIM_EEPROM.c ****         SPIM_EEPROM_rxBufferFull  = 0u;
  87:Generated_Source\PSoC5/SPIM_EEPROM.c ****         SPIM_EEPROM_rxBufferRead  = 0u;
ARM GAS  C:\Users\Manu\AppData\Local\Temp\cci7KmTz.s 			page 3


  88:Generated_Source\PSoC5/SPIM_EEPROM.c ****         SPIM_EEPROM_rxBufferWrite = 0u;
  89:Generated_Source\PSoC5/SPIM_EEPROM.c ****     #endif /* (SPIM_EEPROM_RX_SOFTWARE_BUF_ENABLED) */
  90:Generated_Source\PSoC5/SPIM_EEPROM.c **** 
  91:Generated_Source\PSoC5/SPIM_EEPROM.c ****     #if(SPIM_EEPROM_TX_SOFTWARE_BUF_ENABLED)
  92:Generated_Source\PSoC5/SPIM_EEPROM.c ****         SPIM_EEPROM_txBufferFull  = 0u;
  93:Generated_Source\PSoC5/SPIM_EEPROM.c ****         SPIM_EEPROM_txBufferRead  = 0u;
  94:Generated_Source\PSoC5/SPIM_EEPROM.c ****         SPIM_EEPROM_txBufferWrite = 0u;
  95:Generated_Source\PSoC5/SPIM_EEPROM.c ****     #endif /* (SPIM_EEPROM_TX_SOFTWARE_BUF_ENABLED) */
  96:Generated_Source\PSoC5/SPIM_EEPROM.c **** 
  97:Generated_Source\PSoC5/SPIM_EEPROM.c ****     (void) SPIM_EEPROM_ReadTxStatus(); /* Clear Tx status and swStatusTx */
  98:Generated_Source\PSoC5/SPIM_EEPROM.c ****     (void) SPIM_EEPROM_ReadRxStatus(); /* Clear Rx status and swStatusRx */
  99:Generated_Source\PSoC5/SPIM_EEPROM.c **** 
 100:Generated_Source\PSoC5/SPIM_EEPROM.c ****     /* Configure TX and RX interrupt mask */
 101:Generated_Source\PSoC5/SPIM_EEPROM.c ****     SPIM_EEPROM_TX_STATUS_MASK_REG = SPIM_EEPROM_TX_INIT_INTERRUPTS_MASK;
 102:Generated_Source\PSoC5/SPIM_EEPROM.c ****     SPIM_EEPROM_RX_STATUS_MASK_REG = SPIM_EEPROM_RX_INIT_INTERRUPTS_MASK;
 103:Generated_Source\PSoC5/SPIM_EEPROM.c **** }
 104:Generated_Source\PSoC5/SPIM_EEPROM.c **** 
 105:Generated_Source\PSoC5/SPIM_EEPROM.c **** 
 106:Generated_Source\PSoC5/SPIM_EEPROM.c **** /*******************************************************************************
 107:Generated_Source\PSoC5/SPIM_EEPROM.c **** * Function Name: SPIM_EEPROM_Enable
 108:Generated_Source\PSoC5/SPIM_EEPROM.c **** ********************************************************************************
 109:Generated_Source\PSoC5/SPIM_EEPROM.c **** *
 110:Generated_Source\PSoC5/SPIM_EEPROM.c **** * Summary:
 111:Generated_Source\PSoC5/SPIM_EEPROM.c **** *  Enable SPIM component.
 112:Generated_Source\PSoC5/SPIM_EEPROM.c **** *
 113:Generated_Source\PSoC5/SPIM_EEPROM.c **** * Parameters:
 114:Generated_Source\PSoC5/SPIM_EEPROM.c **** *  None.
 115:Generated_Source\PSoC5/SPIM_EEPROM.c **** *
 116:Generated_Source\PSoC5/SPIM_EEPROM.c **** * Return:
 117:Generated_Source\PSoC5/SPIM_EEPROM.c **** *  None.
 118:Generated_Source\PSoC5/SPIM_EEPROM.c **** *
 119:Generated_Source\PSoC5/SPIM_EEPROM.c **** *******************************************************************************/
 120:Generated_Source\PSoC5/SPIM_EEPROM.c **** void SPIM_EEPROM_Enable(void) 
 121:Generated_Source\PSoC5/SPIM_EEPROM.c **** {
 122:Generated_Source\PSoC5/SPIM_EEPROM.c ****     uint8 enableInterrupts;
 123:Generated_Source\PSoC5/SPIM_EEPROM.c **** 
 124:Generated_Source\PSoC5/SPIM_EEPROM.c ****     enableInterrupts = CyEnterCriticalSection();
 125:Generated_Source\PSoC5/SPIM_EEPROM.c ****     SPIM_EEPROM_COUNTER_CONTROL_REG |= SPIM_EEPROM_CNTR_ENABLE;
 126:Generated_Source\PSoC5/SPIM_EEPROM.c ****     SPIM_EEPROM_TX_STATUS_ACTL_REG  |= SPIM_EEPROM_INT_ENABLE;
 127:Generated_Source\PSoC5/SPIM_EEPROM.c ****     SPIM_EEPROM_RX_STATUS_ACTL_REG  |= SPIM_EEPROM_INT_ENABLE;
 128:Generated_Source\PSoC5/SPIM_EEPROM.c ****     CyExitCriticalSection(enableInterrupts);
 129:Generated_Source\PSoC5/SPIM_EEPROM.c **** 
 130:Generated_Source\PSoC5/SPIM_EEPROM.c ****     #if(0u != SPIM_EEPROM_INTERNAL_CLOCK)
 131:Generated_Source\PSoC5/SPIM_EEPROM.c ****         SPIM_EEPROM_IntClock_Enable();
 132:Generated_Source\PSoC5/SPIM_EEPROM.c ****     #endif /* (0u != SPIM_EEPROM_INTERNAL_CLOCK) */
 133:Generated_Source\PSoC5/SPIM_EEPROM.c **** 
 134:Generated_Source\PSoC5/SPIM_EEPROM.c ****     SPIM_EEPROM_EnableTxInt();
 135:Generated_Source\PSoC5/SPIM_EEPROM.c ****     SPIM_EEPROM_EnableRxInt();
 136:Generated_Source\PSoC5/SPIM_EEPROM.c **** }
 137:Generated_Source\PSoC5/SPIM_EEPROM.c **** 
 138:Generated_Source\PSoC5/SPIM_EEPROM.c **** 
 139:Generated_Source\PSoC5/SPIM_EEPROM.c **** /*******************************************************************************
 140:Generated_Source\PSoC5/SPIM_EEPROM.c **** * Function Name: SPIM_EEPROM_Start
 141:Generated_Source\PSoC5/SPIM_EEPROM.c **** ********************************************************************************
 142:Generated_Source\PSoC5/SPIM_EEPROM.c **** *
 143:Generated_Source\PSoC5/SPIM_EEPROM.c **** * Summary:
 144:Generated_Source\PSoC5/SPIM_EEPROM.c **** *  Initialize and Enable the SPI Master component.
ARM GAS  C:\Users\Manu\AppData\Local\Temp\cci7KmTz.s 			page 4


 145:Generated_Source\PSoC5/SPIM_EEPROM.c **** *
 146:Generated_Source\PSoC5/SPIM_EEPROM.c **** * Parameters:
 147:Generated_Source\PSoC5/SPIM_EEPROM.c **** *  None.
 148:Generated_Source\PSoC5/SPIM_EEPROM.c **** *
 149:Generated_Source\PSoC5/SPIM_EEPROM.c **** * Return:
 150:Generated_Source\PSoC5/SPIM_EEPROM.c **** *  None.
 151:Generated_Source\PSoC5/SPIM_EEPROM.c **** *
 152:Generated_Source\PSoC5/SPIM_EEPROM.c **** * Global variables:
 153:Generated_Source\PSoC5/SPIM_EEPROM.c **** *  SPIM_EEPROM_initVar - used to check initial configuration, modified on
 154:Generated_Source\PSoC5/SPIM_EEPROM.c **** *  first function call.
 155:Generated_Source\PSoC5/SPIM_EEPROM.c **** *
 156:Generated_Source\PSoC5/SPIM_EEPROM.c **** * Theory:
 157:Generated_Source\PSoC5/SPIM_EEPROM.c **** *  Enable the clock input to enable operation.
 158:Generated_Source\PSoC5/SPIM_EEPROM.c **** *
 159:Generated_Source\PSoC5/SPIM_EEPROM.c **** * Reentrant:
 160:Generated_Source\PSoC5/SPIM_EEPROM.c **** *  No.
 161:Generated_Source\PSoC5/SPIM_EEPROM.c **** *
 162:Generated_Source\PSoC5/SPIM_EEPROM.c **** *******************************************************************************/
 163:Generated_Source\PSoC5/SPIM_EEPROM.c **** void SPIM_EEPROM_Start(void) 
 164:Generated_Source\PSoC5/SPIM_EEPROM.c **** {
 165:Generated_Source\PSoC5/SPIM_EEPROM.c ****     if(0u == SPIM_EEPROM_initVar)
 166:Generated_Source\PSoC5/SPIM_EEPROM.c ****     {
 167:Generated_Source\PSoC5/SPIM_EEPROM.c ****         SPIM_EEPROM_Init();
 168:Generated_Source\PSoC5/SPIM_EEPROM.c ****         SPIM_EEPROM_initVar = 1u;
 169:Generated_Source\PSoC5/SPIM_EEPROM.c ****     }
 170:Generated_Source\PSoC5/SPIM_EEPROM.c **** 
 171:Generated_Source\PSoC5/SPIM_EEPROM.c ****     SPIM_EEPROM_Enable();
 172:Generated_Source\PSoC5/SPIM_EEPROM.c **** }
 173:Generated_Source\PSoC5/SPIM_EEPROM.c **** 
 174:Generated_Source\PSoC5/SPIM_EEPROM.c **** 
 175:Generated_Source\PSoC5/SPIM_EEPROM.c **** /*******************************************************************************
 176:Generated_Source\PSoC5/SPIM_EEPROM.c **** * Function Name: SPIM_EEPROM_Stop
 177:Generated_Source\PSoC5/SPIM_EEPROM.c **** ********************************************************************************
 178:Generated_Source\PSoC5/SPIM_EEPROM.c **** *
 179:Generated_Source\PSoC5/SPIM_EEPROM.c **** * Summary:
 180:Generated_Source\PSoC5/SPIM_EEPROM.c **** *  Disable the SPI Master component.
 181:Generated_Source\PSoC5/SPIM_EEPROM.c **** *
 182:Generated_Source\PSoC5/SPIM_EEPROM.c **** * Parameters:
 183:Generated_Source\PSoC5/SPIM_EEPROM.c **** *  None.
 184:Generated_Source\PSoC5/SPIM_EEPROM.c **** *
 185:Generated_Source\PSoC5/SPIM_EEPROM.c **** * Return:
 186:Generated_Source\PSoC5/SPIM_EEPROM.c **** *  None.
 187:Generated_Source\PSoC5/SPIM_EEPROM.c **** *
 188:Generated_Source\PSoC5/SPIM_EEPROM.c **** * Theory:
 189:Generated_Source\PSoC5/SPIM_EEPROM.c **** *  Disable the clock input to enable operation.
 190:Generated_Source\PSoC5/SPIM_EEPROM.c **** *
 191:Generated_Source\PSoC5/SPIM_EEPROM.c **** *******************************************************************************/
 192:Generated_Source\PSoC5/SPIM_EEPROM.c **** void SPIM_EEPROM_Stop(void) 
 193:Generated_Source\PSoC5/SPIM_EEPROM.c **** {
 194:Generated_Source\PSoC5/SPIM_EEPROM.c ****     uint8 enableInterrupts;
 195:Generated_Source\PSoC5/SPIM_EEPROM.c **** 
 196:Generated_Source\PSoC5/SPIM_EEPROM.c ****     enableInterrupts = CyEnterCriticalSection();
 197:Generated_Source\PSoC5/SPIM_EEPROM.c ****     SPIM_EEPROM_TX_STATUS_ACTL_REG &= ((uint8) ~SPIM_EEPROM_INT_ENABLE);
 198:Generated_Source\PSoC5/SPIM_EEPROM.c ****     SPIM_EEPROM_RX_STATUS_ACTL_REG &= ((uint8) ~SPIM_EEPROM_INT_ENABLE);
 199:Generated_Source\PSoC5/SPIM_EEPROM.c ****     CyExitCriticalSection(enableInterrupts);
 200:Generated_Source\PSoC5/SPIM_EEPROM.c **** 
 201:Generated_Source\PSoC5/SPIM_EEPROM.c ****     #if(0u != SPIM_EEPROM_INTERNAL_CLOCK)
ARM GAS  C:\Users\Manu\AppData\Local\Temp\cci7KmTz.s 			page 5


 202:Generated_Source\PSoC5/SPIM_EEPROM.c ****         SPIM_EEPROM_IntClock_Disable();
 203:Generated_Source\PSoC5/SPIM_EEPROM.c ****     #endif /* (0u != SPIM_EEPROM_INTERNAL_CLOCK) */
 204:Generated_Source\PSoC5/SPIM_EEPROM.c **** 
 205:Generated_Source\PSoC5/SPIM_EEPROM.c ****     SPIM_EEPROM_DisableTxInt();
 206:Generated_Source\PSoC5/SPIM_EEPROM.c ****     SPIM_EEPROM_DisableRxInt();
 207:Generated_Source\PSoC5/SPIM_EEPROM.c **** }
 208:Generated_Source\PSoC5/SPIM_EEPROM.c **** 
 209:Generated_Source\PSoC5/SPIM_EEPROM.c **** 
 210:Generated_Source\PSoC5/SPIM_EEPROM.c **** /*******************************************************************************
 211:Generated_Source\PSoC5/SPIM_EEPROM.c **** * Function Name: SPIM_EEPROM_EnableTxInt
 212:Generated_Source\PSoC5/SPIM_EEPROM.c **** ********************************************************************************
 213:Generated_Source\PSoC5/SPIM_EEPROM.c **** *
 214:Generated_Source\PSoC5/SPIM_EEPROM.c **** * Summary:
 215:Generated_Source\PSoC5/SPIM_EEPROM.c **** *  Enable internal Tx interrupt generation.
 216:Generated_Source\PSoC5/SPIM_EEPROM.c **** *
 217:Generated_Source\PSoC5/SPIM_EEPROM.c **** * Parameters:
 218:Generated_Source\PSoC5/SPIM_EEPROM.c **** *  None.
 219:Generated_Source\PSoC5/SPIM_EEPROM.c **** *
 220:Generated_Source\PSoC5/SPIM_EEPROM.c **** * Return:
 221:Generated_Source\PSoC5/SPIM_EEPROM.c **** *  None.
 222:Generated_Source\PSoC5/SPIM_EEPROM.c **** *
 223:Generated_Source\PSoC5/SPIM_EEPROM.c **** * Theory:
 224:Generated_Source\PSoC5/SPIM_EEPROM.c **** *  Enable the internal Tx interrupt output -or- the interrupt component itself.
 225:Generated_Source\PSoC5/SPIM_EEPROM.c **** *
 226:Generated_Source\PSoC5/SPIM_EEPROM.c **** *******************************************************************************/
 227:Generated_Source\PSoC5/SPIM_EEPROM.c **** void SPIM_EEPROM_EnableTxInt(void) 
 228:Generated_Source\PSoC5/SPIM_EEPROM.c **** {
  28              		.loc 1 228 0
  29              		.cfi_startproc
  30              		@ args = 0, pretend = 0, frame = 0
  31              		@ frame_needed = 0, uses_anonymous_args = 0
  32              		@ link register save eliminated.
 229:Generated_Source\PSoC5/SPIM_EEPROM.c ****     #if(0u != SPIM_EEPROM_INTERNAL_TX_INT_ENABLED)
 230:Generated_Source\PSoC5/SPIM_EEPROM.c ****         CyIntEnable(SPIM_EEPROM_TX_ISR_NUMBER);
  33              		.loc 1 230 0
  34 0000 1022     		movs	r2, #16
  35 0002 014B     		ldr	r3, .L2
  36 0004 1A60     		str	r2, [r3]
  37 0006 7047     		bx	lr
  38              	.L3:
  39              		.align	2
  40              	.L2:
  41 0008 00E100E0 		.word	-536813312
  42              		.cfi_endproc
  43              	.LFE4:
  44              		.size	SPIM_EEPROM_EnableTxInt, .-SPIM_EEPROM_EnableTxInt
  45              		.section	.text.SPIM_EEPROM_EnableRxInt,"ax",%progbits
  46              		.align	2
  47              		.global	SPIM_EEPROM_EnableRxInt
  48              		.thumb
  49              		.thumb_func
  50              		.type	SPIM_EEPROM_EnableRxInt, %function
  51              	SPIM_EEPROM_EnableRxInt:
  52              	.LFB5:
 231:Generated_Source\PSoC5/SPIM_EEPROM.c ****     #endif /* (0u != SPIM_EEPROM_INTERNAL_TX_INT_ENABLED) */
 232:Generated_Source\PSoC5/SPIM_EEPROM.c **** }
 233:Generated_Source\PSoC5/SPIM_EEPROM.c **** 
ARM GAS  C:\Users\Manu\AppData\Local\Temp\cci7KmTz.s 			page 6


 234:Generated_Source\PSoC5/SPIM_EEPROM.c **** 
 235:Generated_Source\PSoC5/SPIM_EEPROM.c **** /*******************************************************************************
 236:Generated_Source\PSoC5/SPIM_EEPROM.c **** * Function Name: SPIM_EEPROM_EnableRxInt
 237:Generated_Source\PSoC5/SPIM_EEPROM.c **** ********************************************************************************
 238:Generated_Source\PSoC5/SPIM_EEPROM.c **** *
 239:Generated_Source\PSoC5/SPIM_EEPROM.c **** * Summary:
 240:Generated_Source\PSoC5/SPIM_EEPROM.c **** *  Enable internal Rx interrupt generation.
 241:Generated_Source\PSoC5/SPIM_EEPROM.c **** *
 242:Generated_Source\PSoC5/SPIM_EEPROM.c **** * Parameters:
 243:Generated_Source\PSoC5/SPIM_EEPROM.c **** *  None.
 244:Generated_Source\PSoC5/SPIM_EEPROM.c **** *
 245:Generated_Source\PSoC5/SPIM_EEPROM.c **** * Return:
 246:Generated_Source\PSoC5/SPIM_EEPROM.c **** *  None.
 247:Generated_Source\PSoC5/SPIM_EEPROM.c **** *
 248:Generated_Source\PSoC5/SPIM_EEPROM.c **** * Theory:
 249:Generated_Source\PSoC5/SPIM_EEPROM.c **** *  Enable the internal Rx interrupt output -or- the interrupt component itself.
 250:Generated_Source\PSoC5/SPIM_EEPROM.c **** *
 251:Generated_Source\PSoC5/SPIM_EEPROM.c **** *******************************************************************************/
 252:Generated_Source\PSoC5/SPIM_EEPROM.c **** void SPIM_EEPROM_EnableRxInt(void) 
 253:Generated_Source\PSoC5/SPIM_EEPROM.c **** {
  53              		.loc 1 253 0
  54              		.cfi_startproc
  55              		@ args = 0, pretend = 0, frame = 0
  56              		@ frame_needed = 0, uses_anonymous_args = 0
  57              		@ link register save eliminated.
 254:Generated_Source\PSoC5/SPIM_EEPROM.c ****     #if(0u != SPIM_EEPROM_INTERNAL_RX_INT_ENABLED)
 255:Generated_Source\PSoC5/SPIM_EEPROM.c ****         CyIntEnable(SPIM_EEPROM_RX_ISR_NUMBER);
  58              		.loc 1 255 0
  59 0000 0822     		movs	r2, #8
  60 0002 014B     		ldr	r3, .L5
  61 0004 1A60     		str	r2, [r3]
  62 0006 7047     		bx	lr
  63              	.L6:
  64              		.align	2
  65              	.L5:
  66 0008 00E100E0 		.word	-536813312
  67              		.cfi_endproc
  68              	.LFE5:
  69              		.size	SPIM_EEPROM_EnableRxInt, .-SPIM_EEPROM_EnableRxInt
  70              		.section	.text.SPIM_EEPROM_Enable,"ax",%progbits
  71              		.align	2
  72              		.global	SPIM_EEPROM_Enable
  73              		.thumb
  74              		.thumb_func
  75              		.type	SPIM_EEPROM_Enable, %function
  76              	SPIM_EEPROM_Enable:
  77              	.LFB1:
 121:Generated_Source\PSoC5/SPIM_EEPROM.c ****     uint8 enableInterrupts;
  78              		.loc 1 121 0
  79              		.cfi_startproc
  80              		@ args = 0, pretend = 0, frame = 0
  81              		@ frame_needed = 0, uses_anonymous_args = 0
  82 0000 08B5     		push	{r3, lr}
  83              		.cfi_def_cfa_offset 8
  84              		.cfi_offset 3, -8
  85              		.cfi_offset 14, -4
 124:Generated_Source\PSoC5/SPIM_EEPROM.c ****     SPIM_EEPROM_COUNTER_CONTROL_REG |= SPIM_EEPROM_CNTR_ENABLE;
ARM GAS  C:\Users\Manu\AppData\Local\Temp\cci7KmTz.s 			page 7


  86              		.loc 1 124 0
  87 0002 FFF7FEFF 		bl	CyEnterCriticalSection
  88              	.LVL0:
 125:Generated_Source\PSoC5/SPIM_EEPROM.c ****     SPIM_EEPROM_TX_STATUS_ACTL_REG  |= SPIM_EEPROM_INT_ENABLE;
  89              		.loc 1 125 0
  90 0006 0C4A     		ldr	r2, .L9
  91 0008 1378     		ldrb	r3, [r2]	@ zero_extendqisi2
  92 000a 43F02003 		orr	r3, r3, #32
  93 000e 1370     		strb	r3, [r2]
 126:Generated_Source\PSoC5/SPIM_EEPROM.c ****     SPIM_EEPROM_RX_STATUS_ACTL_REG  |= SPIM_EEPROM_INT_ENABLE;
  94              		.loc 1 126 0
  95 0010 013A     		subs	r2, r2, #1
  96 0012 1378     		ldrb	r3, [r2]	@ zero_extendqisi2
  97 0014 43F01003 		orr	r3, r3, #16
  98 0018 1370     		strb	r3, [r2]
 127:Generated_Source\PSoC5/SPIM_EEPROM.c ****     CyExitCriticalSection(enableInterrupts);
  99              		.loc 1 127 0
 100 001a 023A     		subs	r2, r2, #2
 101 001c 1378     		ldrb	r3, [r2]	@ zero_extendqisi2
 102 001e 43F01003 		orr	r3, r3, #16
 103 0022 1370     		strb	r3, [r2]
 128:Generated_Source\PSoC5/SPIM_EEPROM.c **** 
 104              		.loc 1 128 0
 105 0024 FFF7FEFF 		bl	CyExitCriticalSection
 106              	.LVL1:
 131:Generated_Source\PSoC5/SPIM_EEPROM.c ****     #endif /* (0u != SPIM_EEPROM_INTERNAL_CLOCK) */
 107              		.loc 1 131 0
 108 0028 FFF7FEFF 		bl	SPIM_EEPROM_IntClock_Start
 109              	.LVL2:
 134:Generated_Source\PSoC5/SPIM_EEPROM.c ****     SPIM_EEPROM_EnableRxInt();
 110              		.loc 1 134 0
 111 002c FFF7FEFF 		bl	SPIM_EEPROM_EnableTxInt
 112              	.LVL3:
 135:Generated_Source\PSoC5/SPIM_EEPROM.c **** }
 113              		.loc 1 135 0
 114 0030 FFF7FEFF 		bl	SPIM_EEPROM_EnableRxInt
 115              	.LVL4:
 116 0034 08BD     		pop	{r3, pc}
 117              	.L10:
 118 0036 00BF     		.align	2
 119              	.L9:
 120 0038 93640040 		.word	1073767571
 121              		.cfi_endproc
 122              	.LFE1:
 123              		.size	SPIM_EEPROM_Enable, .-SPIM_EEPROM_Enable
 124              		.section	.text.SPIM_EEPROM_DisableTxInt,"ax",%progbits
 125              		.align	2
 126              		.global	SPIM_EEPROM_DisableTxInt
 127              		.thumb
 128              		.thumb_func
 129              		.type	SPIM_EEPROM_DisableTxInt, %function
 130              	SPIM_EEPROM_DisableTxInt:
 131              	.LFB6:
 256:Generated_Source\PSoC5/SPIM_EEPROM.c ****     #endif /* (0u != SPIM_EEPROM_INTERNAL_RX_INT_ENABLED) */
 257:Generated_Source\PSoC5/SPIM_EEPROM.c **** }
 258:Generated_Source\PSoC5/SPIM_EEPROM.c **** 
 259:Generated_Source\PSoC5/SPIM_EEPROM.c **** 
ARM GAS  C:\Users\Manu\AppData\Local\Temp\cci7KmTz.s 			page 8


 260:Generated_Source\PSoC5/SPIM_EEPROM.c **** /*******************************************************************************
 261:Generated_Source\PSoC5/SPIM_EEPROM.c **** * Function Name: SPIM_EEPROM_DisableTxInt
 262:Generated_Source\PSoC5/SPIM_EEPROM.c **** ********************************************************************************
 263:Generated_Source\PSoC5/SPIM_EEPROM.c **** *
 264:Generated_Source\PSoC5/SPIM_EEPROM.c **** * Summary:
 265:Generated_Source\PSoC5/SPIM_EEPROM.c **** *  Disable internal Tx interrupt generation.
 266:Generated_Source\PSoC5/SPIM_EEPROM.c **** *
 267:Generated_Source\PSoC5/SPIM_EEPROM.c **** * Parameters:
 268:Generated_Source\PSoC5/SPIM_EEPROM.c **** *  None.
 269:Generated_Source\PSoC5/SPIM_EEPROM.c **** *
 270:Generated_Source\PSoC5/SPIM_EEPROM.c **** * Return:
 271:Generated_Source\PSoC5/SPIM_EEPROM.c **** *  None.
 272:Generated_Source\PSoC5/SPIM_EEPROM.c **** *
 273:Generated_Source\PSoC5/SPIM_EEPROM.c **** * Theory:
 274:Generated_Source\PSoC5/SPIM_EEPROM.c **** *  Disable the internal Tx interrupt output -or- the interrupt component itself.
 275:Generated_Source\PSoC5/SPIM_EEPROM.c **** *
 276:Generated_Source\PSoC5/SPIM_EEPROM.c **** *******************************************************************************/
 277:Generated_Source\PSoC5/SPIM_EEPROM.c **** void SPIM_EEPROM_DisableTxInt(void) 
 278:Generated_Source\PSoC5/SPIM_EEPROM.c **** {
 132              		.loc 1 278 0
 133              		.cfi_startproc
 134              		@ args = 0, pretend = 0, frame = 0
 135              		@ frame_needed = 0, uses_anonymous_args = 0
 136              		@ link register save eliminated.
 279:Generated_Source\PSoC5/SPIM_EEPROM.c ****     #if(0u != SPIM_EEPROM_INTERNAL_TX_INT_ENABLED)
 280:Generated_Source\PSoC5/SPIM_EEPROM.c ****         CyIntDisable(SPIM_EEPROM_TX_ISR_NUMBER);
 137              		.loc 1 280 0
 138 0000 1022     		movs	r2, #16
 139 0002 014B     		ldr	r3, .L12
 140 0004 1A60     		str	r2, [r3]
 141 0006 7047     		bx	lr
 142              	.L13:
 143              		.align	2
 144              	.L12:
 145 0008 80E100E0 		.word	-536813184
 146              		.cfi_endproc
 147              	.LFE6:
 148              		.size	SPIM_EEPROM_DisableTxInt, .-SPIM_EEPROM_DisableTxInt
 149              		.section	.text.SPIM_EEPROM_DisableRxInt,"ax",%progbits
 150              		.align	2
 151              		.global	SPIM_EEPROM_DisableRxInt
 152              		.thumb
 153              		.thumb_func
 154              		.type	SPIM_EEPROM_DisableRxInt, %function
 155              	SPIM_EEPROM_DisableRxInt:
 156              	.LFB7:
 281:Generated_Source\PSoC5/SPIM_EEPROM.c ****     #endif /* (0u != SPIM_EEPROM_INTERNAL_TX_INT_ENABLED) */
 282:Generated_Source\PSoC5/SPIM_EEPROM.c **** }
 283:Generated_Source\PSoC5/SPIM_EEPROM.c **** 
 284:Generated_Source\PSoC5/SPIM_EEPROM.c **** 
 285:Generated_Source\PSoC5/SPIM_EEPROM.c **** /*******************************************************************************
 286:Generated_Source\PSoC5/SPIM_EEPROM.c **** * Function Name: SPIM_EEPROM_DisableRxInt
 287:Generated_Source\PSoC5/SPIM_EEPROM.c **** ********************************************************************************
 288:Generated_Source\PSoC5/SPIM_EEPROM.c **** *
 289:Generated_Source\PSoC5/SPIM_EEPROM.c **** * Summary:
 290:Generated_Source\PSoC5/SPIM_EEPROM.c **** *  Disable internal Rx interrupt generation.
 291:Generated_Source\PSoC5/SPIM_EEPROM.c **** *
ARM GAS  C:\Users\Manu\AppData\Local\Temp\cci7KmTz.s 			page 9


 292:Generated_Source\PSoC5/SPIM_EEPROM.c **** * Parameters:
 293:Generated_Source\PSoC5/SPIM_EEPROM.c **** *  None.
 294:Generated_Source\PSoC5/SPIM_EEPROM.c **** *
 295:Generated_Source\PSoC5/SPIM_EEPROM.c **** * Return:
 296:Generated_Source\PSoC5/SPIM_EEPROM.c **** *  None.
 297:Generated_Source\PSoC5/SPIM_EEPROM.c **** *
 298:Generated_Source\PSoC5/SPIM_EEPROM.c **** * Theory:
 299:Generated_Source\PSoC5/SPIM_EEPROM.c **** *  Disable the internal Rx interrupt output -or- the interrupt component itself.
 300:Generated_Source\PSoC5/SPIM_EEPROM.c **** *
 301:Generated_Source\PSoC5/SPIM_EEPROM.c **** *******************************************************************************/
 302:Generated_Source\PSoC5/SPIM_EEPROM.c **** void SPIM_EEPROM_DisableRxInt(void) 
 303:Generated_Source\PSoC5/SPIM_EEPROM.c **** {
 157              		.loc 1 303 0
 158              		.cfi_startproc
 159              		@ args = 0, pretend = 0, frame = 0
 160              		@ frame_needed = 0, uses_anonymous_args = 0
 161              		@ link register save eliminated.
 304:Generated_Source\PSoC5/SPIM_EEPROM.c ****     #if(0u != SPIM_EEPROM_INTERNAL_RX_INT_ENABLED)
 305:Generated_Source\PSoC5/SPIM_EEPROM.c ****         CyIntDisable(SPIM_EEPROM_RX_ISR_NUMBER);
 162              		.loc 1 305 0
 163 0000 0822     		movs	r2, #8
 164 0002 014B     		ldr	r3, .L15
 165 0004 1A60     		str	r2, [r3]
 166 0006 7047     		bx	lr
 167              	.L16:
 168              		.align	2
 169              	.L15:
 170 0008 80E100E0 		.word	-536813184
 171              		.cfi_endproc
 172              	.LFE7:
 173              		.size	SPIM_EEPROM_DisableRxInt, .-SPIM_EEPROM_DisableRxInt
 174              		.section	.text.SPIM_EEPROM_Stop,"ax",%progbits
 175              		.align	2
 176              		.global	SPIM_EEPROM_Stop
 177              		.thumb
 178              		.thumb_func
 179              		.type	SPIM_EEPROM_Stop, %function
 180              	SPIM_EEPROM_Stop:
 181              	.LFB3:
 193:Generated_Source\PSoC5/SPIM_EEPROM.c ****     uint8 enableInterrupts;
 182              		.loc 1 193 0
 183              		.cfi_startproc
 184              		@ args = 0, pretend = 0, frame = 0
 185              		@ frame_needed = 0, uses_anonymous_args = 0
 186 0000 08B5     		push	{r3, lr}
 187              		.cfi_def_cfa_offset 8
 188              		.cfi_offset 3, -8
 189              		.cfi_offset 14, -4
 196:Generated_Source\PSoC5/SPIM_EEPROM.c ****     SPIM_EEPROM_TX_STATUS_ACTL_REG &= ((uint8) ~SPIM_EEPROM_INT_ENABLE);
 190              		.loc 1 196 0
 191 0002 FFF7FEFF 		bl	CyEnterCriticalSection
 192              	.LVL5:
 197:Generated_Source\PSoC5/SPIM_EEPROM.c ****     SPIM_EEPROM_RX_STATUS_ACTL_REG &= ((uint8) ~SPIM_EEPROM_INT_ENABLE);
 193              		.loc 1 197 0
 194 0006 094A     		ldr	r2, .L19
 195 0008 1378     		ldrb	r3, [r2]	@ zero_extendqisi2
 196 000a 03F0EF03 		and	r3, r3, #239
ARM GAS  C:\Users\Manu\AppData\Local\Temp\cci7KmTz.s 			page 10


 197 000e 1370     		strb	r3, [r2]
 198:Generated_Source\PSoC5/SPIM_EEPROM.c ****     CyExitCriticalSection(enableInterrupts);
 198              		.loc 1 198 0
 199 0010 023A     		subs	r2, r2, #2
 200 0012 1378     		ldrb	r3, [r2]	@ zero_extendqisi2
 201 0014 03F0EF03 		and	r3, r3, #239
 202 0018 1370     		strb	r3, [r2]
 199:Generated_Source\PSoC5/SPIM_EEPROM.c **** 
 203              		.loc 1 199 0
 204 001a FFF7FEFF 		bl	CyExitCriticalSection
 205              	.LVL6:
 202:Generated_Source\PSoC5/SPIM_EEPROM.c ****     #endif /* (0u != SPIM_EEPROM_INTERNAL_CLOCK) */
 206              		.loc 1 202 0
 207 001e FFF7FEFF 		bl	SPIM_EEPROM_IntClock_Stop
 208              	.LVL7:
 205:Generated_Source\PSoC5/SPIM_EEPROM.c ****     SPIM_EEPROM_DisableRxInt();
 209              		.loc 1 205 0
 210 0022 FFF7FEFF 		bl	SPIM_EEPROM_DisableTxInt
 211              	.LVL8:
 206:Generated_Source\PSoC5/SPIM_EEPROM.c **** }
 212              		.loc 1 206 0
 213 0026 FFF7FEFF 		bl	SPIM_EEPROM_DisableRxInt
 214              	.LVL9:
 215 002a 08BD     		pop	{r3, pc}
 216              	.L20:
 217              		.align	2
 218              	.L19:
 219 002c 92640040 		.word	1073767570
 220              		.cfi_endproc
 221              	.LFE3:
 222              		.size	SPIM_EEPROM_Stop, .-SPIM_EEPROM_Stop
 223              		.section	.text.SPIM_EEPROM_SetTxInterruptMode,"ax",%progbits
 224              		.align	2
 225              		.global	SPIM_EEPROM_SetTxInterruptMode
 226              		.thumb
 227              		.thumb_func
 228              		.type	SPIM_EEPROM_SetTxInterruptMode, %function
 229              	SPIM_EEPROM_SetTxInterruptMode:
 230              	.LFB8:
 306:Generated_Source\PSoC5/SPIM_EEPROM.c ****     #endif /* (0u != SPIM_EEPROM_INTERNAL_RX_INT_ENABLED) */
 307:Generated_Source\PSoC5/SPIM_EEPROM.c **** }
 308:Generated_Source\PSoC5/SPIM_EEPROM.c **** 
 309:Generated_Source\PSoC5/SPIM_EEPROM.c **** 
 310:Generated_Source\PSoC5/SPIM_EEPROM.c **** /*******************************************************************************
 311:Generated_Source\PSoC5/SPIM_EEPROM.c **** * Function Name: SPIM_EEPROM_SetTxInterruptMode
 312:Generated_Source\PSoC5/SPIM_EEPROM.c **** ********************************************************************************
 313:Generated_Source\PSoC5/SPIM_EEPROM.c **** *
 314:Generated_Source\PSoC5/SPIM_EEPROM.c **** * Summary:
 315:Generated_Source\PSoC5/SPIM_EEPROM.c **** *  Configure which status bits trigger an interrupt event.
 316:Generated_Source\PSoC5/SPIM_EEPROM.c **** *
 317:Generated_Source\PSoC5/SPIM_EEPROM.c **** * Parameters:
 318:Generated_Source\PSoC5/SPIM_EEPROM.c **** *  intSrc: An or'd combination of the desired status bit masks (defined in the
 319:Generated_Source\PSoC5/SPIM_EEPROM.c **** *  header file).
 320:Generated_Source\PSoC5/SPIM_EEPROM.c **** *
 321:Generated_Source\PSoC5/SPIM_EEPROM.c **** * Return:
 322:Generated_Source\PSoC5/SPIM_EEPROM.c **** *  None.
 323:Generated_Source\PSoC5/SPIM_EEPROM.c **** *
ARM GAS  C:\Users\Manu\AppData\Local\Temp\cci7KmTz.s 			page 11


 324:Generated_Source\PSoC5/SPIM_EEPROM.c **** * Theory:
 325:Generated_Source\PSoC5/SPIM_EEPROM.c **** *  Enables the output of specific status bits to the interrupt controller.
 326:Generated_Source\PSoC5/SPIM_EEPROM.c **** *
 327:Generated_Source\PSoC5/SPIM_EEPROM.c **** *******************************************************************************/
 328:Generated_Source\PSoC5/SPIM_EEPROM.c **** void SPIM_EEPROM_SetTxInterruptMode(uint8 intSrc) 
 329:Generated_Source\PSoC5/SPIM_EEPROM.c **** {
 231              		.loc 1 329 0
 232              		.cfi_startproc
 233              		@ args = 0, pretend = 0, frame = 0
 234              		@ frame_needed = 0, uses_anonymous_args = 0
 235              		@ link register save eliminated.
 236              	.LVL10:
 330:Generated_Source\PSoC5/SPIM_EEPROM.c ****     SPIM_EEPROM_TX_STATUS_MASK_REG = intSrc;
 237              		.loc 1 330 0
 238 0000 014B     		ldr	r3, .L22
 239 0002 1870     		strb	r0, [r3]
 240 0004 7047     		bx	lr
 241              	.L23:
 242 0006 00BF     		.align	2
 243              	.L22:
 244 0008 82640040 		.word	1073767554
 245              		.cfi_endproc
 246              	.LFE8:
 247              		.size	SPIM_EEPROM_SetTxInterruptMode, .-SPIM_EEPROM_SetTxInterruptMode
 248              		.section	.text.SPIM_EEPROM_SetRxInterruptMode,"ax",%progbits
 249              		.align	2
 250              		.global	SPIM_EEPROM_SetRxInterruptMode
 251              		.thumb
 252              		.thumb_func
 253              		.type	SPIM_EEPROM_SetRxInterruptMode, %function
 254              	SPIM_EEPROM_SetRxInterruptMode:
 255              	.LFB9:
 331:Generated_Source\PSoC5/SPIM_EEPROM.c **** }
 332:Generated_Source\PSoC5/SPIM_EEPROM.c **** 
 333:Generated_Source\PSoC5/SPIM_EEPROM.c **** 
 334:Generated_Source\PSoC5/SPIM_EEPROM.c **** /*******************************************************************************
 335:Generated_Source\PSoC5/SPIM_EEPROM.c **** * Function Name: SPIM_EEPROM_SetRxInterruptMode
 336:Generated_Source\PSoC5/SPIM_EEPROM.c **** ********************************************************************************
 337:Generated_Source\PSoC5/SPIM_EEPROM.c **** *
 338:Generated_Source\PSoC5/SPIM_EEPROM.c **** * Summary:
 339:Generated_Source\PSoC5/SPIM_EEPROM.c **** *  Configure which status bits trigger an interrupt event.
 340:Generated_Source\PSoC5/SPIM_EEPROM.c **** *
 341:Generated_Source\PSoC5/SPIM_EEPROM.c **** * Parameters:
 342:Generated_Source\PSoC5/SPIM_EEPROM.c **** *  intSrc: An or'd combination of the desired status bit masks (defined in the
 343:Generated_Source\PSoC5/SPIM_EEPROM.c **** *  header file).
 344:Generated_Source\PSoC5/SPIM_EEPROM.c **** *
 345:Generated_Source\PSoC5/SPIM_EEPROM.c **** * Return:
 346:Generated_Source\PSoC5/SPIM_EEPROM.c **** *  None.
 347:Generated_Source\PSoC5/SPIM_EEPROM.c **** *
 348:Generated_Source\PSoC5/SPIM_EEPROM.c **** * Theory:
 349:Generated_Source\PSoC5/SPIM_EEPROM.c **** *  Enables the output of specific status bits to the interrupt controller.
 350:Generated_Source\PSoC5/SPIM_EEPROM.c **** *
 351:Generated_Source\PSoC5/SPIM_EEPROM.c **** *******************************************************************************/
 352:Generated_Source\PSoC5/SPIM_EEPROM.c **** void SPIM_EEPROM_SetRxInterruptMode(uint8 intSrc) 
 353:Generated_Source\PSoC5/SPIM_EEPROM.c **** {
 256              		.loc 1 353 0
 257              		.cfi_startproc
ARM GAS  C:\Users\Manu\AppData\Local\Temp\cci7KmTz.s 			page 12


 258              		@ args = 0, pretend = 0, frame = 0
 259              		@ frame_needed = 0, uses_anonymous_args = 0
 260              		@ link register save eliminated.
 261              	.LVL11:
 354:Generated_Source\PSoC5/SPIM_EEPROM.c ****     SPIM_EEPROM_RX_STATUS_MASK_REG  = intSrc;
 262              		.loc 1 354 0
 263 0000 014B     		ldr	r3, .L25
 264 0002 1870     		strb	r0, [r3]
 265 0004 7047     		bx	lr
 266              	.L26:
 267 0006 00BF     		.align	2
 268              	.L25:
 269 0008 80640040 		.word	1073767552
 270              		.cfi_endproc
 271              	.LFE9:
 272              		.size	SPIM_EEPROM_SetRxInterruptMode, .-SPIM_EEPROM_SetRxInterruptMode
 273              		.section	.text.SPIM_EEPROM_ReadTxStatus,"ax",%progbits
 274              		.align	2
 275              		.global	SPIM_EEPROM_ReadTxStatus
 276              		.thumb
 277              		.thumb_func
 278              		.type	SPIM_EEPROM_ReadTxStatus, %function
 279              	SPIM_EEPROM_ReadTxStatus:
 280              	.LFB10:
 355:Generated_Source\PSoC5/SPIM_EEPROM.c **** }
 356:Generated_Source\PSoC5/SPIM_EEPROM.c **** 
 357:Generated_Source\PSoC5/SPIM_EEPROM.c **** 
 358:Generated_Source\PSoC5/SPIM_EEPROM.c **** /*******************************************************************************
 359:Generated_Source\PSoC5/SPIM_EEPROM.c **** * Function Name: SPIM_EEPROM_ReadTxStatus
 360:Generated_Source\PSoC5/SPIM_EEPROM.c **** ********************************************************************************
 361:Generated_Source\PSoC5/SPIM_EEPROM.c **** *
 362:Generated_Source\PSoC5/SPIM_EEPROM.c **** * Summary:
 363:Generated_Source\PSoC5/SPIM_EEPROM.c **** *  Read the Tx status register for the component.
 364:Generated_Source\PSoC5/SPIM_EEPROM.c **** *
 365:Generated_Source\PSoC5/SPIM_EEPROM.c **** * Parameters:
 366:Generated_Source\PSoC5/SPIM_EEPROM.c **** *  None.
 367:Generated_Source\PSoC5/SPIM_EEPROM.c **** *
 368:Generated_Source\PSoC5/SPIM_EEPROM.c **** * Return:
 369:Generated_Source\PSoC5/SPIM_EEPROM.c **** *  Contents of the Tx status register.
 370:Generated_Source\PSoC5/SPIM_EEPROM.c **** *
 371:Generated_Source\PSoC5/SPIM_EEPROM.c **** * Global variables:
 372:Generated_Source\PSoC5/SPIM_EEPROM.c **** *  SPIM_EEPROM_swStatusTx - used to store in software status register,
 373:Generated_Source\PSoC5/SPIM_EEPROM.c **** *  modified every function call - resets to zero.
 374:Generated_Source\PSoC5/SPIM_EEPROM.c **** *
 375:Generated_Source\PSoC5/SPIM_EEPROM.c **** * Theory:
 376:Generated_Source\PSoC5/SPIM_EEPROM.c **** *  Allows the user and the API to read the Tx status register for error
 377:Generated_Source\PSoC5/SPIM_EEPROM.c **** *  detection and flow control.
 378:Generated_Source\PSoC5/SPIM_EEPROM.c **** *
 379:Generated_Source\PSoC5/SPIM_EEPROM.c **** * Side Effects:
 380:Generated_Source\PSoC5/SPIM_EEPROM.c **** *  Clear Tx status register of the component.
 381:Generated_Source\PSoC5/SPIM_EEPROM.c **** *
 382:Generated_Source\PSoC5/SPIM_EEPROM.c **** * Reentrant:
 383:Generated_Source\PSoC5/SPIM_EEPROM.c **** *  No.
 384:Generated_Source\PSoC5/SPIM_EEPROM.c **** *
 385:Generated_Source\PSoC5/SPIM_EEPROM.c **** *******************************************************************************/
 386:Generated_Source\PSoC5/SPIM_EEPROM.c **** uint8 SPIM_EEPROM_ReadTxStatus(void) 
 387:Generated_Source\PSoC5/SPIM_EEPROM.c **** {
ARM GAS  C:\Users\Manu\AppData\Local\Temp\cci7KmTz.s 			page 13


 281              		.loc 1 387 0
 282              		.cfi_startproc
 283              		@ args = 0, pretend = 0, frame = 0
 284              		@ frame_needed = 0, uses_anonymous_args = 0
 285 0000 10B5     		push	{r4, lr}
 286              		.cfi_def_cfa_offset 8
 287              		.cfi_offset 4, -8
 288              		.cfi_offset 14, -4
 388:Generated_Source\PSoC5/SPIM_EEPROM.c ****     uint8 tmpStatus;
 389:Generated_Source\PSoC5/SPIM_EEPROM.c **** 
 390:Generated_Source\PSoC5/SPIM_EEPROM.c ****     #if(SPIM_EEPROM_TX_SOFTWARE_BUF_ENABLED)
 391:Generated_Source\PSoC5/SPIM_EEPROM.c ****         /* Disable TX interrupt to protect global veriables */
 392:Generated_Source\PSoC5/SPIM_EEPROM.c ****         SPIM_EEPROM_DisableTxInt();
 289              		.loc 1 392 0
 290 0002 FFF7FEFF 		bl	SPIM_EEPROM_DisableTxInt
 291              	.LVL12:
 393:Generated_Source\PSoC5/SPIM_EEPROM.c **** 
 394:Generated_Source\PSoC5/SPIM_EEPROM.c ****         tmpStatus = SPIM_EEPROM_GET_STATUS_TX(SPIM_EEPROM_swStatusTx);
 292              		.loc 1 394 0
 293 0006 064B     		ldr	r3, .L29
 294 0008 1C78     		ldrb	r4, [r3]	@ zero_extendqisi2
 295 000a 064A     		ldr	r2, .L29+4
 296 000c 1378     		ldrb	r3, [r2]	@ zero_extendqisi2
 297 000e 03F00903 		and	r3, r3, #9
 298 0012 1C43     		orrs	r4, r4, r3
 299              	.LVL13:
 395:Generated_Source\PSoC5/SPIM_EEPROM.c ****         SPIM_EEPROM_swStatusTx = 0u;
 300              		.loc 1 395 0
 301 0014 0023     		movs	r3, #0
 302 0016 1370     		strb	r3, [r2]
 396:Generated_Source\PSoC5/SPIM_EEPROM.c **** 
 397:Generated_Source\PSoC5/SPIM_EEPROM.c ****         SPIM_EEPROM_EnableTxInt();
 303              		.loc 1 397 0
 304 0018 FFF7FEFF 		bl	SPIM_EEPROM_EnableTxInt
 305              	.LVL14:
 398:Generated_Source\PSoC5/SPIM_EEPROM.c **** 
 399:Generated_Source\PSoC5/SPIM_EEPROM.c ****     #else
 400:Generated_Source\PSoC5/SPIM_EEPROM.c **** 
 401:Generated_Source\PSoC5/SPIM_EEPROM.c ****         tmpStatus = SPIM_EEPROM_TX_STATUS_REG;
 402:Generated_Source\PSoC5/SPIM_EEPROM.c **** 
 403:Generated_Source\PSoC5/SPIM_EEPROM.c ****     #endif /* (SPIM_EEPROM_TX_SOFTWARE_BUF_ENABLED) */
 404:Generated_Source\PSoC5/SPIM_EEPROM.c **** 
 405:Generated_Source\PSoC5/SPIM_EEPROM.c ****     return(tmpStatus);
 406:Generated_Source\PSoC5/SPIM_EEPROM.c **** }
 306              		.loc 1 406 0
 307 001c 2046     		mov	r0, r4
 308 001e 10BD     		pop	{r4, pc}
 309              	.LVL15:
 310              	.L30:
 311              		.align	2
 312              	.L29:
 313 0020 62640040 		.word	1073767522
 314 0024 00000000 		.word	SPIM_EEPROM_swStatusTx
 315              		.cfi_endproc
 316              	.LFE10:
 317              		.size	SPIM_EEPROM_ReadTxStatus, .-SPIM_EEPROM_ReadTxStatus
 318              		.section	.text.SPIM_EEPROM_ReadRxStatus,"ax",%progbits
ARM GAS  C:\Users\Manu\AppData\Local\Temp\cci7KmTz.s 			page 14


 319              		.align	2
 320              		.global	SPIM_EEPROM_ReadRxStatus
 321              		.thumb
 322              		.thumb_func
 323              		.type	SPIM_EEPROM_ReadRxStatus, %function
 324              	SPIM_EEPROM_ReadRxStatus:
 325              	.LFB11:
 407:Generated_Source\PSoC5/SPIM_EEPROM.c **** 
 408:Generated_Source\PSoC5/SPIM_EEPROM.c **** 
 409:Generated_Source\PSoC5/SPIM_EEPROM.c **** /*******************************************************************************
 410:Generated_Source\PSoC5/SPIM_EEPROM.c **** * Function Name: SPIM_EEPROM_ReadRxStatus
 411:Generated_Source\PSoC5/SPIM_EEPROM.c **** ********************************************************************************
 412:Generated_Source\PSoC5/SPIM_EEPROM.c **** *
 413:Generated_Source\PSoC5/SPIM_EEPROM.c **** * Summary:
 414:Generated_Source\PSoC5/SPIM_EEPROM.c **** *  Read the Rx status register for the component.
 415:Generated_Source\PSoC5/SPIM_EEPROM.c **** *
 416:Generated_Source\PSoC5/SPIM_EEPROM.c **** * Parameters:
 417:Generated_Source\PSoC5/SPIM_EEPROM.c **** *  None.
 418:Generated_Source\PSoC5/SPIM_EEPROM.c **** *
 419:Generated_Source\PSoC5/SPIM_EEPROM.c **** * Return:
 420:Generated_Source\PSoC5/SPIM_EEPROM.c **** *  Contents of the Rx status register.
 421:Generated_Source\PSoC5/SPIM_EEPROM.c **** *
 422:Generated_Source\PSoC5/SPIM_EEPROM.c **** * Global variables:
 423:Generated_Source\PSoC5/SPIM_EEPROM.c **** *  SPIM_EEPROM_swStatusRx - used to store in software Rx status register,
 424:Generated_Source\PSoC5/SPIM_EEPROM.c **** *  modified every function call - resets to zero.
 425:Generated_Source\PSoC5/SPIM_EEPROM.c **** *
 426:Generated_Source\PSoC5/SPIM_EEPROM.c **** * Theory:
 427:Generated_Source\PSoC5/SPIM_EEPROM.c **** *  Allows the user and the API to read the Rx status register for error
 428:Generated_Source\PSoC5/SPIM_EEPROM.c **** *  detection and flow control.
 429:Generated_Source\PSoC5/SPIM_EEPROM.c **** *
 430:Generated_Source\PSoC5/SPIM_EEPROM.c **** * Side Effects:
 431:Generated_Source\PSoC5/SPIM_EEPROM.c **** *  Clear Rx status register of the component.
 432:Generated_Source\PSoC5/SPIM_EEPROM.c **** *
 433:Generated_Source\PSoC5/SPIM_EEPROM.c **** * Reentrant:
 434:Generated_Source\PSoC5/SPIM_EEPROM.c **** *  No.
 435:Generated_Source\PSoC5/SPIM_EEPROM.c **** *
 436:Generated_Source\PSoC5/SPIM_EEPROM.c **** *******************************************************************************/
 437:Generated_Source\PSoC5/SPIM_EEPROM.c **** uint8 SPIM_EEPROM_ReadRxStatus(void) 
 438:Generated_Source\PSoC5/SPIM_EEPROM.c **** {
 326              		.loc 1 438 0
 327              		.cfi_startproc
 328              		@ args = 0, pretend = 0, frame = 0
 329              		@ frame_needed = 0, uses_anonymous_args = 0
 330 0000 10B5     		push	{r4, lr}
 331              		.cfi_def_cfa_offset 8
 332              		.cfi_offset 4, -8
 333              		.cfi_offset 14, -4
 439:Generated_Source\PSoC5/SPIM_EEPROM.c ****     uint8 tmpStatus;
 440:Generated_Source\PSoC5/SPIM_EEPROM.c **** 
 441:Generated_Source\PSoC5/SPIM_EEPROM.c ****     #if(SPIM_EEPROM_RX_SOFTWARE_BUF_ENABLED)
 442:Generated_Source\PSoC5/SPIM_EEPROM.c ****         /* Disable RX interrupt to protect global veriables */
 443:Generated_Source\PSoC5/SPIM_EEPROM.c ****         SPIM_EEPROM_DisableRxInt();
 334              		.loc 1 443 0
 335 0002 FFF7FEFF 		bl	SPIM_EEPROM_DisableRxInt
 336              	.LVL16:
 444:Generated_Source\PSoC5/SPIM_EEPROM.c **** 
 445:Generated_Source\PSoC5/SPIM_EEPROM.c ****         tmpStatus = SPIM_EEPROM_GET_STATUS_RX(SPIM_EEPROM_swStatusRx);
ARM GAS  C:\Users\Manu\AppData\Local\Temp\cci7KmTz.s 			page 15


 337              		.loc 1 445 0
 338 0006 064B     		ldr	r3, .L33
 339 0008 1B78     		ldrb	r3, [r3]	@ zero_extendqisi2
 340 000a 064A     		ldr	r2, .L33+4
 341 000c 1478     		ldrb	r4, [r2]	@ zero_extendqisi2
 342 000e 04F04004 		and	r4, r4, #64
 343 0012 1C43     		orrs	r4, r4, r3
 344              	.LVL17:
 446:Generated_Source\PSoC5/SPIM_EEPROM.c ****         SPIM_EEPROM_swStatusRx = 0u;
 345              		.loc 1 446 0
 346 0014 0023     		movs	r3, #0
 347 0016 1370     		strb	r3, [r2]
 447:Generated_Source\PSoC5/SPIM_EEPROM.c **** 
 448:Generated_Source\PSoC5/SPIM_EEPROM.c ****         SPIM_EEPROM_EnableRxInt();
 348              		.loc 1 448 0
 349 0018 FFF7FEFF 		bl	SPIM_EEPROM_EnableRxInt
 350              	.LVL18:
 449:Generated_Source\PSoC5/SPIM_EEPROM.c **** 
 450:Generated_Source\PSoC5/SPIM_EEPROM.c ****     #else
 451:Generated_Source\PSoC5/SPIM_EEPROM.c **** 
 452:Generated_Source\PSoC5/SPIM_EEPROM.c ****         tmpStatus = SPIM_EEPROM_RX_STATUS_REG;
 453:Generated_Source\PSoC5/SPIM_EEPROM.c **** 
 454:Generated_Source\PSoC5/SPIM_EEPROM.c ****     #endif /* (SPIM_EEPROM_RX_SOFTWARE_BUF_ENABLED) */
 455:Generated_Source\PSoC5/SPIM_EEPROM.c **** 
 456:Generated_Source\PSoC5/SPIM_EEPROM.c ****     return(tmpStatus);
 457:Generated_Source\PSoC5/SPIM_EEPROM.c **** }
 351              		.loc 1 457 0
 352 001c 2046     		mov	r0, r4
 353 001e 10BD     		pop	{r4, pc}
 354              	.LVL19:
 355              	.L34:
 356              		.align	2
 357              	.L33:
 358 0020 60640040 		.word	1073767520
 359 0024 00000000 		.word	SPIM_EEPROM_swStatusRx
 360              		.cfi_endproc
 361              	.LFE11:
 362              		.size	SPIM_EEPROM_ReadRxStatus, .-SPIM_EEPROM_ReadRxStatus
 363              		.section	.text.SPIM_EEPROM_WriteTxData,"ax",%progbits
 364              		.align	2
 365              		.global	SPIM_EEPROM_WriteTxData
 366              		.thumb
 367              		.thumb_func
 368              		.type	SPIM_EEPROM_WriteTxData, %function
 369              	SPIM_EEPROM_WriteTxData:
 370              	.LFB12:
 458:Generated_Source\PSoC5/SPIM_EEPROM.c **** 
 459:Generated_Source\PSoC5/SPIM_EEPROM.c **** 
 460:Generated_Source\PSoC5/SPIM_EEPROM.c **** /*******************************************************************************
 461:Generated_Source\PSoC5/SPIM_EEPROM.c **** * Function Name: SPIM_EEPROM_WriteTxData
 462:Generated_Source\PSoC5/SPIM_EEPROM.c **** ********************************************************************************
 463:Generated_Source\PSoC5/SPIM_EEPROM.c **** *
 464:Generated_Source\PSoC5/SPIM_EEPROM.c **** * Summary:
 465:Generated_Source\PSoC5/SPIM_EEPROM.c **** *  Write a byte of data to be sent across the SPI.
 466:Generated_Source\PSoC5/SPIM_EEPROM.c **** *
 467:Generated_Source\PSoC5/SPIM_EEPROM.c **** * Parameters:
 468:Generated_Source\PSoC5/SPIM_EEPROM.c **** *  txDataByte: The data value to send across the SPI.
ARM GAS  C:\Users\Manu\AppData\Local\Temp\cci7KmTz.s 			page 16


 469:Generated_Source\PSoC5/SPIM_EEPROM.c **** *
 470:Generated_Source\PSoC5/SPIM_EEPROM.c **** * Return:
 471:Generated_Source\PSoC5/SPIM_EEPROM.c **** *  None.
 472:Generated_Source\PSoC5/SPIM_EEPROM.c **** *
 473:Generated_Source\PSoC5/SPIM_EEPROM.c **** * Global variables:
 474:Generated_Source\PSoC5/SPIM_EEPROM.c **** *  SPIM_EEPROM_txBufferWrite - used for the account of the bytes which
 475:Generated_Source\PSoC5/SPIM_EEPROM.c **** *  have been written down in the TX software buffer, modified every function
 476:Generated_Source\PSoC5/SPIM_EEPROM.c **** *  call if TX Software Buffer is used.
 477:Generated_Source\PSoC5/SPIM_EEPROM.c **** *  SPIM_EEPROM_txBufferRead - used for the account of the bytes which
 478:Generated_Source\PSoC5/SPIM_EEPROM.c **** *  have been read from the TX software buffer.
 479:Generated_Source\PSoC5/SPIM_EEPROM.c **** *  SPIM_EEPROM_txBuffer[SPIM_EEPROM_TX_BUFFER_SIZE] - used to store
 480:Generated_Source\PSoC5/SPIM_EEPROM.c **** *  data to sending, modified every function call if TX Software Buffer is used.
 481:Generated_Source\PSoC5/SPIM_EEPROM.c **** *
 482:Generated_Source\PSoC5/SPIM_EEPROM.c **** * Theory:
 483:Generated_Source\PSoC5/SPIM_EEPROM.c **** *  Allows the user to transmit any byte of data in a single transfer.
 484:Generated_Source\PSoC5/SPIM_EEPROM.c **** *
 485:Generated_Source\PSoC5/SPIM_EEPROM.c **** * Side Effects:
 486:Generated_Source\PSoC5/SPIM_EEPROM.c **** *  If this function is called again before the previous byte is finished then
 487:Generated_Source\PSoC5/SPIM_EEPROM.c **** *  the next byte will be appended to the transfer with no time between
 488:Generated_Source\PSoC5/SPIM_EEPROM.c **** *  the byte transfers. Clear Tx status register of the component.
 489:Generated_Source\PSoC5/SPIM_EEPROM.c **** *
 490:Generated_Source\PSoC5/SPIM_EEPROM.c **** * Reentrant:
 491:Generated_Source\PSoC5/SPIM_EEPROM.c **** *  No.
 492:Generated_Source\PSoC5/SPIM_EEPROM.c **** *
 493:Generated_Source\PSoC5/SPIM_EEPROM.c **** *******************************************************************************/
 494:Generated_Source\PSoC5/SPIM_EEPROM.c **** void SPIM_EEPROM_WriteTxData(uint8 txData) 
 495:Generated_Source\PSoC5/SPIM_EEPROM.c **** {
 371              		.loc 1 495 0
 372              		.cfi_startproc
 373              		@ args = 0, pretend = 0, frame = 0
 374              		@ frame_needed = 0, uses_anonymous_args = 0
 375              	.LVL20:
 376 0000 10B5     		push	{r4, lr}
 377              		.cfi_def_cfa_offset 8
 378              		.cfi_offset 4, -8
 379              		.cfi_offset 14, -4
 380 0002 0446     		mov	r4, r0
 381              	.L37:
 496:Generated_Source\PSoC5/SPIM_EEPROM.c ****     #if(SPIM_EEPROM_TX_SOFTWARE_BUF_ENABLED)
 497:Generated_Source\PSoC5/SPIM_EEPROM.c **** 
 498:Generated_Source\PSoC5/SPIM_EEPROM.c ****         uint8 tempStatus;
 499:Generated_Source\PSoC5/SPIM_EEPROM.c ****         uint8 tmpTxBufferRead;
 500:Generated_Source\PSoC5/SPIM_EEPROM.c **** 
 501:Generated_Source\PSoC5/SPIM_EEPROM.c ****         /* Block if TX buffer is FULL: don't overwrite */
 502:Generated_Source\PSoC5/SPIM_EEPROM.c ****         do
 503:Generated_Source\PSoC5/SPIM_EEPROM.c ****         {
 504:Generated_Source\PSoC5/SPIM_EEPROM.c ****             tmpTxBufferRead = SPIM_EEPROM_txBufferRead;
 382              		.loc 1 504 0
 383 0004 2B4B     		ldr	r3, .L45
 384 0006 1A78     		ldrb	r2, [r3]	@ zero_extendqisi2
 385              	.LVL21:
 505:Generated_Source\PSoC5/SPIM_EEPROM.c ****             if(0u == tmpTxBufferRead)
 386              		.loc 1 505 0
 387 0008 02F0FF03 		and	r3, r2, #255
 388 000c 12B1     		cbz	r2, .L43
 506:Generated_Source\PSoC5/SPIM_EEPROM.c ****             {
 507:Generated_Source\PSoC5/SPIM_EEPROM.c ****                 tmpTxBufferRead = (SPIM_EEPROM_TX_BUFFER_SIZE - 1u);
ARM GAS  C:\Users\Manu\AppData\Local\Temp\cci7KmTz.s 			page 17


 508:Generated_Source\PSoC5/SPIM_EEPROM.c ****             }
 509:Generated_Source\PSoC5/SPIM_EEPROM.c ****             else
 510:Generated_Source\PSoC5/SPIM_EEPROM.c ****             {
 511:Generated_Source\PSoC5/SPIM_EEPROM.c ****                 tmpTxBufferRead--;
 389              		.loc 1 511 0
 390 000e 013B     		subs	r3, r3, #1
 391 0010 DBB2     		uxtb	r3, r3
 392              	.LVL22:
 393 0012 00E0     		b	.L36
 394              	.LVL23:
 395              	.L43:
 507:Generated_Source\PSoC5/SPIM_EEPROM.c ****             }
 396              		.loc 1 507 0
 397 0014 0723     		movs	r3, #7
 398              	.LVL24:
 399              	.L36:
 512:Generated_Source\PSoC5/SPIM_EEPROM.c ****             }
 513:Generated_Source\PSoC5/SPIM_EEPROM.c **** 
 514:Generated_Source\PSoC5/SPIM_EEPROM.c ****         }while(tmpTxBufferRead == SPIM_EEPROM_txBufferWrite);
 400              		.loc 1 514 0
 401 0016 284A     		ldr	r2, .L45+4
 402 0018 1278     		ldrb	r2, [r2]	@ zero_extendqisi2
 403 001a D2B2     		uxtb	r2, r2
 404 001c 9342     		cmp	r3, r2
 405 001e F1D0     		beq	.L37
 515:Generated_Source\PSoC5/SPIM_EEPROM.c **** 
 516:Generated_Source\PSoC5/SPIM_EEPROM.c ****         /* Disable TX interrupt to protect global veriables */
 517:Generated_Source\PSoC5/SPIM_EEPROM.c ****         SPIM_EEPROM_DisableTxInt();
 406              		.loc 1 517 0
 407 0020 FFF7FEFF 		bl	SPIM_EEPROM_DisableTxInt
 408              	.LVL25:
 518:Generated_Source\PSoC5/SPIM_EEPROM.c **** 
 519:Generated_Source\PSoC5/SPIM_EEPROM.c ****         tempStatus = SPIM_EEPROM_GET_STATUS_TX(SPIM_EEPROM_swStatusTx);
 409              		.loc 1 519 0
 410 0024 254B     		ldr	r3, .L45+8
 411 0026 1978     		ldrb	r1, [r3]	@ zero_extendqisi2
 412 0028 254A     		ldr	r2, .L45+12
 413 002a 1378     		ldrb	r3, [r2]	@ zero_extendqisi2
 414 002c 03F00903 		and	r3, r3, #9
 415 0030 0B43     		orrs	r3, r3, r1
 416              	.LVL26:
 520:Generated_Source\PSoC5/SPIM_EEPROM.c ****         SPIM_EEPROM_swStatusTx = tempStatus;
 417              		.loc 1 520 0
 418 0032 1370     		strb	r3, [r2]
 521:Generated_Source\PSoC5/SPIM_EEPROM.c **** 
 522:Generated_Source\PSoC5/SPIM_EEPROM.c **** 
 523:Generated_Source\PSoC5/SPIM_EEPROM.c ****         if((SPIM_EEPROM_txBufferRead == SPIM_EEPROM_txBufferWrite) &&
 419              		.loc 1 523 0
 420 0034 1F4B     		ldr	r3, .L45
 421              	.LVL27:
 422 0036 1A78     		ldrb	r2, [r3]	@ zero_extendqisi2
 423 0038 D2B2     		uxtb	r2, r2
 424 003a 1F4B     		ldr	r3, .L45+4
 425 003c 1B78     		ldrb	r3, [r3]	@ zero_extendqisi2
 426 003e DBB2     		uxtb	r3, r3
 427 0040 9A42     		cmp	r2, r3
 428 0042 07D1     		bne	.L38
ARM GAS  C:\Users\Manu\AppData\Local\Temp\cci7KmTz.s 			page 18


 524:Generated_Source\PSoC5/SPIM_EEPROM.c ****            (0u != (SPIM_EEPROM_swStatusTx & SPIM_EEPROM_STS_TX_FIFO_NOT_FULL)))
 429              		.loc 1 524 0 discriminator 1
 430 0044 1E4B     		ldr	r3, .L45+12
 431 0046 1B78     		ldrb	r3, [r3]	@ zero_extendqisi2
 523:Generated_Source\PSoC5/SPIM_EEPROM.c ****            (0u != (SPIM_EEPROM_swStatusTx & SPIM_EEPROM_STS_TX_FIFO_NOT_FULL)))
 432              		.loc 1 523 0 discriminator 1
 433 0048 13F0040F 		tst	r3, #4
 434 004c 02D0     		beq	.L38
 525:Generated_Source\PSoC5/SPIM_EEPROM.c ****         {
 526:Generated_Source\PSoC5/SPIM_EEPROM.c ****             /* Put data element into the TX FIFO */
 527:Generated_Source\PSoC5/SPIM_EEPROM.c ****             CY_SET_REG8(SPIM_EEPROM_TXDATA_PTR, txData);
 435              		.loc 1 527 0
 436 004e 1D4B     		ldr	r3, .L45+16
 437 0050 1C70     		strb	r4, [r3]
 438              	.LVL28:
 439 0052 2CE0     		b	.L39
 440              	.LVL29:
 441              	.L38:
 528:Generated_Source\PSoC5/SPIM_EEPROM.c ****         }
 529:Generated_Source\PSoC5/SPIM_EEPROM.c ****         else
 530:Generated_Source\PSoC5/SPIM_EEPROM.c ****         {
 531:Generated_Source\PSoC5/SPIM_EEPROM.c ****             /* Add to the TX software buffer */
 532:Generated_Source\PSoC5/SPIM_EEPROM.c ****             SPIM_EEPROM_txBufferWrite++;
 442              		.loc 1 532 0
 443 0054 184A     		ldr	r2, .L45+4
 444 0056 1378     		ldrb	r3, [r2]	@ zero_extendqisi2
 445 0058 0133     		adds	r3, r3, #1
 446 005a DBB2     		uxtb	r3, r3
 447 005c 1370     		strb	r3, [r2]
 448              	.LVL30:
 533:Generated_Source\PSoC5/SPIM_EEPROM.c ****             if(SPIM_EEPROM_txBufferWrite >= SPIM_EEPROM_TX_BUFFER_SIZE)
 449              		.loc 1 533 0
 450 005e 1378     		ldrb	r3, [r2]	@ zero_extendqisi2
 451 0060 DBB2     		uxtb	r3, r3
 452 0062 072B     		cmp	r3, #7
 453 0064 02D9     		bls	.L40
 534:Generated_Source\PSoC5/SPIM_EEPROM.c ****             {
 535:Generated_Source\PSoC5/SPIM_EEPROM.c ****                 SPIM_EEPROM_txBufferWrite = 0u;
 454              		.loc 1 535 0
 455 0066 0022     		movs	r2, #0
 456 0068 134B     		ldr	r3, .L45+4
 457 006a 1A70     		strb	r2, [r3]
 458              	.L40:
 536:Generated_Source\PSoC5/SPIM_EEPROM.c ****             }
 537:Generated_Source\PSoC5/SPIM_EEPROM.c **** 
 538:Generated_Source\PSoC5/SPIM_EEPROM.c ****             if(SPIM_EEPROM_txBufferWrite == SPIM_EEPROM_txBufferRead)
 459              		.loc 1 538 0
 460 006c 124B     		ldr	r3, .L45+4
 461 006e 1A78     		ldrb	r2, [r3]	@ zero_extendqisi2
 462 0070 D2B2     		uxtb	r2, r2
 463 0072 104B     		ldr	r3, .L45
 464 0074 1B78     		ldrb	r3, [r3]	@ zero_extendqisi2
 465 0076 DBB2     		uxtb	r3, r3
 466 0078 9A42     		cmp	r2, r3
 467 007a 0ED1     		bne	.L41
 539:Generated_Source\PSoC5/SPIM_EEPROM.c ****             {
 540:Generated_Source\PSoC5/SPIM_EEPROM.c ****                 SPIM_EEPROM_txBufferRead++;
ARM GAS  C:\Users\Manu\AppData\Local\Temp\cci7KmTz.s 			page 19


 468              		.loc 1 540 0
 469 007c 0D4A     		ldr	r2, .L45
 470 007e 1378     		ldrb	r3, [r2]	@ zero_extendqisi2
 471 0080 0133     		adds	r3, r3, #1
 472 0082 DBB2     		uxtb	r3, r3
 473 0084 1370     		strb	r3, [r2]
 541:Generated_Source\PSoC5/SPIM_EEPROM.c ****                 if(SPIM_EEPROM_txBufferRead >= SPIM_EEPROM_TX_BUFFER_SIZE)
 474              		.loc 1 541 0
 475 0086 1378     		ldrb	r3, [r2]	@ zero_extendqisi2
 476 0088 DBB2     		uxtb	r3, r3
 477 008a 072B     		cmp	r3, #7
 478 008c 02D9     		bls	.L42
 542:Generated_Source\PSoC5/SPIM_EEPROM.c ****                 {
 543:Generated_Source\PSoC5/SPIM_EEPROM.c ****                     SPIM_EEPROM_txBufferRead = 0u;
 479              		.loc 1 543 0
 480 008e 0022     		movs	r2, #0
 481 0090 084B     		ldr	r3, .L45
 482 0092 1A70     		strb	r2, [r3]
 483              	.L42:
 544:Generated_Source\PSoC5/SPIM_EEPROM.c ****                 }
 545:Generated_Source\PSoC5/SPIM_EEPROM.c ****                 SPIM_EEPROM_txBufferFull = 1u;
 484              		.loc 1 545 0
 485 0094 0122     		movs	r2, #1
 486 0096 0C4B     		ldr	r3, .L45+20
 487 0098 1A70     		strb	r2, [r3]
 488              	.L41:
 546:Generated_Source\PSoC5/SPIM_EEPROM.c ****             }
 547:Generated_Source\PSoC5/SPIM_EEPROM.c **** 
 548:Generated_Source\PSoC5/SPIM_EEPROM.c ****             SPIM_EEPROM_txBuffer[SPIM_EEPROM_txBufferWrite] = txData;
 489              		.loc 1 548 0
 490 009a 074B     		ldr	r3, .L45+4
 491 009c 1B78     		ldrb	r3, [r3]	@ zero_extendqisi2
 492 009e DBB2     		uxtb	r3, r3
 493 00a0 0A4A     		ldr	r2, .L45+24
 494 00a2 D454     		strb	r4, [r2, r3]
 549:Generated_Source\PSoC5/SPIM_EEPROM.c **** 
 550:Generated_Source\PSoC5/SPIM_EEPROM.c ****             SPIM_EEPROM_TX_STATUS_MASK_REG |= SPIM_EEPROM_STS_TX_FIFO_NOT_FULL;
 495              		.loc 1 550 0
 496 00a4 0A4A     		ldr	r2, .L45+28
 497 00a6 1378     		ldrb	r3, [r2]	@ zero_extendqisi2
 498 00a8 43F00403 		orr	r3, r3, #4
 499 00ac 1370     		strb	r3, [r2]
 500              	.L39:
 551:Generated_Source\PSoC5/SPIM_EEPROM.c ****         }
 552:Generated_Source\PSoC5/SPIM_EEPROM.c **** 
 553:Generated_Source\PSoC5/SPIM_EEPROM.c ****         SPIM_EEPROM_EnableTxInt();
 501              		.loc 1 553 0
 502 00ae FFF7FEFF 		bl	SPIM_EEPROM_EnableTxInt
 503              	.LVL31:
 504 00b2 10BD     		pop	{r4, pc}
 505              	.L46:
 506              		.align	2
 507              	.L45:
 508 00b4 00000000 		.word	SPIM_EEPROM_txBufferRead
 509 00b8 00000000 		.word	SPIM_EEPROM_txBufferWrite
 510 00bc 62640040 		.word	1073767522
 511 00c0 00000000 		.word	SPIM_EEPROM_swStatusTx
ARM GAS  C:\Users\Manu\AppData\Local\Temp\cci7KmTz.s 			page 20


 512 00c4 43640040 		.word	1073767491
 513 00c8 00000000 		.word	SPIM_EEPROM_txBufferFull
 514 00cc 00000000 		.word	SPIM_EEPROM_txBuffer
 515 00d0 82640040 		.word	1073767554
 516              		.cfi_endproc
 517              	.LFE12:
 518              		.size	SPIM_EEPROM_WriteTxData, .-SPIM_EEPROM_WriteTxData
 519              		.section	.text.SPIM_EEPROM_ReadRxData,"ax",%progbits
 520              		.align	2
 521              		.global	SPIM_EEPROM_ReadRxData
 522              		.thumb
 523              		.thumb_func
 524              		.type	SPIM_EEPROM_ReadRxData, %function
 525              	SPIM_EEPROM_ReadRxData:
 526              	.LFB13:
 554:Generated_Source\PSoC5/SPIM_EEPROM.c **** 
 555:Generated_Source\PSoC5/SPIM_EEPROM.c ****     #else
 556:Generated_Source\PSoC5/SPIM_EEPROM.c ****         /* Wait until TX FIFO has a place */
 557:Generated_Source\PSoC5/SPIM_EEPROM.c ****         while(0u == (SPIM_EEPROM_TX_STATUS_REG & SPIM_EEPROM_STS_TX_FIFO_NOT_FULL))
 558:Generated_Source\PSoC5/SPIM_EEPROM.c ****         {
 559:Generated_Source\PSoC5/SPIM_EEPROM.c ****         }
 560:Generated_Source\PSoC5/SPIM_EEPROM.c **** 
 561:Generated_Source\PSoC5/SPIM_EEPROM.c ****         /* Put data element into the TX FIFO */
 562:Generated_Source\PSoC5/SPIM_EEPROM.c ****         CY_SET_REG8(SPIM_EEPROM_TXDATA_PTR, txData);
 563:Generated_Source\PSoC5/SPIM_EEPROM.c **** 
 564:Generated_Source\PSoC5/SPIM_EEPROM.c ****     #endif /* (SPIM_EEPROM_TX_SOFTWARE_BUF_ENABLED) */
 565:Generated_Source\PSoC5/SPIM_EEPROM.c **** }
 566:Generated_Source\PSoC5/SPIM_EEPROM.c **** 
 567:Generated_Source\PSoC5/SPIM_EEPROM.c **** 
 568:Generated_Source\PSoC5/SPIM_EEPROM.c **** /*******************************************************************************
 569:Generated_Source\PSoC5/SPIM_EEPROM.c **** * Function Name: SPIM_EEPROM_ReadRxData
 570:Generated_Source\PSoC5/SPIM_EEPROM.c **** ********************************************************************************
 571:Generated_Source\PSoC5/SPIM_EEPROM.c **** *
 572:Generated_Source\PSoC5/SPIM_EEPROM.c **** * Summary:
 573:Generated_Source\PSoC5/SPIM_EEPROM.c **** *  Read the next byte of data received across the SPI.
 574:Generated_Source\PSoC5/SPIM_EEPROM.c **** *
 575:Generated_Source\PSoC5/SPIM_EEPROM.c **** * Parameters:
 576:Generated_Source\PSoC5/SPIM_EEPROM.c **** *  None.
 577:Generated_Source\PSoC5/SPIM_EEPROM.c **** *
 578:Generated_Source\PSoC5/SPIM_EEPROM.c **** * Return:
 579:Generated_Source\PSoC5/SPIM_EEPROM.c **** *  The next byte of data read from the FIFO.
 580:Generated_Source\PSoC5/SPIM_EEPROM.c **** *
 581:Generated_Source\PSoC5/SPIM_EEPROM.c **** * Global variables:
 582:Generated_Source\PSoC5/SPIM_EEPROM.c **** *  SPIM_EEPROM_rxBufferWrite - used for the account of the bytes which
 583:Generated_Source\PSoC5/SPIM_EEPROM.c **** *  have been written down in the RX software buffer.
 584:Generated_Source\PSoC5/SPIM_EEPROM.c **** *  SPIM_EEPROM_rxBufferRead - used for the account of the bytes which
 585:Generated_Source\PSoC5/SPIM_EEPROM.c **** *  have been read from the RX software buffer, modified every function
 586:Generated_Source\PSoC5/SPIM_EEPROM.c **** *  call if RX Software Buffer is used.
 587:Generated_Source\PSoC5/SPIM_EEPROM.c **** *  SPIM_EEPROM_rxBuffer[SPIM_EEPROM_RX_BUFFER_SIZE] - used to store
 588:Generated_Source\PSoC5/SPIM_EEPROM.c **** *  received data.
 589:Generated_Source\PSoC5/SPIM_EEPROM.c **** *
 590:Generated_Source\PSoC5/SPIM_EEPROM.c **** * Theory:
 591:Generated_Source\PSoC5/SPIM_EEPROM.c **** *  Allows the user to read a byte of data received.
 592:Generated_Source\PSoC5/SPIM_EEPROM.c **** *
 593:Generated_Source\PSoC5/SPIM_EEPROM.c **** * Side Effects:
 594:Generated_Source\PSoC5/SPIM_EEPROM.c **** *  Will return invalid data if the FIFO is empty. The user should Call
 595:Generated_Source\PSoC5/SPIM_EEPROM.c **** *  GetRxBufferSize() and if it returns a non-zero value then it is safe to call
ARM GAS  C:\Users\Manu\AppData\Local\Temp\cci7KmTz.s 			page 21


 596:Generated_Source\PSoC5/SPIM_EEPROM.c **** *  ReadByte() function.
 597:Generated_Source\PSoC5/SPIM_EEPROM.c **** *
 598:Generated_Source\PSoC5/SPIM_EEPROM.c **** * Reentrant:
 599:Generated_Source\PSoC5/SPIM_EEPROM.c **** *  No.
 600:Generated_Source\PSoC5/SPIM_EEPROM.c **** *
 601:Generated_Source\PSoC5/SPIM_EEPROM.c **** *******************************************************************************/
 602:Generated_Source\PSoC5/SPIM_EEPROM.c **** uint8 SPIM_EEPROM_ReadRxData(void) 
 603:Generated_Source\PSoC5/SPIM_EEPROM.c **** {
 527              		.loc 1 603 0
 528              		.cfi_startproc
 529              		@ args = 0, pretend = 0, frame = 0
 530              		@ frame_needed = 0, uses_anonymous_args = 0
 531 0000 10B5     		push	{r4, lr}
 532              		.cfi_def_cfa_offset 8
 533              		.cfi_offset 4, -8
 534              		.cfi_offset 14, -4
 604:Generated_Source\PSoC5/SPIM_EEPROM.c ****     uint8 rxData;
 605:Generated_Source\PSoC5/SPIM_EEPROM.c **** 
 606:Generated_Source\PSoC5/SPIM_EEPROM.c ****     #if(SPIM_EEPROM_RX_SOFTWARE_BUF_ENABLED)
 607:Generated_Source\PSoC5/SPIM_EEPROM.c **** 
 608:Generated_Source\PSoC5/SPIM_EEPROM.c ****         /* Disable RX interrupt to protect global veriables */
 609:Generated_Source\PSoC5/SPIM_EEPROM.c ****         SPIM_EEPROM_DisableRxInt();
 535              		.loc 1 609 0
 536 0002 FFF7FEFF 		bl	SPIM_EEPROM_DisableRxInt
 537              	.LVL32:
 610:Generated_Source\PSoC5/SPIM_EEPROM.c **** 
 611:Generated_Source\PSoC5/SPIM_EEPROM.c ****         if(SPIM_EEPROM_rxBufferRead != SPIM_EEPROM_rxBufferWrite)
 538              		.loc 1 611 0
 539 0006 134B     		ldr	r3, .L51
 540 0008 1A78     		ldrb	r2, [r3]	@ zero_extendqisi2
 541 000a D2B2     		uxtb	r2, r2
 542 000c 124B     		ldr	r3, .L51+4
 543 000e 1B78     		ldrb	r3, [r3]	@ zero_extendqisi2
 544 0010 DBB2     		uxtb	r3, r3
 545 0012 9A42     		cmp	r2, r3
 546 0014 14D0     		beq	.L48
 612:Generated_Source\PSoC5/SPIM_EEPROM.c ****         {
 613:Generated_Source\PSoC5/SPIM_EEPROM.c ****             if(0u == SPIM_EEPROM_rxBufferFull)
 547              		.loc 1 613 0
 548 0016 114B     		ldr	r3, .L51+8
 549 0018 1B78     		ldrb	r3, [r3]	@ zero_extendqisi2
 550 001a 13F0FF0F 		tst	r3, #255
 551 001e 0CD1     		bne	.L49
 614:Generated_Source\PSoC5/SPIM_EEPROM.c ****             {
 615:Generated_Source\PSoC5/SPIM_EEPROM.c ****                 SPIM_EEPROM_rxBufferRead++;
 552              		.loc 1 615 0
 553 0020 0C4A     		ldr	r2, .L51
 554 0022 1378     		ldrb	r3, [r2]	@ zero_extendqisi2
 555 0024 0133     		adds	r3, r3, #1
 556 0026 DBB2     		uxtb	r3, r3
 557 0028 1370     		strb	r3, [r2]
 616:Generated_Source\PSoC5/SPIM_EEPROM.c ****                 if(SPIM_EEPROM_rxBufferRead >= SPIM_EEPROM_RX_BUFFER_SIZE)
 558              		.loc 1 616 0
 559 002a 1378     		ldrb	r3, [r2]	@ zero_extendqisi2
 560 002c DBB2     		uxtb	r3, r3
 561 002e 072B     		cmp	r3, #7
 562 0030 06D9     		bls	.L48
ARM GAS  C:\Users\Manu\AppData\Local\Temp\cci7KmTz.s 			page 22


 617:Generated_Source\PSoC5/SPIM_EEPROM.c ****                 {
 618:Generated_Source\PSoC5/SPIM_EEPROM.c ****                     SPIM_EEPROM_rxBufferRead = 0u;
 563              		.loc 1 618 0
 564 0032 0022     		movs	r2, #0
 565 0034 074B     		ldr	r3, .L51
 566 0036 1A70     		strb	r2, [r3]
 567 0038 02E0     		b	.L48
 568              	.L49:
 619:Generated_Source\PSoC5/SPIM_EEPROM.c ****                 }
 620:Generated_Source\PSoC5/SPIM_EEPROM.c ****             }
 621:Generated_Source\PSoC5/SPIM_EEPROM.c ****             else
 622:Generated_Source\PSoC5/SPIM_EEPROM.c ****             {
 623:Generated_Source\PSoC5/SPIM_EEPROM.c ****                 SPIM_EEPROM_rxBufferFull = 0u;
 569              		.loc 1 623 0
 570 003a 0022     		movs	r2, #0
 571 003c 074B     		ldr	r3, .L51+8
 572 003e 1A70     		strb	r2, [r3]
 573              	.L48:
 624:Generated_Source\PSoC5/SPIM_EEPROM.c ****             }
 625:Generated_Source\PSoC5/SPIM_EEPROM.c ****         }
 626:Generated_Source\PSoC5/SPIM_EEPROM.c **** 
 627:Generated_Source\PSoC5/SPIM_EEPROM.c ****         rxData = SPIM_EEPROM_rxBuffer[SPIM_EEPROM_rxBufferRead];
 574              		.loc 1 627 0
 575 0040 044B     		ldr	r3, .L51
 576 0042 1B78     		ldrb	r3, [r3]	@ zero_extendqisi2
 577 0044 DBB2     		uxtb	r3, r3
 578 0046 064A     		ldr	r2, .L51+12
 579 0048 D45C     		ldrb	r4, [r2, r3]	@ zero_extendqisi2
 580 004a E4B2     		uxtb	r4, r4
 581              	.LVL33:
 628:Generated_Source\PSoC5/SPIM_EEPROM.c **** 
 629:Generated_Source\PSoC5/SPIM_EEPROM.c ****         SPIM_EEPROM_EnableRxInt();
 582              		.loc 1 629 0
 583 004c FFF7FEFF 		bl	SPIM_EEPROM_EnableRxInt
 584              	.LVL34:
 630:Generated_Source\PSoC5/SPIM_EEPROM.c **** 
 631:Generated_Source\PSoC5/SPIM_EEPROM.c ****     #else
 632:Generated_Source\PSoC5/SPIM_EEPROM.c **** 
 633:Generated_Source\PSoC5/SPIM_EEPROM.c ****         rxData = CY_GET_REG8(SPIM_EEPROM_RXDATA_PTR);
 634:Generated_Source\PSoC5/SPIM_EEPROM.c **** 
 635:Generated_Source\PSoC5/SPIM_EEPROM.c ****     #endif /* (SPIM_EEPROM_RX_SOFTWARE_BUF_ENABLED) */
 636:Generated_Source\PSoC5/SPIM_EEPROM.c **** 
 637:Generated_Source\PSoC5/SPIM_EEPROM.c ****     return(rxData);
 638:Generated_Source\PSoC5/SPIM_EEPROM.c **** }
 585              		.loc 1 638 0
 586 0050 2046     		mov	r0, r4
 587 0052 10BD     		pop	{r4, pc}
 588              	.LVL35:
 589              	.L52:
 590              		.align	2
 591              	.L51:
 592 0054 00000000 		.word	SPIM_EEPROM_rxBufferRead
 593 0058 00000000 		.word	SPIM_EEPROM_rxBufferWrite
 594 005c 00000000 		.word	SPIM_EEPROM_rxBufferFull
 595 0060 00000000 		.word	SPIM_EEPROM_rxBuffer
 596              		.cfi_endproc
 597              	.LFE13:
ARM GAS  C:\Users\Manu\AppData\Local\Temp\cci7KmTz.s 			page 23


 598              		.size	SPIM_EEPROM_ReadRxData, .-SPIM_EEPROM_ReadRxData
 599              		.section	.text.SPIM_EEPROM_GetRxBufferSize,"ax",%progbits
 600              		.align	2
 601              		.global	SPIM_EEPROM_GetRxBufferSize
 602              		.thumb
 603              		.thumb_func
 604              		.type	SPIM_EEPROM_GetRxBufferSize, %function
 605              	SPIM_EEPROM_GetRxBufferSize:
 606              	.LFB14:
 639:Generated_Source\PSoC5/SPIM_EEPROM.c **** 
 640:Generated_Source\PSoC5/SPIM_EEPROM.c **** 
 641:Generated_Source\PSoC5/SPIM_EEPROM.c **** /*******************************************************************************
 642:Generated_Source\PSoC5/SPIM_EEPROM.c **** * Function Name: SPIM_EEPROM_GetRxBufferSize
 643:Generated_Source\PSoC5/SPIM_EEPROM.c **** ********************************************************************************
 644:Generated_Source\PSoC5/SPIM_EEPROM.c **** *
 645:Generated_Source\PSoC5/SPIM_EEPROM.c **** * Summary:
 646:Generated_Source\PSoC5/SPIM_EEPROM.c **** *  Returns the number of bytes/words of data currently held in the RX buffer.
 647:Generated_Source\PSoC5/SPIM_EEPROM.c **** *  If RX Software Buffer not used then function return 0 if FIFO empty or 1 if
 648:Generated_Source\PSoC5/SPIM_EEPROM.c **** *  FIFO not empty. In another case function return size of RX Software Buffer.
 649:Generated_Source\PSoC5/SPIM_EEPROM.c **** *
 650:Generated_Source\PSoC5/SPIM_EEPROM.c **** * Parameters:
 651:Generated_Source\PSoC5/SPIM_EEPROM.c **** *  None.
 652:Generated_Source\PSoC5/SPIM_EEPROM.c **** *
 653:Generated_Source\PSoC5/SPIM_EEPROM.c **** * Return:
 654:Generated_Source\PSoC5/SPIM_EEPROM.c **** *  Integer count of the number of bytes/words in the RX buffer.
 655:Generated_Source\PSoC5/SPIM_EEPROM.c **** *
 656:Generated_Source\PSoC5/SPIM_EEPROM.c **** * Global variables:
 657:Generated_Source\PSoC5/SPIM_EEPROM.c **** *  SPIM_EEPROM_rxBufferWrite - used for the account of the bytes which
 658:Generated_Source\PSoC5/SPIM_EEPROM.c **** *  have been written down in the RX software buffer.
 659:Generated_Source\PSoC5/SPIM_EEPROM.c **** *  SPIM_EEPROM_rxBufferRead - used for the account of the bytes which
 660:Generated_Source\PSoC5/SPIM_EEPROM.c **** *  have been read from the RX software buffer.
 661:Generated_Source\PSoC5/SPIM_EEPROM.c **** *
 662:Generated_Source\PSoC5/SPIM_EEPROM.c **** * Side Effects:
 663:Generated_Source\PSoC5/SPIM_EEPROM.c **** *  Clear status register of the component.
 664:Generated_Source\PSoC5/SPIM_EEPROM.c **** *
 665:Generated_Source\PSoC5/SPIM_EEPROM.c **** *******************************************************************************/
 666:Generated_Source\PSoC5/SPIM_EEPROM.c **** uint8 SPIM_EEPROM_GetRxBufferSize(void) 
 667:Generated_Source\PSoC5/SPIM_EEPROM.c **** {
 607              		.loc 1 667 0
 608              		.cfi_startproc
 609              		@ args = 0, pretend = 0, frame = 0
 610              		@ frame_needed = 0, uses_anonymous_args = 0
 611 0000 10B5     		push	{r4, lr}
 612              		.cfi_def_cfa_offset 8
 613              		.cfi_offset 4, -8
 614              		.cfi_offset 14, -4
 668:Generated_Source\PSoC5/SPIM_EEPROM.c ****     uint8 size;
 669:Generated_Source\PSoC5/SPIM_EEPROM.c **** 
 670:Generated_Source\PSoC5/SPIM_EEPROM.c ****     #if(SPIM_EEPROM_RX_SOFTWARE_BUF_ENABLED)
 671:Generated_Source\PSoC5/SPIM_EEPROM.c **** 
 672:Generated_Source\PSoC5/SPIM_EEPROM.c ****         /* Disable RX interrupt to protect global veriables */
 673:Generated_Source\PSoC5/SPIM_EEPROM.c ****         SPIM_EEPROM_DisableRxInt();
 615              		.loc 1 673 0
 616 0002 FFF7FEFF 		bl	SPIM_EEPROM_DisableRxInt
 617              	.LVL36:
 674:Generated_Source\PSoC5/SPIM_EEPROM.c **** 
 675:Generated_Source\PSoC5/SPIM_EEPROM.c ****         if(SPIM_EEPROM_rxBufferRead == SPIM_EEPROM_rxBufferWrite)
ARM GAS  C:\Users\Manu\AppData\Local\Temp\cci7KmTz.s 			page 24


 618              		.loc 1 675 0
 619 0006 124B     		ldr	r3, .L58
 620 0008 1A78     		ldrb	r2, [r3]	@ zero_extendqisi2
 621 000a D2B2     		uxtb	r2, r2
 622 000c 114B     		ldr	r3, .L58+4
 623 000e 1B78     		ldrb	r3, [r3]	@ zero_extendqisi2
 624 0010 DBB2     		uxtb	r3, r3
 625 0012 9A42     		cmp	r2, r3
 626 0014 16D0     		beq	.L56
 676:Generated_Source\PSoC5/SPIM_EEPROM.c ****         {
 677:Generated_Source\PSoC5/SPIM_EEPROM.c ****             size = 0u;
 678:Generated_Source\PSoC5/SPIM_EEPROM.c ****         }
 679:Generated_Source\PSoC5/SPIM_EEPROM.c ****         else if(SPIM_EEPROM_rxBufferRead < SPIM_EEPROM_rxBufferWrite)
 627              		.loc 1 679 0
 628 0016 0E4B     		ldr	r3, .L58
 629 0018 1A78     		ldrb	r2, [r3]	@ zero_extendqisi2
 630 001a D2B2     		uxtb	r2, r2
 631 001c 0D4B     		ldr	r3, .L58+4
 632 001e 1B78     		ldrb	r3, [r3]	@ zero_extendqisi2
 633 0020 DBB2     		uxtb	r3, r3
 634 0022 9A42     		cmp	r2, r3
 635 0024 06D2     		bcs	.L55
 680:Generated_Source\PSoC5/SPIM_EEPROM.c ****         {
 681:Generated_Source\PSoC5/SPIM_EEPROM.c ****             size = (SPIM_EEPROM_rxBufferWrite - SPIM_EEPROM_rxBufferRead);
 636              		.loc 1 681 0
 637 0026 0B4B     		ldr	r3, .L58+4
 638 0028 1B78     		ldrb	r3, [r3]	@ zero_extendqisi2
 639 002a 094A     		ldr	r2, .L58
 640 002c 1478     		ldrb	r4, [r2]	@ zero_extendqisi2
 641 002e 1C1B     		subs	r4, r3, r4
 642 0030 E4B2     		uxtb	r4, r4
 643              	.LVL37:
 644 0032 08E0     		b	.L54
 645              	.LVL38:
 646              	.L55:
 682:Generated_Source\PSoC5/SPIM_EEPROM.c ****         }
 683:Generated_Source\PSoC5/SPIM_EEPROM.c ****         else
 684:Generated_Source\PSoC5/SPIM_EEPROM.c ****         {
 685:Generated_Source\PSoC5/SPIM_EEPROM.c ****             size = (SPIM_EEPROM_RX_BUFFER_SIZE - SPIM_EEPROM_rxBufferRead) + SPIM_EEPROM_rxBufferWr
 647              		.loc 1 685 0
 648 0034 074B     		ldr	r3, .L58+4
 649 0036 1B78     		ldrb	r3, [r3]	@ zero_extendqisi2
 650 0038 054A     		ldr	r2, .L58
 651 003a 1478     		ldrb	r4, [r2]	@ zero_extendqisi2
 652 003c 1C1B     		subs	r4, r3, r4
 653 003e 0834     		adds	r4, r4, #8
 654 0040 E4B2     		uxtb	r4, r4
 655              	.LVL39:
 656 0042 00E0     		b	.L54
 657              	.LVL40:
 658              	.L56:
 677:Generated_Source\PSoC5/SPIM_EEPROM.c ****         }
 659              		.loc 1 677 0
 660 0044 0024     		movs	r4, #0
 661              	.L54:
 662              	.LVL41:
 686:Generated_Source\PSoC5/SPIM_EEPROM.c ****         }
ARM GAS  C:\Users\Manu\AppData\Local\Temp\cci7KmTz.s 			page 25


 687:Generated_Source\PSoC5/SPIM_EEPROM.c **** 
 688:Generated_Source\PSoC5/SPIM_EEPROM.c ****         SPIM_EEPROM_EnableRxInt();
 663              		.loc 1 688 0
 664 0046 FFF7FEFF 		bl	SPIM_EEPROM_EnableRxInt
 665              	.LVL42:
 689:Generated_Source\PSoC5/SPIM_EEPROM.c **** 
 690:Generated_Source\PSoC5/SPIM_EEPROM.c ****     #else
 691:Generated_Source\PSoC5/SPIM_EEPROM.c **** 
 692:Generated_Source\PSoC5/SPIM_EEPROM.c ****         /* We can only know if there is data in the RX FIFO */
 693:Generated_Source\PSoC5/SPIM_EEPROM.c ****         size = (0u != (SPIM_EEPROM_RX_STATUS_REG & SPIM_EEPROM_STS_RX_FIFO_NOT_EMPTY)) ? 1u : 0u;
 694:Generated_Source\PSoC5/SPIM_EEPROM.c **** 
 695:Generated_Source\PSoC5/SPIM_EEPROM.c ****     #endif /* (SPIM_EEPROM_TX_SOFTWARE_BUF_ENABLED) */
 696:Generated_Source\PSoC5/SPIM_EEPROM.c **** 
 697:Generated_Source\PSoC5/SPIM_EEPROM.c ****     return(size);
 698:Generated_Source\PSoC5/SPIM_EEPROM.c **** }
 666              		.loc 1 698 0
 667 004a 2046     		mov	r0, r4
 668 004c 10BD     		pop	{r4, pc}
 669              	.LVL43:
 670              	.L59:
 671 004e 00BF     		.align	2
 672              	.L58:
 673 0050 00000000 		.word	SPIM_EEPROM_rxBufferRead
 674 0054 00000000 		.word	SPIM_EEPROM_rxBufferWrite
 675              		.cfi_endproc
 676              	.LFE14:
 677              		.size	SPIM_EEPROM_GetRxBufferSize, .-SPIM_EEPROM_GetRxBufferSize
 678              		.section	.text.SPIM_EEPROM_GetTxBufferSize,"ax",%progbits
 679              		.align	2
 680              		.global	SPIM_EEPROM_GetTxBufferSize
 681              		.thumb
 682              		.thumb_func
 683              		.type	SPIM_EEPROM_GetTxBufferSize, %function
 684              	SPIM_EEPROM_GetTxBufferSize:
 685              	.LFB15:
 699:Generated_Source\PSoC5/SPIM_EEPROM.c **** 
 700:Generated_Source\PSoC5/SPIM_EEPROM.c **** 
 701:Generated_Source\PSoC5/SPIM_EEPROM.c **** /*******************************************************************************
 702:Generated_Source\PSoC5/SPIM_EEPROM.c **** * Function Name: SPIM_EEPROM_GetTxBufferSize
 703:Generated_Source\PSoC5/SPIM_EEPROM.c **** ********************************************************************************
 704:Generated_Source\PSoC5/SPIM_EEPROM.c **** *
 705:Generated_Source\PSoC5/SPIM_EEPROM.c **** * Summary:
 706:Generated_Source\PSoC5/SPIM_EEPROM.c **** *  Returns the number of bytes/words of data currently held in the TX buffer.
 707:Generated_Source\PSoC5/SPIM_EEPROM.c **** *  If TX Software Buffer not used then function return 0 - if FIFO empty, 1 - if
 708:Generated_Source\PSoC5/SPIM_EEPROM.c **** *  FIFO not full, 4 - if FIFO full. In another case function return size of TX
 709:Generated_Source\PSoC5/SPIM_EEPROM.c **** *  Software Buffer.
 710:Generated_Source\PSoC5/SPIM_EEPROM.c **** *
 711:Generated_Source\PSoC5/SPIM_EEPROM.c **** * Parameters:
 712:Generated_Source\PSoC5/SPIM_EEPROM.c **** *  None.
 713:Generated_Source\PSoC5/SPIM_EEPROM.c **** *
 714:Generated_Source\PSoC5/SPIM_EEPROM.c **** * Return:
 715:Generated_Source\PSoC5/SPIM_EEPROM.c **** *  Integer count of the number of bytes/words in the TX buffer.
 716:Generated_Source\PSoC5/SPIM_EEPROM.c **** *
 717:Generated_Source\PSoC5/SPIM_EEPROM.c **** * Global variables:
 718:Generated_Source\PSoC5/SPIM_EEPROM.c **** *  SPIM_EEPROM_txBufferWrite - used for the account of the bytes which
 719:Generated_Source\PSoC5/SPIM_EEPROM.c **** *  have been written down in the TX software buffer.
 720:Generated_Source\PSoC5/SPIM_EEPROM.c **** *  SPIM_EEPROM_txBufferRead - used for the account of the bytes which
ARM GAS  C:\Users\Manu\AppData\Local\Temp\cci7KmTz.s 			page 26


 721:Generated_Source\PSoC5/SPIM_EEPROM.c **** *  have been read from the TX software buffer.
 722:Generated_Source\PSoC5/SPIM_EEPROM.c **** *
 723:Generated_Source\PSoC5/SPIM_EEPROM.c **** * Side Effects:
 724:Generated_Source\PSoC5/SPIM_EEPROM.c **** *  Clear status register of the component.
 725:Generated_Source\PSoC5/SPIM_EEPROM.c **** *
 726:Generated_Source\PSoC5/SPIM_EEPROM.c **** *******************************************************************************/
 727:Generated_Source\PSoC5/SPIM_EEPROM.c **** uint8  SPIM_EEPROM_GetTxBufferSize(void) 
 728:Generated_Source\PSoC5/SPIM_EEPROM.c **** {
 686              		.loc 1 728 0
 687              		.cfi_startproc
 688              		@ args = 0, pretend = 0, frame = 0
 689              		@ frame_needed = 0, uses_anonymous_args = 0
 690 0000 10B5     		push	{r4, lr}
 691              		.cfi_def_cfa_offset 8
 692              		.cfi_offset 4, -8
 693              		.cfi_offset 14, -4
 729:Generated_Source\PSoC5/SPIM_EEPROM.c ****     uint8 size;
 730:Generated_Source\PSoC5/SPIM_EEPROM.c **** 
 731:Generated_Source\PSoC5/SPIM_EEPROM.c ****     #if(SPIM_EEPROM_TX_SOFTWARE_BUF_ENABLED)
 732:Generated_Source\PSoC5/SPIM_EEPROM.c ****         /* Disable TX interrupt to protect global veriables */
 733:Generated_Source\PSoC5/SPIM_EEPROM.c ****         SPIM_EEPROM_DisableTxInt();
 694              		.loc 1 733 0
 695 0002 FFF7FEFF 		bl	SPIM_EEPROM_DisableTxInt
 696              	.LVL44:
 734:Generated_Source\PSoC5/SPIM_EEPROM.c **** 
 735:Generated_Source\PSoC5/SPIM_EEPROM.c ****         if(SPIM_EEPROM_txBufferRead == SPIM_EEPROM_txBufferWrite)
 697              		.loc 1 735 0
 698 0006 124B     		ldr	r3, .L65
 699 0008 1A78     		ldrb	r2, [r3]	@ zero_extendqisi2
 700 000a D2B2     		uxtb	r2, r2
 701 000c 114B     		ldr	r3, .L65+4
 702 000e 1B78     		ldrb	r3, [r3]	@ zero_extendqisi2
 703 0010 DBB2     		uxtb	r3, r3
 704 0012 9A42     		cmp	r2, r3
 705 0014 16D0     		beq	.L63
 736:Generated_Source\PSoC5/SPIM_EEPROM.c ****         {
 737:Generated_Source\PSoC5/SPIM_EEPROM.c ****             size = 0u;
 738:Generated_Source\PSoC5/SPIM_EEPROM.c ****         }
 739:Generated_Source\PSoC5/SPIM_EEPROM.c ****         else if(SPIM_EEPROM_txBufferRead < SPIM_EEPROM_txBufferWrite)
 706              		.loc 1 739 0
 707 0016 0E4B     		ldr	r3, .L65
 708 0018 1A78     		ldrb	r2, [r3]	@ zero_extendqisi2
 709 001a D2B2     		uxtb	r2, r2
 710 001c 0D4B     		ldr	r3, .L65+4
 711 001e 1B78     		ldrb	r3, [r3]	@ zero_extendqisi2
 712 0020 DBB2     		uxtb	r3, r3
 713 0022 9A42     		cmp	r2, r3
 714 0024 06D2     		bcs	.L62
 740:Generated_Source\PSoC5/SPIM_EEPROM.c ****         {
 741:Generated_Source\PSoC5/SPIM_EEPROM.c ****             size = (SPIM_EEPROM_txBufferWrite - SPIM_EEPROM_txBufferRead);
 715              		.loc 1 741 0
 716 0026 0B4B     		ldr	r3, .L65+4
 717 0028 1B78     		ldrb	r3, [r3]	@ zero_extendqisi2
 718 002a 094A     		ldr	r2, .L65
 719 002c 1478     		ldrb	r4, [r2]	@ zero_extendqisi2
 720 002e 1C1B     		subs	r4, r3, r4
 721 0030 E4B2     		uxtb	r4, r4
ARM GAS  C:\Users\Manu\AppData\Local\Temp\cci7KmTz.s 			page 27


 722              	.LVL45:
 723 0032 08E0     		b	.L61
 724              	.LVL46:
 725              	.L62:
 742:Generated_Source\PSoC5/SPIM_EEPROM.c ****         }
 743:Generated_Source\PSoC5/SPIM_EEPROM.c ****         else
 744:Generated_Source\PSoC5/SPIM_EEPROM.c ****         {
 745:Generated_Source\PSoC5/SPIM_EEPROM.c ****             size = (SPIM_EEPROM_TX_BUFFER_SIZE - SPIM_EEPROM_txBufferRead) + SPIM_EEPROM_txBufferWr
 726              		.loc 1 745 0
 727 0034 074B     		ldr	r3, .L65+4
 728 0036 1B78     		ldrb	r3, [r3]	@ zero_extendqisi2
 729 0038 054A     		ldr	r2, .L65
 730 003a 1478     		ldrb	r4, [r2]	@ zero_extendqisi2
 731 003c 1C1B     		subs	r4, r3, r4
 732 003e 0834     		adds	r4, r4, #8
 733 0040 E4B2     		uxtb	r4, r4
 734              	.LVL47:
 735 0042 00E0     		b	.L61
 736              	.LVL48:
 737              	.L63:
 737:Generated_Source\PSoC5/SPIM_EEPROM.c ****         }
 738              		.loc 1 737 0
 739 0044 0024     		movs	r4, #0
 740              	.L61:
 741              	.LVL49:
 746:Generated_Source\PSoC5/SPIM_EEPROM.c ****         }
 747:Generated_Source\PSoC5/SPIM_EEPROM.c **** 
 748:Generated_Source\PSoC5/SPIM_EEPROM.c ****         SPIM_EEPROM_EnableTxInt();
 742              		.loc 1 748 0
 743 0046 FFF7FEFF 		bl	SPIM_EEPROM_EnableTxInt
 744              	.LVL50:
 749:Generated_Source\PSoC5/SPIM_EEPROM.c **** 
 750:Generated_Source\PSoC5/SPIM_EEPROM.c ****     #else
 751:Generated_Source\PSoC5/SPIM_EEPROM.c **** 
 752:Generated_Source\PSoC5/SPIM_EEPROM.c ****         size = SPIM_EEPROM_TX_STATUS_REG;
 753:Generated_Source\PSoC5/SPIM_EEPROM.c **** 
 754:Generated_Source\PSoC5/SPIM_EEPROM.c ****         if(0u != (size & SPIM_EEPROM_STS_TX_FIFO_EMPTY))
 755:Generated_Source\PSoC5/SPIM_EEPROM.c ****         {
 756:Generated_Source\PSoC5/SPIM_EEPROM.c ****             size = 0u;
 757:Generated_Source\PSoC5/SPIM_EEPROM.c ****         }
 758:Generated_Source\PSoC5/SPIM_EEPROM.c ****         else if(0u != (size & SPIM_EEPROM_STS_TX_FIFO_NOT_FULL))
 759:Generated_Source\PSoC5/SPIM_EEPROM.c ****         {
 760:Generated_Source\PSoC5/SPIM_EEPROM.c ****             size = 1u;
 761:Generated_Source\PSoC5/SPIM_EEPROM.c ****         }
 762:Generated_Source\PSoC5/SPIM_EEPROM.c ****         else
 763:Generated_Source\PSoC5/SPIM_EEPROM.c ****         {
 764:Generated_Source\PSoC5/SPIM_EEPROM.c ****             size = SPIM_EEPROM_FIFO_SIZE;
 765:Generated_Source\PSoC5/SPIM_EEPROM.c ****         }
 766:Generated_Source\PSoC5/SPIM_EEPROM.c **** 
 767:Generated_Source\PSoC5/SPIM_EEPROM.c ****     #endif /* (SPIM_EEPROM_TX_SOFTWARE_BUF_ENABLED) */
 768:Generated_Source\PSoC5/SPIM_EEPROM.c **** 
 769:Generated_Source\PSoC5/SPIM_EEPROM.c ****     return(size);
 770:Generated_Source\PSoC5/SPIM_EEPROM.c **** }
 745              		.loc 1 770 0
 746 004a 2046     		mov	r0, r4
 747 004c 10BD     		pop	{r4, pc}
 748              	.LVL51:
ARM GAS  C:\Users\Manu\AppData\Local\Temp\cci7KmTz.s 			page 28


 749              	.L66:
 750 004e 00BF     		.align	2
 751              	.L65:
 752 0050 00000000 		.word	SPIM_EEPROM_txBufferRead
 753 0054 00000000 		.word	SPIM_EEPROM_txBufferWrite
 754              		.cfi_endproc
 755              	.LFE15:
 756              		.size	SPIM_EEPROM_GetTxBufferSize, .-SPIM_EEPROM_GetTxBufferSize
 757              		.section	.text.SPIM_EEPROM_ClearRxBuffer,"ax",%progbits
 758              		.align	2
 759              		.global	SPIM_EEPROM_ClearRxBuffer
 760              		.thumb
 761              		.thumb_func
 762              		.type	SPIM_EEPROM_ClearRxBuffer, %function
 763              	SPIM_EEPROM_ClearRxBuffer:
 764              	.LFB16:
 771:Generated_Source\PSoC5/SPIM_EEPROM.c **** 
 772:Generated_Source\PSoC5/SPIM_EEPROM.c **** 
 773:Generated_Source\PSoC5/SPIM_EEPROM.c **** /*******************************************************************************
 774:Generated_Source\PSoC5/SPIM_EEPROM.c **** * Function Name: SPIM_EEPROM_ClearRxBuffer
 775:Generated_Source\PSoC5/SPIM_EEPROM.c **** ********************************************************************************
 776:Generated_Source\PSoC5/SPIM_EEPROM.c **** *
 777:Generated_Source\PSoC5/SPIM_EEPROM.c **** * Summary:
 778:Generated_Source\PSoC5/SPIM_EEPROM.c **** *  Clear the RX RAM buffer by setting the read and write pointers both to zero.
 779:Generated_Source\PSoC5/SPIM_EEPROM.c **** *
 780:Generated_Source\PSoC5/SPIM_EEPROM.c **** * Parameters:
 781:Generated_Source\PSoC5/SPIM_EEPROM.c **** *  None.
 782:Generated_Source\PSoC5/SPIM_EEPROM.c **** *
 783:Generated_Source\PSoC5/SPIM_EEPROM.c **** * Return:
 784:Generated_Source\PSoC5/SPIM_EEPROM.c **** *  None.
 785:Generated_Source\PSoC5/SPIM_EEPROM.c **** *
 786:Generated_Source\PSoC5/SPIM_EEPROM.c **** * Global variables:
 787:Generated_Source\PSoC5/SPIM_EEPROM.c **** *  SPIM_EEPROM_rxBufferWrite - used for the account of the bytes which
 788:Generated_Source\PSoC5/SPIM_EEPROM.c **** *  have been written down in the RX software buffer, modified every function
 789:Generated_Source\PSoC5/SPIM_EEPROM.c **** *  call - resets to zero.
 790:Generated_Source\PSoC5/SPIM_EEPROM.c **** *  SPIM_EEPROM_rxBufferRead - used for the account of the bytes which
 791:Generated_Source\PSoC5/SPIM_EEPROM.c **** *  have been read from the RX software buffer, modified every function call -
 792:Generated_Source\PSoC5/SPIM_EEPROM.c **** *  resets to zero.
 793:Generated_Source\PSoC5/SPIM_EEPROM.c **** *
 794:Generated_Source\PSoC5/SPIM_EEPROM.c **** * Theory:
 795:Generated_Source\PSoC5/SPIM_EEPROM.c **** *  Setting the pointers to zero makes the system believe there is no data to
 796:Generated_Source\PSoC5/SPIM_EEPROM.c **** *  read and writing will resume at address 0 overwriting any data that may have
 797:Generated_Source\PSoC5/SPIM_EEPROM.c **** *  remained in the RAM.
 798:Generated_Source\PSoC5/SPIM_EEPROM.c **** *
 799:Generated_Source\PSoC5/SPIM_EEPROM.c **** * Side Effects:
 800:Generated_Source\PSoC5/SPIM_EEPROM.c **** *  Any received data not read from the RAM buffer will be lost when overwritten.
 801:Generated_Source\PSoC5/SPIM_EEPROM.c **** *
 802:Generated_Source\PSoC5/SPIM_EEPROM.c **** * Reentrant:
 803:Generated_Source\PSoC5/SPIM_EEPROM.c **** *  No.
 804:Generated_Source\PSoC5/SPIM_EEPROM.c **** *
 805:Generated_Source\PSoC5/SPIM_EEPROM.c **** *******************************************************************************/
 806:Generated_Source\PSoC5/SPIM_EEPROM.c **** void SPIM_EEPROM_ClearRxBuffer(void) 
 807:Generated_Source\PSoC5/SPIM_EEPROM.c **** {
 765              		.loc 1 807 0
 766              		.cfi_startproc
 767              		@ args = 0, pretend = 0, frame = 0
 768              		@ frame_needed = 0, uses_anonymous_args = 0
ARM GAS  C:\Users\Manu\AppData\Local\Temp\cci7KmTz.s 			page 29


 769 0000 08B5     		push	{r3, lr}
 770              		.cfi_def_cfa_offset 8
 771              		.cfi_offset 3, -8
 772              		.cfi_offset 14, -4
 808:Generated_Source\PSoC5/SPIM_EEPROM.c ****     /* Clear Hardware RX FIFO */
 809:Generated_Source\PSoC5/SPIM_EEPROM.c ****     while(0u !=(SPIM_EEPROM_RX_STATUS_REG & SPIM_EEPROM_STS_RX_FIFO_NOT_EMPTY))
 773              		.loc 1 809 0
 774 0002 01E0     		b	.L68
 775              	.L69:
 810:Generated_Source\PSoC5/SPIM_EEPROM.c ****     {
 811:Generated_Source\PSoC5/SPIM_EEPROM.c ****         (void) CY_GET_REG8(SPIM_EEPROM_RXDATA_PTR);
 776              		.loc 1 811 0
 777 0004 094B     		ldr	r3, .L71
 778 0006 1B78     		ldrb	r3, [r3]	@ zero_extendqisi2
 779              	.L68:
 809:Generated_Source\PSoC5/SPIM_EEPROM.c ****     {
 780              		.loc 1 809 0
 781 0008 094B     		ldr	r3, .L71+4
 782 000a 1B78     		ldrb	r3, [r3]	@ zero_extendqisi2
 783 000c 13F0200F 		tst	r3, #32
 784 0010 F8D1     		bne	.L69
 812:Generated_Source\PSoC5/SPIM_EEPROM.c ****     }
 813:Generated_Source\PSoC5/SPIM_EEPROM.c **** 
 814:Generated_Source\PSoC5/SPIM_EEPROM.c ****     #if(SPIM_EEPROM_RX_SOFTWARE_BUF_ENABLED)
 815:Generated_Source\PSoC5/SPIM_EEPROM.c ****         /* Disable RX interrupt to protect global veriables */
 816:Generated_Source\PSoC5/SPIM_EEPROM.c ****         SPIM_EEPROM_DisableRxInt();
 785              		.loc 1 816 0
 786 0012 FFF7FEFF 		bl	SPIM_EEPROM_DisableRxInt
 787              	.LVL52:
 817:Generated_Source\PSoC5/SPIM_EEPROM.c **** 
 818:Generated_Source\PSoC5/SPIM_EEPROM.c ****         SPIM_EEPROM_rxBufferFull  = 0u;
 788              		.loc 1 818 0
 789 0016 0023     		movs	r3, #0
 790 0018 064A     		ldr	r2, .L71+8
 791 001a 1370     		strb	r3, [r2]
 819:Generated_Source\PSoC5/SPIM_EEPROM.c ****         SPIM_EEPROM_rxBufferRead  = 0u;
 792              		.loc 1 819 0
 793 001c 064A     		ldr	r2, .L71+12
 794 001e 1370     		strb	r3, [r2]
 820:Generated_Source\PSoC5/SPIM_EEPROM.c ****         SPIM_EEPROM_rxBufferWrite = 0u;
 795              		.loc 1 820 0
 796 0020 064A     		ldr	r2, .L71+16
 797 0022 1370     		strb	r3, [r2]
 821:Generated_Source\PSoC5/SPIM_EEPROM.c **** 
 822:Generated_Source\PSoC5/SPIM_EEPROM.c ****         SPIM_EEPROM_EnableRxInt();
 798              		.loc 1 822 0
 799 0024 FFF7FEFF 		bl	SPIM_EEPROM_EnableRxInt
 800              	.LVL53:
 801 0028 08BD     		pop	{r3, pc}
 802              	.L72:
 803 002a 00BF     		.align	2
 804              	.L71:
 805 002c 53640040 		.word	1073767507
 806 0030 60640040 		.word	1073767520
 807 0034 00000000 		.word	SPIM_EEPROM_rxBufferFull
 808 0038 00000000 		.word	SPIM_EEPROM_rxBufferRead
 809 003c 00000000 		.word	SPIM_EEPROM_rxBufferWrite
ARM GAS  C:\Users\Manu\AppData\Local\Temp\cci7KmTz.s 			page 30


 810              		.cfi_endproc
 811              	.LFE16:
 812              		.size	SPIM_EEPROM_ClearRxBuffer, .-SPIM_EEPROM_ClearRxBuffer
 813              		.section	.text.SPIM_EEPROM_ClearTxBuffer,"ax",%progbits
 814              		.align	2
 815              		.global	SPIM_EEPROM_ClearTxBuffer
 816              		.thumb
 817              		.thumb_func
 818              		.type	SPIM_EEPROM_ClearTxBuffer, %function
 819              	SPIM_EEPROM_ClearTxBuffer:
 820              	.LFB17:
 823:Generated_Source\PSoC5/SPIM_EEPROM.c ****     #endif /* (SPIM_EEPROM_RX_SOFTWARE_BUF_ENABLED) */
 824:Generated_Source\PSoC5/SPIM_EEPROM.c **** }
 825:Generated_Source\PSoC5/SPIM_EEPROM.c **** 
 826:Generated_Source\PSoC5/SPIM_EEPROM.c **** 
 827:Generated_Source\PSoC5/SPIM_EEPROM.c **** /*******************************************************************************
 828:Generated_Source\PSoC5/SPIM_EEPROM.c **** * Function Name: SPIM_EEPROM_ClearTxBuffer
 829:Generated_Source\PSoC5/SPIM_EEPROM.c **** ********************************************************************************
 830:Generated_Source\PSoC5/SPIM_EEPROM.c **** *
 831:Generated_Source\PSoC5/SPIM_EEPROM.c **** * Summary:
 832:Generated_Source\PSoC5/SPIM_EEPROM.c **** *  Clear the TX RAM buffer by setting the read and write pointers both to zero.
 833:Generated_Source\PSoC5/SPIM_EEPROM.c **** *
 834:Generated_Source\PSoC5/SPIM_EEPROM.c **** * Parameters:
 835:Generated_Source\PSoC5/SPIM_EEPROM.c **** *  None.
 836:Generated_Source\PSoC5/SPIM_EEPROM.c **** *
 837:Generated_Source\PSoC5/SPIM_EEPROM.c **** * Return:
 838:Generated_Source\PSoC5/SPIM_EEPROM.c **** *  None.
 839:Generated_Source\PSoC5/SPIM_EEPROM.c **** *
 840:Generated_Source\PSoC5/SPIM_EEPROM.c **** * Global variables:
 841:Generated_Source\PSoC5/SPIM_EEPROM.c **** *  SPIM_EEPROM_txBufferWrite - used for the account of the bytes which
 842:Generated_Source\PSoC5/SPIM_EEPROM.c **** *  have been written down in the TX software buffer, modified every function
 843:Generated_Source\PSoC5/SPIM_EEPROM.c **** *  call - resets to zero.
 844:Generated_Source\PSoC5/SPIM_EEPROM.c **** *  SPIM_EEPROM_txBufferRead - used for the account of the bytes which
 845:Generated_Source\PSoC5/SPIM_EEPROM.c **** *  have been read from the TX software buffer, modified every function call -
 846:Generated_Source\PSoC5/SPIM_EEPROM.c **** *  resets to zero.
 847:Generated_Source\PSoC5/SPIM_EEPROM.c **** *
 848:Generated_Source\PSoC5/SPIM_EEPROM.c **** * Theory:
 849:Generated_Source\PSoC5/SPIM_EEPROM.c **** *  Setting the pointers to zero makes the system believe there is no data to
 850:Generated_Source\PSoC5/SPIM_EEPROM.c **** *  read and writing will resume at address 0 overwriting any data that may have
 851:Generated_Source\PSoC5/SPIM_EEPROM.c **** *  remained in the RAM.
 852:Generated_Source\PSoC5/SPIM_EEPROM.c **** *
 853:Generated_Source\PSoC5/SPIM_EEPROM.c **** * Side Effects:
 854:Generated_Source\PSoC5/SPIM_EEPROM.c **** *  Any data not yet transmitted from the RAM buffer will be lost when
 855:Generated_Source\PSoC5/SPIM_EEPROM.c **** *  overwritten.
 856:Generated_Source\PSoC5/SPIM_EEPROM.c **** *
 857:Generated_Source\PSoC5/SPIM_EEPROM.c **** * Reentrant:
 858:Generated_Source\PSoC5/SPIM_EEPROM.c **** *  No.
 859:Generated_Source\PSoC5/SPIM_EEPROM.c **** *
 860:Generated_Source\PSoC5/SPIM_EEPROM.c **** *******************************************************************************/
 861:Generated_Source\PSoC5/SPIM_EEPROM.c **** void SPIM_EEPROM_ClearTxBuffer(void) 
 862:Generated_Source\PSoC5/SPIM_EEPROM.c **** {
 821              		.loc 1 862 0
 822              		.cfi_startproc
 823              		@ args = 0, pretend = 0, frame = 0
 824              		@ frame_needed = 0, uses_anonymous_args = 0
 825 0000 08B5     		push	{r3, lr}
 826              		.cfi_def_cfa_offset 8
ARM GAS  C:\Users\Manu\AppData\Local\Temp\cci7KmTz.s 			page 31


 827              		.cfi_offset 3, -8
 828              		.cfi_offset 14, -4
 863:Generated_Source\PSoC5/SPIM_EEPROM.c ****     uint8 enableInterrupts;
 864:Generated_Source\PSoC5/SPIM_EEPROM.c **** 
 865:Generated_Source\PSoC5/SPIM_EEPROM.c ****     enableInterrupts = CyEnterCriticalSection();
 829              		.loc 1 865 0
 830 0002 FFF7FEFF 		bl	CyEnterCriticalSection
 831              	.LVL54:
 866:Generated_Source\PSoC5/SPIM_EEPROM.c ****     /* Clear TX FIFO */
 867:Generated_Source\PSoC5/SPIM_EEPROM.c ****     SPIM_EEPROM_AUX_CONTROL_DP0_REG |= ((uint8)  SPIM_EEPROM_TX_FIFO_CLR);
 832              		.loc 1 867 0
 833 0006 0E4B     		ldr	r3, .L75
 834 0008 1A78     		ldrb	r2, [r3]	@ zero_extendqisi2
 835 000a 42F00102 		orr	r2, r2, #1
 836 000e 1A70     		strb	r2, [r3]
 868:Generated_Source\PSoC5/SPIM_EEPROM.c ****     SPIM_EEPROM_AUX_CONTROL_DP0_REG &= ((uint8) ~SPIM_EEPROM_TX_FIFO_CLR);
 837              		.loc 1 868 0
 838 0010 1A78     		ldrb	r2, [r3]	@ zero_extendqisi2
 839 0012 02F0FE02 		and	r2, r2, #254
 840 0016 1A70     		strb	r2, [r3]
 869:Generated_Source\PSoC5/SPIM_EEPROM.c **** 
 870:Generated_Source\PSoC5/SPIM_EEPROM.c ****     #if(SPIM_EEPROM_USE_SECOND_DATAPATH)
 871:Generated_Source\PSoC5/SPIM_EEPROM.c ****         /* Clear TX FIFO for 2nd Datapath */
 872:Generated_Source\PSoC5/SPIM_EEPROM.c ****         SPIM_EEPROM_AUX_CONTROL_DP1_REG |= ((uint8)  SPIM_EEPROM_TX_FIFO_CLR);
 873:Generated_Source\PSoC5/SPIM_EEPROM.c ****         SPIM_EEPROM_AUX_CONTROL_DP1_REG &= ((uint8) ~SPIM_EEPROM_TX_FIFO_CLR);
 874:Generated_Source\PSoC5/SPIM_EEPROM.c ****     #endif /* (SPIM_EEPROM_USE_SECOND_DATAPATH) */
 875:Generated_Source\PSoC5/SPIM_EEPROM.c ****     CyExitCriticalSection(enableInterrupts);
 841              		.loc 1 875 0
 842 0018 FFF7FEFF 		bl	CyExitCriticalSection
 843              	.LVL55:
 876:Generated_Source\PSoC5/SPIM_EEPROM.c **** 
 877:Generated_Source\PSoC5/SPIM_EEPROM.c ****     #if(SPIM_EEPROM_TX_SOFTWARE_BUF_ENABLED)
 878:Generated_Source\PSoC5/SPIM_EEPROM.c ****         /* Disable TX interrupt to protect global veriables */
 879:Generated_Source\PSoC5/SPIM_EEPROM.c ****         SPIM_EEPROM_DisableTxInt();
 844              		.loc 1 879 0
 845 001c FFF7FEFF 		bl	SPIM_EEPROM_DisableTxInt
 846              	.LVL56:
 880:Generated_Source\PSoC5/SPIM_EEPROM.c **** 
 881:Generated_Source\PSoC5/SPIM_EEPROM.c ****         SPIM_EEPROM_txBufferFull  = 0u;
 847              		.loc 1 881 0
 848 0020 0023     		movs	r3, #0
 849 0022 084A     		ldr	r2, .L75+4
 850 0024 1370     		strb	r3, [r2]
 882:Generated_Source\PSoC5/SPIM_EEPROM.c ****         SPIM_EEPROM_txBufferRead  = 0u;
 851              		.loc 1 882 0
 852 0026 084A     		ldr	r2, .L75+8
 853 0028 1370     		strb	r3, [r2]
 883:Generated_Source\PSoC5/SPIM_EEPROM.c ****         SPIM_EEPROM_txBufferWrite = 0u;
 854              		.loc 1 883 0
 855 002a 084A     		ldr	r2, .L75+12
 856 002c 1370     		strb	r3, [r2]
 884:Generated_Source\PSoC5/SPIM_EEPROM.c **** 
 885:Generated_Source\PSoC5/SPIM_EEPROM.c ****         /* Buffer is EMPTY: disable TX FIFO NOT FULL interrupt */
 886:Generated_Source\PSoC5/SPIM_EEPROM.c ****         SPIM_EEPROM_TX_STATUS_MASK_REG &= ((uint8) ~SPIM_EEPROM_STS_TX_FIFO_NOT_FULL);
 857              		.loc 1 886 0
 858 002e 084A     		ldr	r2, .L75+16
 859 0030 1378     		ldrb	r3, [r2]	@ zero_extendqisi2
ARM GAS  C:\Users\Manu\AppData\Local\Temp\cci7KmTz.s 			page 32


 860 0032 03F0FB03 		and	r3, r3, #251
 861 0036 1370     		strb	r3, [r2]
 887:Generated_Source\PSoC5/SPIM_EEPROM.c **** 
 888:Generated_Source\PSoC5/SPIM_EEPROM.c ****         SPIM_EEPROM_EnableTxInt();
 862              		.loc 1 888 0
 863 0038 FFF7FEFF 		bl	SPIM_EEPROM_EnableTxInt
 864              	.LVL57:
 865 003c 08BD     		pop	{r3, pc}
 866              	.L76:
 867 003e 00BF     		.align	2
 868              	.L75:
 869 0040 93640040 		.word	1073767571
 870 0044 00000000 		.word	SPIM_EEPROM_txBufferFull
 871 0048 00000000 		.word	SPIM_EEPROM_txBufferRead
 872 004c 00000000 		.word	SPIM_EEPROM_txBufferWrite
 873 0050 82640040 		.word	1073767554
 874              		.cfi_endproc
 875              	.LFE17:
 876              		.size	SPIM_EEPROM_ClearTxBuffer, .-SPIM_EEPROM_ClearTxBuffer
 877              		.section	.text.SPIM_EEPROM_PutArray,"ax",%progbits
 878              		.align	2
 879              		.global	SPIM_EEPROM_PutArray
 880              		.thumb
 881              		.thumb_func
 882              		.type	SPIM_EEPROM_PutArray, %function
 883              	SPIM_EEPROM_PutArray:
 884              	.LFB18:
 889:Generated_Source\PSoC5/SPIM_EEPROM.c ****     #endif /* (SPIM_EEPROM_TX_SOFTWARE_BUF_ENABLED) */
 890:Generated_Source\PSoC5/SPIM_EEPROM.c **** }
 891:Generated_Source\PSoC5/SPIM_EEPROM.c **** 
 892:Generated_Source\PSoC5/SPIM_EEPROM.c **** 
 893:Generated_Source\PSoC5/SPIM_EEPROM.c **** #if(0u != SPIM_EEPROM_BIDIRECTIONAL_MODE)
 894:Generated_Source\PSoC5/SPIM_EEPROM.c ****     /*******************************************************************************
 895:Generated_Source\PSoC5/SPIM_EEPROM.c ****     * Function Name: SPIM_EEPROM_TxEnable
 896:Generated_Source\PSoC5/SPIM_EEPROM.c ****     ********************************************************************************
 897:Generated_Source\PSoC5/SPIM_EEPROM.c ****     *
 898:Generated_Source\PSoC5/SPIM_EEPROM.c ****     * Summary:
 899:Generated_Source\PSoC5/SPIM_EEPROM.c ****     *  If the SPI master is configured to use a single bi-directional pin then this
 900:Generated_Source\PSoC5/SPIM_EEPROM.c ****     *  will set the bi-directional pin to transmit.
 901:Generated_Source\PSoC5/SPIM_EEPROM.c ****     *
 902:Generated_Source\PSoC5/SPIM_EEPROM.c ****     * Parameters:
 903:Generated_Source\PSoC5/SPIM_EEPROM.c ****     *  None.
 904:Generated_Source\PSoC5/SPIM_EEPROM.c ****     *
 905:Generated_Source\PSoC5/SPIM_EEPROM.c ****     * Return:
 906:Generated_Source\PSoC5/SPIM_EEPROM.c ****     *  None.
 907:Generated_Source\PSoC5/SPIM_EEPROM.c ****     *
 908:Generated_Source\PSoC5/SPIM_EEPROM.c ****     *******************************************************************************/
 909:Generated_Source\PSoC5/SPIM_EEPROM.c ****     void SPIM_EEPROM_TxEnable(void) 
 910:Generated_Source\PSoC5/SPIM_EEPROM.c ****     {
 911:Generated_Source\PSoC5/SPIM_EEPROM.c ****         SPIM_EEPROM_CONTROL_REG |= SPIM_EEPROM_CTRL_TX_SIGNAL_EN;
 912:Generated_Source\PSoC5/SPIM_EEPROM.c ****     }
 913:Generated_Source\PSoC5/SPIM_EEPROM.c **** 
 914:Generated_Source\PSoC5/SPIM_EEPROM.c **** 
 915:Generated_Source\PSoC5/SPIM_EEPROM.c ****     /*******************************************************************************
 916:Generated_Source\PSoC5/SPIM_EEPROM.c ****     * Function Name: SPIM_EEPROM_TxDisable
 917:Generated_Source\PSoC5/SPIM_EEPROM.c ****     ********************************************************************************
 918:Generated_Source\PSoC5/SPIM_EEPROM.c ****     *
ARM GAS  C:\Users\Manu\AppData\Local\Temp\cci7KmTz.s 			page 33


 919:Generated_Source\PSoC5/SPIM_EEPROM.c ****     * Summary:
 920:Generated_Source\PSoC5/SPIM_EEPROM.c ****     *  If the SPI master is configured to use a single bi-directional pin then this
 921:Generated_Source\PSoC5/SPIM_EEPROM.c ****     *  will set the bi-directional pin to receive.
 922:Generated_Source\PSoC5/SPIM_EEPROM.c ****     *
 923:Generated_Source\PSoC5/SPIM_EEPROM.c ****     * Parameters:
 924:Generated_Source\PSoC5/SPIM_EEPROM.c ****     *  None.
 925:Generated_Source\PSoC5/SPIM_EEPROM.c ****     *
 926:Generated_Source\PSoC5/SPIM_EEPROM.c ****     * Return:
 927:Generated_Source\PSoC5/SPIM_EEPROM.c ****     *  None.
 928:Generated_Source\PSoC5/SPIM_EEPROM.c ****     *
 929:Generated_Source\PSoC5/SPIM_EEPROM.c ****     *******************************************************************************/
 930:Generated_Source\PSoC5/SPIM_EEPROM.c ****     void SPIM_EEPROM_TxDisable(void) 
 931:Generated_Source\PSoC5/SPIM_EEPROM.c ****     {
 932:Generated_Source\PSoC5/SPIM_EEPROM.c ****         SPIM_EEPROM_CONTROL_REG &= ((uint8) ~SPIM_EEPROM_CTRL_TX_SIGNAL_EN);
 933:Generated_Source\PSoC5/SPIM_EEPROM.c ****     }
 934:Generated_Source\PSoC5/SPIM_EEPROM.c **** 
 935:Generated_Source\PSoC5/SPIM_EEPROM.c **** #endif /* (0u != SPIM_EEPROM_BIDIRECTIONAL_MODE) */
 936:Generated_Source\PSoC5/SPIM_EEPROM.c **** 
 937:Generated_Source\PSoC5/SPIM_EEPROM.c **** 
 938:Generated_Source\PSoC5/SPIM_EEPROM.c **** /*******************************************************************************
 939:Generated_Source\PSoC5/SPIM_EEPROM.c **** * Function Name: SPIM_EEPROM_PutArray
 940:Generated_Source\PSoC5/SPIM_EEPROM.c **** ********************************************************************************
 941:Generated_Source\PSoC5/SPIM_EEPROM.c **** *
 942:Generated_Source\PSoC5/SPIM_EEPROM.c **** * Summary:
 943:Generated_Source\PSoC5/SPIM_EEPROM.c **** *  Write available data from ROM/RAM to the TX buffer while space is available
 944:Generated_Source\PSoC5/SPIM_EEPROM.c **** *  in the TX buffer. Keep trying until all data is passed to the TX buffer.
 945:Generated_Source\PSoC5/SPIM_EEPROM.c **** *
 946:Generated_Source\PSoC5/SPIM_EEPROM.c **** * Parameters:
 947:Generated_Source\PSoC5/SPIM_EEPROM.c **** *  *buffer: Pointer to the location in RAM containing the data to send
 948:Generated_Source\PSoC5/SPIM_EEPROM.c **** *  byteCount: The number of bytes to move to the transmit buffer.
 949:Generated_Source\PSoC5/SPIM_EEPROM.c **** *
 950:Generated_Source\PSoC5/SPIM_EEPROM.c **** * Return:
 951:Generated_Source\PSoC5/SPIM_EEPROM.c **** *  None.
 952:Generated_Source\PSoC5/SPIM_EEPROM.c **** *
 953:Generated_Source\PSoC5/SPIM_EEPROM.c **** * Side Effects:
 954:Generated_Source\PSoC5/SPIM_EEPROM.c **** *  Will stay in this routine until all data has been sent.  May get locked in
 955:Generated_Source\PSoC5/SPIM_EEPROM.c **** *  this loop if data is not being initiated by the master if there is not
 956:Generated_Source\PSoC5/SPIM_EEPROM.c **** *  enough room in the TX FIFO.
 957:Generated_Source\PSoC5/SPIM_EEPROM.c **** *
 958:Generated_Source\PSoC5/SPIM_EEPROM.c **** * Reentrant:
 959:Generated_Source\PSoC5/SPIM_EEPROM.c **** *  No.
 960:Generated_Source\PSoC5/SPIM_EEPROM.c **** *
 961:Generated_Source\PSoC5/SPIM_EEPROM.c **** *******************************************************************************/
 962:Generated_Source\PSoC5/SPIM_EEPROM.c **** void SPIM_EEPROM_PutArray(const uint8 buffer[], uint8 byteCount)
 963:Generated_Source\PSoC5/SPIM_EEPROM.c ****                                                                           
 964:Generated_Source\PSoC5/SPIM_EEPROM.c **** {
 885              		.loc 1 964 0
 886              		.cfi_startproc
 887              		@ args = 0, pretend = 0, frame = 0
 888              		@ frame_needed = 0, uses_anonymous_args = 0
 889              	.LVL58:
 890 0000 70B5     		push	{r4, r5, r6, lr}
 891              		.cfi_def_cfa_offset 16
 892              		.cfi_offset 4, -16
 893              		.cfi_offset 5, -12
 894              		.cfi_offset 6, -8
 895              		.cfi_offset 14, -4
ARM GAS  C:\Users\Manu\AppData\Local\Temp\cci7KmTz.s 			page 34


 896 0002 0646     		mov	r6, r0
 897 0004 0C46     		mov	r4, r1
 898              	.LVL59:
 965:Generated_Source\PSoC5/SPIM_EEPROM.c ****     uint8 bufIndex;
 966:Generated_Source\PSoC5/SPIM_EEPROM.c **** 
 967:Generated_Source\PSoC5/SPIM_EEPROM.c ****     bufIndex = 0u;
 899              		.loc 1 967 0
 900 0006 0025     		movs	r5, #0
 968:Generated_Source\PSoC5/SPIM_EEPROM.c **** 
 969:Generated_Source\PSoC5/SPIM_EEPROM.c ****     while(byteCount > 0u)
 901              		.loc 1 969 0
 902 0008 06E0     		b	.L78
 903              	.LVL60:
 904              	.L79:
 970:Generated_Source\PSoC5/SPIM_EEPROM.c ****     {
 971:Generated_Source\PSoC5/SPIM_EEPROM.c ****         SPIM_EEPROM_WriteTxData(buffer[bufIndex]);
 905              		.loc 1 971 0
 906 000a 705D     		ldrb	r0, [r6, r5]	@ zero_extendqisi2
 907 000c FFF7FEFF 		bl	SPIM_EEPROM_WriteTxData
 908              	.LVL61:
 972:Generated_Source\PSoC5/SPIM_EEPROM.c ****         bufIndex++;
 909              		.loc 1 972 0
 910 0010 0135     		adds	r5, r5, #1
 911              	.LVL62:
 912 0012 EDB2     		uxtb	r5, r5
 913              	.LVL63:
 973:Generated_Source\PSoC5/SPIM_EEPROM.c ****         byteCount--;
 914              		.loc 1 973 0
 915 0014 013C     		subs	r4, r4, #1
 916              	.LVL64:
 917 0016 E4B2     		uxtb	r4, r4
 918              	.LVL65:
 919              	.L78:
 969:Generated_Source\PSoC5/SPIM_EEPROM.c ****     {
 920              		.loc 1 969 0
 921 0018 002C     		cmp	r4, #0
 922 001a F6D1     		bne	.L79
 974:Generated_Source\PSoC5/SPIM_EEPROM.c ****     }
 975:Generated_Source\PSoC5/SPIM_EEPROM.c **** }
 923              		.loc 1 975 0
 924 001c 70BD     		pop	{r4, r5, r6, pc}
 925              		.cfi_endproc
 926              	.LFE18:
 927              		.size	SPIM_EEPROM_PutArray, .-SPIM_EEPROM_PutArray
 928 001e 00BF     		.section	.text.SPIM_EEPROM_ClearFIFO,"ax",%progbits
 929              		.align	2
 930              		.global	SPIM_EEPROM_ClearFIFO
 931              		.thumb
 932              		.thumb_func
 933              		.type	SPIM_EEPROM_ClearFIFO, %function
 934              	SPIM_EEPROM_ClearFIFO:
 935              	.LFB19:
 976:Generated_Source\PSoC5/SPIM_EEPROM.c **** 
 977:Generated_Source\PSoC5/SPIM_EEPROM.c **** 
 978:Generated_Source\PSoC5/SPIM_EEPROM.c **** /*******************************************************************************
 979:Generated_Source\PSoC5/SPIM_EEPROM.c **** * Function Name: SPIM_EEPROM_ClearFIFO
 980:Generated_Source\PSoC5/SPIM_EEPROM.c **** ********************************************************************************
ARM GAS  C:\Users\Manu\AppData\Local\Temp\cci7KmTz.s 			page 35


 981:Generated_Source\PSoC5/SPIM_EEPROM.c **** *
 982:Generated_Source\PSoC5/SPIM_EEPROM.c **** * Summary:
 983:Generated_Source\PSoC5/SPIM_EEPROM.c **** *  Clear the RX and TX FIFO's of all data for a fresh start.
 984:Generated_Source\PSoC5/SPIM_EEPROM.c **** *
 985:Generated_Source\PSoC5/SPIM_EEPROM.c **** * Parameters:
 986:Generated_Source\PSoC5/SPIM_EEPROM.c **** *  None.
 987:Generated_Source\PSoC5/SPIM_EEPROM.c **** *
 988:Generated_Source\PSoC5/SPIM_EEPROM.c **** * Return:
 989:Generated_Source\PSoC5/SPIM_EEPROM.c **** *  None.
 990:Generated_Source\PSoC5/SPIM_EEPROM.c **** *
 991:Generated_Source\PSoC5/SPIM_EEPROM.c **** * Side Effects:
 992:Generated_Source\PSoC5/SPIM_EEPROM.c **** *  Clear status register of the component.
 993:Generated_Source\PSoC5/SPIM_EEPROM.c **** *
 994:Generated_Source\PSoC5/SPIM_EEPROM.c **** *******************************************************************************/
 995:Generated_Source\PSoC5/SPIM_EEPROM.c **** void SPIM_EEPROM_ClearFIFO(void) 
 996:Generated_Source\PSoC5/SPIM_EEPROM.c **** {
 936              		.loc 1 996 0
 937              		.cfi_startproc
 938              		@ args = 0, pretend = 0, frame = 0
 939              		@ frame_needed = 0, uses_anonymous_args = 0
 940 0000 08B5     		push	{r3, lr}
 941              		.cfi_def_cfa_offset 8
 942              		.cfi_offset 3, -8
 943              		.cfi_offset 14, -4
 997:Generated_Source\PSoC5/SPIM_EEPROM.c ****     uint8 enableInterrupts;
 998:Generated_Source\PSoC5/SPIM_EEPROM.c **** 
 999:Generated_Source\PSoC5/SPIM_EEPROM.c ****     /* Clear Hardware RX FIFO */
1000:Generated_Source\PSoC5/SPIM_EEPROM.c ****     while(0u !=(SPIM_EEPROM_RX_STATUS_REG & SPIM_EEPROM_STS_RX_FIFO_NOT_EMPTY))
 944              		.loc 1 1000 0
 945 0002 01E0     		b	.L82
 946              	.L83:
1001:Generated_Source\PSoC5/SPIM_EEPROM.c ****     {
1002:Generated_Source\PSoC5/SPIM_EEPROM.c ****         (void) CY_GET_REG8(SPIM_EEPROM_RXDATA_PTR);
 947              		.loc 1 1002 0
 948 0004 0A4B     		ldr	r3, .L85
 949 0006 1B78     		ldrb	r3, [r3]	@ zero_extendqisi2
 950              	.L82:
1000:Generated_Source\PSoC5/SPIM_EEPROM.c ****     {
 951              		.loc 1 1000 0
 952 0008 0A4B     		ldr	r3, .L85+4
 953 000a 1B78     		ldrb	r3, [r3]	@ zero_extendqisi2
 954 000c 13F0200F 		tst	r3, #32
 955 0010 F8D1     		bne	.L83
1003:Generated_Source\PSoC5/SPIM_EEPROM.c ****     }
1004:Generated_Source\PSoC5/SPIM_EEPROM.c **** 
1005:Generated_Source\PSoC5/SPIM_EEPROM.c ****     enableInterrupts = CyEnterCriticalSection();
 956              		.loc 1 1005 0
 957 0012 FFF7FEFF 		bl	CyEnterCriticalSection
 958              	.LVL66:
1006:Generated_Source\PSoC5/SPIM_EEPROM.c ****     /* Clear TX FIFO */
1007:Generated_Source\PSoC5/SPIM_EEPROM.c ****     SPIM_EEPROM_AUX_CONTROL_DP0_REG |= ((uint8)  SPIM_EEPROM_TX_FIFO_CLR);
 959              		.loc 1 1007 0
 960 0016 084B     		ldr	r3, .L85+8
 961 0018 1A78     		ldrb	r2, [r3]	@ zero_extendqisi2
 962 001a 42F00102 		orr	r2, r2, #1
 963 001e 1A70     		strb	r2, [r3]
1008:Generated_Source\PSoC5/SPIM_EEPROM.c ****     SPIM_EEPROM_AUX_CONTROL_DP0_REG &= ((uint8) ~SPIM_EEPROM_TX_FIFO_CLR);
ARM GAS  C:\Users\Manu\AppData\Local\Temp\cci7KmTz.s 			page 36


 964              		.loc 1 1008 0
 965 0020 1A78     		ldrb	r2, [r3]	@ zero_extendqisi2
 966 0022 02F0FE02 		and	r2, r2, #254
 967 0026 1A70     		strb	r2, [r3]
1009:Generated_Source\PSoC5/SPIM_EEPROM.c **** 
1010:Generated_Source\PSoC5/SPIM_EEPROM.c ****     #if(SPIM_EEPROM_USE_SECOND_DATAPATH)
1011:Generated_Source\PSoC5/SPIM_EEPROM.c ****         /* Clear TX FIFO for 2nd Datapath */
1012:Generated_Source\PSoC5/SPIM_EEPROM.c ****         SPIM_EEPROM_AUX_CONTROL_DP1_REG |= ((uint8)  SPIM_EEPROM_TX_FIFO_CLR);
1013:Generated_Source\PSoC5/SPIM_EEPROM.c ****         SPIM_EEPROM_AUX_CONTROL_DP1_REG &= ((uint8) ~SPIM_EEPROM_TX_FIFO_CLR);
1014:Generated_Source\PSoC5/SPIM_EEPROM.c ****     #endif /* (SPIM_EEPROM_USE_SECOND_DATAPATH) */
1015:Generated_Source\PSoC5/SPIM_EEPROM.c ****     CyExitCriticalSection(enableInterrupts);
 968              		.loc 1 1015 0
 969 0028 FFF7FEFF 		bl	CyExitCriticalSection
 970              	.LVL67:
 971 002c 08BD     		pop	{r3, pc}
 972              	.L86:
 973 002e 00BF     		.align	2
 974              	.L85:
 975 0030 53640040 		.word	1073767507
 976 0034 60640040 		.word	1073767520
 977 0038 93640040 		.word	1073767571
 978              		.cfi_endproc
 979              	.LFE19:
 980              		.size	SPIM_EEPROM_ClearFIFO, .-SPIM_EEPROM_ClearFIFO
 981              		.section	.text.SPIM_EEPROM_Init,"ax",%progbits
 982              		.align	2
 983              		.global	SPIM_EEPROM_Init
 984              		.thumb
 985              		.thumb_func
 986              		.type	SPIM_EEPROM_Init, %function
 987              	SPIM_EEPROM_Init:
 988              	.LFB0:
  64:Generated_Source\PSoC5/SPIM_EEPROM.c ****     /* Initialize the Bit counter */
 989              		.loc 1 64 0
 990              		.cfi_startproc
 991              		@ args = 0, pretend = 0, frame = 0
 992              		@ frame_needed = 0, uses_anonymous_args = 0
 993 0000 10B5     		push	{r4, lr}
 994              		.cfi_def_cfa_offset 8
 995              		.cfi_offset 4, -8
 996              		.cfi_offset 14, -4
  66:Generated_Source\PSoC5/SPIM_EEPROM.c **** 
 997              		.loc 1 66 0
 998 0002 0F22     		movs	r2, #15
 999 0004 174B     		ldr	r3, .L89
 1000 0006 1A70     		strb	r2, [r3]
  70:Generated_Source\PSoC5/SPIM_EEPROM.c ****         CyIntSetPriority     (SPIM_EEPROM_TX_ISR_NUMBER,  SPIM_EEPROM_TX_ISR_PRIORITY);
 1001              		.loc 1 70 0
 1002 0008 174C     		ldr	r4, .L89+4
 1003 000a 1023     		movs	r3, #16
 1004 000c 2360     		str	r3, [r4]
  71:Generated_Source\PSoC5/SPIM_EEPROM.c ****         (void) CyIntSetVector(SPIM_EEPROM_TX_ISR_NUMBER, &SPIM_EEPROM_TX_ISR);
 1005              		.loc 1 71 0
 1006 000e 0421     		movs	r1, #4
 1007 0010 0846     		mov	r0, r1
 1008 0012 FFF7FEFF 		bl	CyIntSetPriority
 1009              	.LVL68:
ARM GAS  C:\Users\Manu\AppData\Local\Temp\cci7KmTz.s 			page 37


  72:Generated_Source\PSoC5/SPIM_EEPROM.c ****     #endif /* (0u != SPIM_EEPROM_INTERNAL_TX_INT_ENABLED) */
 1010              		.loc 1 72 0
 1011 0016 1549     		ldr	r1, .L89+8
 1012 0018 0420     		movs	r0, #4
 1013 001a FFF7FEFF 		bl	CyIntSetVector
 1014              	.LVL69:
  77:Generated_Source\PSoC5/SPIM_EEPROM.c ****         CyIntSetPriority     (SPIM_EEPROM_RX_ISR_NUMBER,  SPIM_EEPROM_RX_ISR_PRIORITY);
 1015              		.loc 1 77 0
 1016 001e 0823     		movs	r3, #8
 1017 0020 2360     		str	r3, [r4]
  78:Generated_Source\PSoC5/SPIM_EEPROM.c ****         (void) CyIntSetVector(SPIM_EEPROM_RX_ISR_NUMBER, &SPIM_EEPROM_RX_ISR);
 1018              		.loc 1 78 0
 1019 0022 0421     		movs	r1, #4
 1020 0024 0320     		movs	r0, #3
 1021 0026 FFF7FEFF 		bl	CyIntSetPriority
 1022              	.LVL70:
  79:Generated_Source\PSoC5/SPIM_EEPROM.c ****     #endif /* (0u != SPIM_EEPROM_INTERNAL_RX_INT_ENABLED) */
 1023              		.loc 1 79 0
 1024 002a 1149     		ldr	r1, .L89+12
 1025 002c 0320     		movs	r0, #3
 1026 002e FFF7FEFF 		bl	CyIntSetVector
 1027              	.LVL71:
  83:Generated_Source\PSoC5/SPIM_EEPROM.c **** 
 1028              		.loc 1 83 0
 1029 0032 FFF7FEFF 		bl	SPIM_EEPROM_ClearFIFO
 1030              	.LVL72:
  86:Generated_Source\PSoC5/SPIM_EEPROM.c ****         SPIM_EEPROM_rxBufferRead  = 0u;
 1031              		.loc 1 86 0
 1032 0036 0024     		movs	r4, #0
 1033 0038 0E4B     		ldr	r3, .L89+16
 1034 003a 1C70     		strb	r4, [r3]
  87:Generated_Source\PSoC5/SPIM_EEPROM.c ****         SPIM_EEPROM_rxBufferWrite = 0u;
 1035              		.loc 1 87 0
 1036 003c 0E4B     		ldr	r3, .L89+20
 1037 003e 1C70     		strb	r4, [r3]
  88:Generated_Source\PSoC5/SPIM_EEPROM.c ****     #endif /* (SPIM_EEPROM_RX_SOFTWARE_BUF_ENABLED) */
 1038              		.loc 1 88 0
 1039 0040 0E4B     		ldr	r3, .L89+24
 1040 0042 1C70     		strb	r4, [r3]
  92:Generated_Source\PSoC5/SPIM_EEPROM.c ****         SPIM_EEPROM_txBufferRead  = 0u;
 1041              		.loc 1 92 0
 1042 0044 0E4B     		ldr	r3, .L89+28
 1043 0046 1C70     		strb	r4, [r3]
  93:Generated_Source\PSoC5/SPIM_EEPROM.c ****         SPIM_EEPROM_txBufferWrite = 0u;
 1044              		.loc 1 93 0
 1045 0048 0E4B     		ldr	r3, .L89+32
 1046 004a 1C70     		strb	r4, [r3]
  94:Generated_Source\PSoC5/SPIM_EEPROM.c ****     #endif /* (SPIM_EEPROM_TX_SOFTWARE_BUF_ENABLED) */
 1047              		.loc 1 94 0
 1048 004c 0E4B     		ldr	r3, .L89+36
 1049 004e 1C70     		strb	r4, [r3]
  97:Generated_Source\PSoC5/SPIM_EEPROM.c ****     (void) SPIM_EEPROM_ReadRxStatus(); /* Clear Rx status and swStatusRx */
 1050              		.loc 1 97 0
 1051 0050 FFF7FEFF 		bl	SPIM_EEPROM_ReadTxStatus
 1052              	.LVL73:
  98:Generated_Source\PSoC5/SPIM_EEPROM.c **** 
 1053              		.loc 1 98 0
ARM GAS  C:\Users\Manu\AppData\Local\Temp\cci7KmTz.s 			page 38


 1054 0054 FFF7FEFF 		bl	SPIM_EEPROM_ReadRxStatus
 1055              	.LVL74:
 101:Generated_Source\PSoC5/SPIM_EEPROM.c ****     SPIM_EEPROM_RX_STATUS_MASK_REG = SPIM_EEPROM_RX_INIT_INTERRUPTS_MASK;
 1056              		.loc 1 101 0
 1057 0058 0C4B     		ldr	r3, .L89+40
 1058 005a 1C70     		strb	r4, [r3]
 102:Generated_Source\PSoC5/SPIM_EEPROM.c **** }
 1059              		.loc 1 102 0
 1060 005c 2022     		movs	r2, #32
 1061 005e 023B     		subs	r3, r3, #2
 1062 0060 1A70     		strb	r2, [r3]
 1063 0062 10BD     		pop	{r4, pc}
 1064              	.L90:
 1065              		.align	2
 1066              	.L89:
 1067 0064 83640040 		.word	1073767555
 1068 0068 80E100E0 		.word	-536813184
 1069 006c 00000000 		.word	SPIM_EEPROM_TX_ISR
 1070 0070 00000000 		.word	SPIM_EEPROM_RX_ISR
 1071 0074 00000000 		.word	SPIM_EEPROM_rxBufferFull
 1072 0078 00000000 		.word	SPIM_EEPROM_rxBufferRead
 1073 007c 00000000 		.word	SPIM_EEPROM_rxBufferWrite
 1074 0080 00000000 		.word	SPIM_EEPROM_txBufferFull
 1075 0084 00000000 		.word	SPIM_EEPROM_txBufferRead
 1076 0088 00000000 		.word	SPIM_EEPROM_txBufferWrite
 1077 008c 82640040 		.word	1073767554
 1078              		.cfi_endproc
 1079              	.LFE0:
 1080              		.size	SPIM_EEPROM_Init, .-SPIM_EEPROM_Init
 1081              		.section	.text.SPIM_EEPROM_Start,"ax",%progbits
 1082              		.align	2
 1083              		.global	SPIM_EEPROM_Start
 1084              		.thumb
 1085              		.thumb_func
 1086              		.type	SPIM_EEPROM_Start, %function
 1087              	SPIM_EEPROM_Start:
 1088              	.LFB2:
 164:Generated_Source\PSoC5/SPIM_EEPROM.c ****     if(0u == SPIM_EEPROM_initVar)
 1089              		.loc 1 164 0
 1090              		.cfi_startproc
 1091              		@ args = 0, pretend = 0, frame = 0
 1092              		@ frame_needed = 0, uses_anonymous_args = 0
 1093 0000 08B5     		push	{r3, lr}
 1094              		.cfi_def_cfa_offset 8
 1095              		.cfi_offset 3, -8
 1096              		.cfi_offset 14, -4
 165:Generated_Source\PSoC5/SPIM_EEPROM.c ****     {
 1097              		.loc 1 165 0
 1098 0002 054B     		ldr	r3, .L94
 1099 0004 1B78     		ldrb	r3, [r3]	@ zero_extendqisi2
 1100 0006 23B9     		cbnz	r3, .L92
 167:Generated_Source\PSoC5/SPIM_EEPROM.c ****         SPIM_EEPROM_initVar = 1u;
 1101              		.loc 1 167 0
 1102 0008 FFF7FEFF 		bl	SPIM_EEPROM_Init
 1103              	.LVL75:
 168:Generated_Source\PSoC5/SPIM_EEPROM.c ****     }
 1104              		.loc 1 168 0
ARM GAS  C:\Users\Manu\AppData\Local\Temp\cci7KmTz.s 			page 39


 1105 000c 0122     		movs	r2, #1
 1106 000e 024B     		ldr	r3, .L94
 1107 0010 1A70     		strb	r2, [r3]
 1108              	.L92:
 171:Generated_Source\PSoC5/SPIM_EEPROM.c **** }
 1109              		.loc 1 171 0
 1110 0012 FFF7FEFF 		bl	SPIM_EEPROM_Enable
 1111              	.LVL76:
 1112 0016 08BD     		pop	{r3, pc}
 1113              	.L95:
 1114              		.align	2
 1115              	.L94:
 1116 0018 00000000 		.word	.LANCHOR0
 1117              		.cfi_endproc
 1118              	.LFE2:
 1119              		.size	SPIM_EEPROM_Start, .-SPIM_EEPROM_Start
 1120              		.section	.text.SPIM_EEPROM_EnableInt,"ax",%progbits
 1121              		.align	2
 1122              		.global	SPIM_EEPROM_EnableInt
 1123              		.thumb
 1124              		.thumb_func
 1125              		.type	SPIM_EEPROM_EnableInt, %function
 1126              	SPIM_EEPROM_EnableInt:
 1127              	.LFB20:
1016:Generated_Source\PSoC5/SPIM_EEPROM.c **** }
1017:Generated_Source\PSoC5/SPIM_EEPROM.c **** 
1018:Generated_Source\PSoC5/SPIM_EEPROM.c **** 
1019:Generated_Source\PSoC5/SPIM_EEPROM.c **** /* Following functions are for version Compatibility, they are obsolete.
1020:Generated_Source\PSoC5/SPIM_EEPROM.c **** *  Please do not use it in new projects.
1021:Generated_Source\PSoC5/SPIM_EEPROM.c **** */
1022:Generated_Source\PSoC5/SPIM_EEPROM.c **** 
1023:Generated_Source\PSoC5/SPIM_EEPROM.c **** 
1024:Generated_Source\PSoC5/SPIM_EEPROM.c **** /*******************************************************************************
1025:Generated_Source\PSoC5/SPIM_EEPROM.c **** * Function Name: SPIM_EEPROM_EnableInt
1026:Generated_Source\PSoC5/SPIM_EEPROM.c **** ********************************************************************************
1027:Generated_Source\PSoC5/SPIM_EEPROM.c **** *
1028:Generated_Source\PSoC5/SPIM_EEPROM.c **** * Summary:
1029:Generated_Source\PSoC5/SPIM_EEPROM.c **** *  Enable internal interrupt generation.
1030:Generated_Source\PSoC5/SPIM_EEPROM.c **** *
1031:Generated_Source\PSoC5/SPIM_EEPROM.c **** * Parameters:
1032:Generated_Source\PSoC5/SPIM_EEPROM.c **** *  None.
1033:Generated_Source\PSoC5/SPIM_EEPROM.c **** *
1034:Generated_Source\PSoC5/SPIM_EEPROM.c **** * Return:
1035:Generated_Source\PSoC5/SPIM_EEPROM.c **** *  None.
1036:Generated_Source\PSoC5/SPIM_EEPROM.c **** *
1037:Generated_Source\PSoC5/SPIM_EEPROM.c **** * Theory:
1038:Generated_Source\PSoC5/SPIM_EEPROM.c **** *  Enable the internal interrupt output -or- the interrupt component itself.
1039:Generated_Source\PSoC5/SPIM_EEPROM.c **** *
1040:Generated_Source\PSoC5/SPIM_EEPROM.c **** *******************************************************************************/
1041:Generated_Source\PSoC5/SPIM_EEPROM.c **** void SPIM_EEPROM_EnableInt(void) 
1042:Generated_Source\PSoC5/SPIM_EEPROM.c **** {
 1128              		.loc 1 1042 0
 1129              		.cfi_startproc
 1130              		@ args = 0, pretend = 0, frame = 0
 1131              		@ frame_needed = 0, uses_anonymous_args = 0
 1132 0000 08B5     		push	{r3, lr}
 1133              		.cfi_def_cfa_offset 8
ARM GAS  C:\Users\Manu\AppData\Local\Temp\cci7KmTz.s 			page 40


 1134              		.cfi_offset 3, -8
 1135              		.cfi_offset 14, -4
1043:Generated_Source\PSoC5/SPIM_EEPROM.c ****     SPIM_EEPROM_EnableRxInt();
 1136              		.loc 1 1043 0
 1137 0002 FFF7FEFF 		bl	SPIM_EEPROM_EnableRxInt
 1138              	.LVL77:
1044:Generated_Source\PSoC5/SPIM_EEPROM.c ****     SPIM_EEPROM_EnableTxInt();
 1139              		.loc 1 1044 0
 1140 0006 FFF7FEFF 		bl	SPIM_EEPROM_EnableTxInt
 1141              	.LVL78:
 1142 000a 08BD     		pop	{r3, pc}
 1143              		.cfi_endproc
 1144              	.LFE20:
 1145              		.size	SPIM_EEPROM_EnableInt, .-SPIM_EEPROM_EnableInt
 1146              		.section	.text.SPIM_EEPROM_DisableInt,"ax",%progbits
 1147              		.align	2
 1148              		.global	SPIM_EEPROM_DisableInt
 1149              		.thumb
 1150              		.thumb_func
 1151              		.type	SPIM_EEPROM_DisableInt, %function
 1152              	SPIM_EEPROM_DisableInt:
 1153              	.LFB21:
1045:Generated_Source\PSoC5/SPIM_EEPROM.c **** }
1046:Generated_Source\PSoC5/SPIM_EEPROM.c **** 
1047:Generated_Source\PSoC5/SPIM_EEPROM.c **** 
1048:Generated_Source\PSoC5/SPIM_EEPROM.c **** /*******************************************************************************
1049:Generated_Source\PSoC5/SPIM_EEPROM.c **** * Function Name: SPIM_EEPROM_DisableInt
1050:Generated_Source\PSoC5/SPIM_EEPROM.c **** ********************************************************************************
1051:Generated_Source\PSoC5/SPIM_EEPROM.c **** *
1052:Generated_Source\PSoC5/SPIM_EEPROM.c **** * Summary:
1053:Generated_Source\PSoC5/SPIM_EEPROM.c **** *  Disable internal interrupt generation.
1054:Generated_Source\PSoC5/SPIM_EEPROM.c **** *
1055:Generated_Source\PSoC5/SPIM_EEPROM.c **** * Parameters:
1056:Generated_Source\PSoC5/SPIM_EEPROM.c **** *  None.
1057:Generated_Source\PSoC5/SPIM_EEPROM.c **** *
1058:Generated_Source\PSoC5/SPIM_EEPROM.c **** * Return:
1059:Generated_Source\PSoC5/SPIM_EEPROM.c **** *  None.
1060:Generated_Source\PSoC5/SPIM_EEPROM.c **** *
1061:Generated_Source\PSoC5/SPIM_EEPROM.c **** * Theory:
1062:Generated_Source\PSoC5/SPIM_EEPROM.c **** *  Disable the internal interrupt output -or- the interrupt component itself.
1063:Generated_Source\PSoC5/SPIM_EEPROM.c **** *
1064:Generated_Source\PSoC5/SPIM_EEPROM.c **** *******************************************************************************/
1065:Generated_Source\PSoC5/SPIM_EEPROM.c **** void SPIM_EEPROM_DisableInt(void) 
1066:Generated_Source\PSoC5/SPIM_EEPROM.c **** {
 1154              		.loc 1 1066 0
 1155              		.cfi_startproc
 1156              		@ args = 0, pretend = 0, frame = 0
 1157              		@ frame_needed = 0, uses_anonymous_args = 0
 1158 0000 08B5     		push	{r3, lr}
 1159              		.cfi_def_cfa_offset 8
 1160              		.cfi_offset 3, -8
 1161              		.cfi_offset 14, -4
1067:Generated_Source\PSoC5/SPIM_EEPROM.c ****     SPIM_EEPROM_DisableTxInt();
 1162              		.loc 1 1067 0
 1163 0002 FFF7FEFF 		bl	SPIM_EEPROM_DisableTxInt
 1164              	.LVL79:
1068:Generated_Source\PSoC5/SPIM_EEPROM.c ****     SPIM_EEPROM_DisableRxInt();
ARM GAS  C:\Users\Manu\AppData\Local\Temp\cci7KmTz.s 			page 41


 1165              		.loc 1 1068 0
 1166 0006 FFF7FEFF 		bl	SPIM_EEPROM_DisableRxInt
 1167              	.LVL80:
 1168 000a 08BD     		pop	{r3, pc}
 1169              		.cfi_endproc
 1170              	.LFE21:
 1171              		.size	SPIM_EEPROM_DisableInt, .-SPIM_EEPROM_DisableInt
 1172              		.section	.text.SPIM_EEPROM_SetInterruptMode,"ax",%progbits
 1173              		.align	2
 1174              		.global	SPIM_EEPROM_SetInterruptMode
 1175              		.thumb
 1176              		.thumb_func
 1177              		.type	SPIM_EEPROM_SetInterruptMode, %function
 1178              	SPIM_EEPROM_SetInterruptMode:
 1179              	.LFB22:
1069:Generated_Source\PSoC5/SPIM_EEPROM.c **** }
1070:Generated_Source\PSoC5/SPIM_EEPROM.c **** 
1071:Generated_Source\PSoC5/SPIM_EEPROM.c **** 
1072:Generated_Source\PSoC5/SPIM_EEPROM.c **** /*******************************************************************************
1073:Generated_Source\PSoC5/SPIM_EEPROM.c **** * Function Name: SPIM_EEPROM_SetInterruptMode
1074:Generated_Source\PSoC5/SPIM_EEPROM.c **** ********************************************************************************
1075:Generated_Source\PSoC5/SPIM_EEPROM.c **** *
1076:Generated_Source\PSoC5/SPIM_EEPROM.c **** * Summary:
1077:Generated_Source\PSoC5/SPIM_EEPROM.c **** *  Configure which status bits trigger an interrupt event.
1078:Generated_Source\PSoC5/SPIM_EEPROM.c **** *
1079:Generated_Source\PSoC5/SPIM_EEPROM.c **** * Parameters:
1080:Generated_Source\PSoC5/SPIM_EEPROM.c **** *  intSrc: An or'd combination of the desired status bit masks (defined in the
1081:Generated_Source\PSoC5/SPIM_EEPROM.c **** *  header file).
1082:Generated_Source\PSoC5/SPIM_EEPROM.c **** *
1083:Generated_Source\PSoC5/SPIM_EEPROM.c **** * Return:
1084:Generated_Source\PSoC5/SPIM_EEPROM.c **** *  None.
1085:Generated_Source\PSoC5/SPIM_EEPROM.c **** *
1086:Generated_Source\PSoC5/SPIM_EEPROM.c **** * Theory:
1087:Generated_Source\PSoC5/SPIM_EEPROM.c **** *  Enables the output of specific status bits to the interrupt controller.
1088:Generated_Source\PSoC5/SPIM_EEPROM.c **** *
1089:Generated_Source\PSoC5/SPIM_EEPROM.c **** *******************************************************************************/
1090:Generated_Source\PSoC5/SPIM_EEPROM.c **** void SPIM_EEPROM_SetInterruptMode(uint8 intSrc) 
1091:Generated_Source\PSoC5/SPIM_EEPROM.c **** {
 1180              		.loc 1 1091 0
 1181              		.cfi_startproc
 1182              		@ args = 0, pretend = 0, frame = 0
 1183              		@ frame_needed = 0, uses_anonymous_args = 0
 1184              		@ link register save eliminated.
 1185              	.LVL81:
1092:Generated_Source\PSoC5/SPIM_EEPROM.c ****     SPIM_EEPROM_TX_STATUS_MASK_REG  = (intSrc & ((uint8) ~SPIM_EEPROM_STS_SPI_IDLE));
 1186              		.loc 1 1092 0
 1187 0000 00F0EF02 		and	r2, r0, #239
 1188 0004 024B     		ldr	r3, .L101
 1189 0006 1A70     		strb	r2, [r3]
1093:Generated_Source\PSoC5/SPIM_EEPROM.c ****     SPIM_EEPROM_RX_STATUS_MASK_REG  =  intSrc;
 1190              		.loc 1 1093 0
 1191 0008 023B     		subs	r3, r3, #2
 1192 000a 1870     		strb	r0, [r3]
 1193 000c 7047     		bx	lr
 1194              	.L102:
 1195 000e 00BF     		.align	2
 1196              	.L101:
ARM GAS  C:\Users\Manu\AppData\Local\Temp\cci7KmTz.s 			page 42


 1197 0010 82640040 		.word	1073767554
 1198              		.cfi_endproc
 1199              	.LFE22:
 1200              		.size	SPIM_EEPROM_SetInterruptMode, .-SPIM_EEPROM_SetInterruptMode
 1201              		.section	.text.SPIM_EEPROM_ReadStatus,"ax",%progbits
 1202              		.align	2
 1203              		.global	SPIM_EEPROM_ReadStatus
 1204              		.thumb
 1205              		.thumb_func
 1206              		.type	SPIM_EEPROM_ReadStatus, %function
 1207              	SPIM_EEPROM_ReadStatus:
 1208              	.LFB23:
1094:Generated_Source\PSoC5/SPIM_EEPROM.c **** }
1095:Generated_Source\PSoC5/SPIM_EEPROM.c **** 
1096:Generated_Source\PSoC5/SPIM_EEPROM.c **** 
1097:Generated_Source\PSoC5/SPIM_EEPROM.c **** /*******************************************************************************
1098:Generated_Source\PSoC5/SPIM_EEPROM.c **** * Function Name: SPIM_EEPROM_ReadStatus
1099:Generated_Source\PSoC5/SPIM_EEPROM.c **** ********************************************************************************
1100:Generated_Source\PSoC5/SPIM_EEPROM.c **** *
1101:Generated_Source\PSoC5/SPIM_EEPROM.c **** * Summary:
1102:Generated_Source\PSoC5/SPIM_EEPROM.c **** *  Read the status register for the component.
1103:Generated_Source\PSoC5/SPIM_EEPROM.c **** *
1104:Generated_Source\PSoC5/SPIM_EEPROM.c **** * Parameters:
1105:Generated_Source\PSoC5/SPIM_EEPROM.c **** *  None.
1106:Generated_Source\PSoC5/SPIM_EEPROM.c **** *
1107:Generated_Source\PSoC5/SPIM_EEPROM.c **** * Return:
1108:Generated_Source\PSoC5/SPIM_EEPROM.c **** *  Contents of the status register.
1109:Generated_Source\PSoC5/SPIM_EEPROM.c **** *
1110:Generated_Source\PSoC5/SPIM_EEPROM.c **** * Global variables:
1111:Generated_Source\PSoC5/SPIM_EEPROM.c **** *  SPIM_EEPROM_swStatus - used to store in software status register,
1112:Generated_Source\PSoC5/SPIM_EEPROM.c **** *  modified every function call - resets to zero.
1113:Generated_Source\PSoC5/SPIM_EEPROM.c **** *
1114:Generated_Source\PSoC5/SPIM_EEPROM.c **** * Theory:
1115:Generated_Source\PSoC5/SPIM_EEPROM.c **** *  Allows the user and the API to read the status register for error detection
1116:Generated_Source\PSoC5/SPIM_EEPROM.c **** *  and flow control.
1117:Generated_Source\PSoC5/SPIM_EEPROM.c **** *
1118:Generated_Source\PSoC5/SPIM_EEPROM.c **** * Side Effects:
1119:Generated_Source\PSoC5/SPIM_EEPROM.c **** *  Clear status register of the component.
1120:Generated_Source\PSoC5/SPIM_EEPROM.c **** *
1121:Generated_Source\PSoC5/SPIM_EEPROM.c **** * Reentrant:
1122:Generated_Source\PSoC5/SPIM_EEPROM.c **** *  No.
1123:Generated_Source\PSoC5/SPIM_EEPROM.c **** *
1124:Generated_Source\PSoC5/SPIM_EEPROM.c **** *******************************************************************************/
1125:Generated_Source\PSoC5/SPIM_EEPROM.c **** uint8 SPIM_EEPROM_ReadStatus(void) 
1126:Generated_Source\PSoC5/SPIM_EEPROM.c **** {
 1209              		.loc 1 1126 0
 1210              		.cfi_startproc
 1211              		@ args = 0, pretend = 0, frame = 0
 1212              		@ frame_needed = 0, uses_anonymous_args = 0
 1213 0000 10B5     		push	{r4, lr}
 1214              		.cfi_def_cfa_offset 8
 1215              		.cfi_offset 4, -8
 1216              		.cfi_offset 14, -4
1127:Generated_Source\PSoC5/SPIM_EEPROM.c ****     uint8 tmpStatus;
1128:Generated_Source\PSoC5/SPIM_EEPROM.c **** 
1129:Generated_Source\PSoC5/SPIM_EEPROM.c ****     #if(SPIM_EEPROM_TX_SOFTWARE_BUF_ENABLED || SPIM_EEPROM_RX_SOFTWARE_BUF_ENABLED)
1130:Generated_Source\PSoC5/SPIM_EEPROM.c **** 
ARM GAS  C:\Users\Manu\AppData\Local\Temp\cci7KmTz.s 			page 43


1131:Generated_Source\PSoC5/SPIM_EEPROM.c ****         SPIM_EEPROM_DisableInt();
 1217              		.loc 1 1131 0
 1218 0002 FFF7FEFF 		bl	SPIM_EEPROM_DisableInt
 1219              	.LVL82:
1132:Generated_Source\PSoC5/SPIM_EEPROM.c **** 
1133:Generated_Source\PSoC5/SPIM_EEPROM.c ****         tmpStatus  = SPIM_EEPROM_GET_STATUS_RX(SPIM_EEPROM_swStatusRx);
 1220              		.loc 1 1133 0
 1221 0006 0C4B     		ldr	r3, .L105
 1222 0008 1B78     		ldrb	r3, [r3]	@ zero_extendqisi2
 1223 000a 0C4A     		ldr	r2, .L105+4
 1224 000c 1478     		ldrb	r4, [r2]	@ zero_extendqisi2
 1225 000e 04F04004 		and	r4, r4, #64
 1226 0012 1C43     		orrs	r4, r4, r3
 1227              	.LVL83:
1134:Generated_Source\PSoC5/SPIM_EEPROM.c ****         tmpStatus |= SPIM_EEPROM_GET_STATUS_TX(SPIM_EEPROM_swStatusTx);
 1228              		.loc 1 1134 0
 1229 0014 0A4B     		ldr	r3, .L105+8
 1230 0016 1878     		ldrb	r0, [r3]	@ zero_extendqisi2
 1231 0018 0A49     		ldr	r1, .L105+12
 1232 001a 0B78     		ldrb	r3, [r1]	@ zero_extendqisi2
 1233 001c 03F00903 		and	r3, r3, #9
 1234 0020 0343     		orrs	r3, r3, r0
 1235 0022 1C43     		orrs	r4, r4, r3
 1236              	.LVL84:
1135:Generated_Source\PSoC5/SPIM_EEPROM.c ****         tmpStatus &= ((uint8) ~SPIM_EEPROM_STS_SPI_IDLE);
 1237              		.loc 1 1135 0
 1238 0024 04F0EF04 		and	r4, r4, #239
 1239              	.LVL85:
1136:Generated_Source\PSoC5/SPIM_EEPROM.c **** 
1137:Generated_Source\PSoC5/SPIM_EEPROM.c ****         SPIM_EEPROM_swStatusTx = 0u;
 1240              		.loc 1 1137 0
 1241 0028 0023     		movs	r3, #0
 1242 002a 0B70     		strb	r3, [r1]
1138:Generated_Source\PSoC5/SPIM_EEPROM.c ****         SPIM_EEPROM_swStatusRx = 0u;
 1243              		.loc 1 1138 0
 1244 002c 1370     		strb	r3, [r2]
1139:Generated_Source\PSoC5/SPIM_EEPROM.c **** 
1140:Generated_Source\PSoC5/SPIM_EEPROM.c ****         SPIM_EEPROM_EnableInt();
 1245              		.loc 1 1140 0
 1246 002e FFF7FEFF 		bl	SPIM_EEPROM_EnableInt
 1247              	.LVL86:
1141:Generated_Source\PSoC5/SPIM_EEPROM.c **** 
1142:Generated_Source\PSoC5/SPIM_EEPROM.c ****     #else
1143:Generated_Source\PSoC5/SPIM_EEPROM.c **** 
1144:Generated_Source\PSoC5/SPIM_EEPROM.c ****         tmpStatus  = SPIM_EEPROM_RX_STATUS_REG;
1145:Generated_Source\PSoC5/SPIM_EEPROM.c ****         tmpStatus |= SPIM_EEPROM_TX_STATUS_REG;
1146:Generated_Source\PSoC5/SPIM_EEPROM.c ****         tmpStatus &= ((uint8) ~SPIM_EEPROM_STS_SPI_IDLE);
1147:Generated_Source\PSoC5/SPIM_EEPROM.c **** 
1148:Generated_Source\PSoC5/SPIM_EEPROM.c ****     #endif /* (SPIM_EEPROM_TX_SOFTWARE_BUF_ENABLED || SPIM_EEPROM_RX_SOFTWARE_BUF_ENABLED) */
1149:Generated_Source\PSoC5/SPIM_EEPROM.c **** 
1150:Generated_Source\PSoC5/SPIM_EEPROM.c ****     return(tmpStatus);
1151:Generated_Source\PSoC5/SPIM_EEPROM.c **** }
 1248              		.loc 1 1151 0
 1249 0032 2046     		mov	r0, r4
 1250 0034 10BD     		pop	{r4, pc}
 1251              	.LVL87:
 1252              	.L106:
ARM GAS  C:\Users\Manu\AppData\Local\Temp\cci7KmTz.s 			page 44


 1253 0036 00BF     		.align	2
 1254              	.L105:
 1255 0038 60640040 		.word	1073767520
 1256 003c 00000000 		.word	SPIM_EEPROM_swStatusRx
 1257 0040 62640040 		.word	1073767522
 1258 0044 00000000 		.word	SPIM_EEPROM_swStatusTx
 1259              		.cfi_endproc
 1260              	.LFE23:
 1261              		.size	SPIM_EEPROM_ReadStatus, .-SPIM_EEPROM_ReadStatus
 1262              		.comm	SPIM_EEPROM_swStatusRx,1,1
 1263              		.comm	SPIM_EEPROM_swStatusTx,1,1
 1264              		.global	SPIM_EEPROM_initVar
 1265              		.comm	SPIM_EEPROM_rxBufferWrite,1,1
 1266              		.comm	SPIM_EEPROM_rxBufferRead,1,1
 1267              		.comm	SPIM_EEPROM_rxBufferFull,1,1
 1268              		.comm	SPIM_EEPROM_rxBuffer,8,4
 1269              		.comm	SPIM_EEPROM_txBufferWrite,1,1
 1270              		.comm	SPIM_EEPROM_txBufferRead,1,1
 1271              		.comm	SPIM_EEPROM_txBufferFull,1,1
 1272              		.comm	SPIM_EEPROM_txBuffer,8,4
 1273              		.bss
 1274              		.set	.LANCHOR0,. + 0
 1275              		.type	SPIM_EEPROM_initVar, %object
 1276              		.size	SPIM_EEPROM_initVar, 1
 1277              	SPIM_EEPROM_initVar:
 1278 0000 00       		.space	1
 1279              		.text
 1280              	.Letext0:
 1281              		.file 2 "Generated_Source\\PSoC5\\cytypes.h"
 1282              		.file 3 "Generated_Source\\PSoC5\\CyLib.h"
 1283              		.file 4 "Generated_Source\\PSoC5\\SPIM_EEPROM_IntClock.h"